Archive member included because of file (symbol)

/usr/lib/gcc/i686-w64-mingw32/4.8/../../../../i686-w64-mingw32/lib/../lib/libkernel32.a(dnqfbs01140.o)
                              build/release/stub_zlib_solid/exec.o (_imp__Sleep@4)
/usr/lib/gcc/i686-w64-mingw32/4.8/../../../../i686-w64-mingw32/lib/../lib/libkernel32.a(dnqfbs01057.o)
                              build/release/stub_zlib_solid/exec.o (_imp__SetFileAttributesA@8)
/usr/lib/gcc/i686-w64-mingw32/4.8/../../../../i686-w64-mingw32/lib/../lib/libkernel32.a(dnqfbs00126.o)
                              build/release/stub_zlib_solid/exec.o (_imp__CreateDirectoryA@8)
/usr/lib/gcc/i686-w64-mingw32/4.8/../../../../i686-w64-mingw32/lib/../lib/libkernel32.a(dnqfbs00515.o)
                              build/release/stub_zlib_solid/exec.o (_imp__GetLastError@0)
/usr/lib/gcc/i686-w64-mingw32/4.8/../../../../i686-w64-mingw32/lib/../lib/libkernel32.a(dnqfbs00486.o)
                              build/release/stub_zlib_solid/exec.o (_imp__GetFileAttributesA@4)
/usr/lib/gcc/i686-w64-mingw32/4.8/../../../../i686-w64-mingw32/lib/../lib/libkernel32.a(dnqfbs01040.o)
                              build/release/stub_zlib_solid/exec.o (_imp__SetCurrentDirectoryA@4)
/usr/lib/gcc/i686-w64-mingw32/4.8/../../../../i686-w64-mingw32/lib/../lib/libkernel32.a(dnqfbs00844.o)
                              build/release/stub_zlib_solid/exec.o (_imp__MoveFileA@8)
/usr/lib/gcc/i686-w64-mingw32/4.8/../../../../i686-w64-mingw32/lib/../lib/libkernel32.a(dnqfbs00505.o)
                              build/release/stub_zlib_solid/exec.o (_imp__GetFullPathNameA@16)
/usr/lib/gcc/i686-w64-mingw32/4.8/../../../../i686-w64-mingw32/lib/../lib/libkernel32.a(dnqfbs00610.o)
                              build/release/stub_zlib_solid/exec.o (_imp__GetShortPathNameA@12)
/usr/lib/gcc/i686-w64-mingw32/4.8/../../../../i686-w64-mingw32/lib/../lib/libkernel32.a(dnqfbs00991.o)
                              build/release/stub_zlib_solid/exec.o (_imp__SearchPathA@24)
/usr/lib/gcc/i686-w64-mingw32/4.8/../../../../i686-w64-mingw32/lib/../lib/libkernel32.a(dnqfbs00097.o)
                              build/release/stub_zlib_solid/exec.o (_imp__CompareFileTime@8)
/usr/lib/gcc/i686-w64-mingw32/4.8/../../../../i686-w64-mingw32/lib/../lib/libkernel32.a(dnqfbs01069.o)
                              build/release/stub_zlib_solid/exec.o (_imp__SetFileTime@16)
/usr/lib/gcc/i686-w64-mingw32/4.8/../../../../i686-w64-mingw32/lib/../lib/libkernel32.a(dnqfbs00083.o)
                              build/release/stub_zlib_solid/exec.o (_imp__CloseHandle@4)
/usr/lib/gcc/i686-w64-mingw32/4.8/../../../../i686-w64-mingw32/lib/../lib/libkernel32.a(dnqfbs01295.o)
                              build/release/stub_zlib_solid/exec.o (_imp__lstrcmpiA@8)
/usr/lib/gcc/i686-w64-mingw32/4.8/../../../../i686-w64-mingw32/lib/../lib/libkernel32.a(dnqfbs01292.o)
                              build/release/stub_zlib_solid/exec.o (_imp__lstrcmpA@8)
/usr/lib/gcc/i686-w64-mingw32/4.8/../../../../i686-w64-mingw32/lib/../lib/libkernel32.a(dnqfbs00285.o)
                              build/release/stub_zlib_solid/exec.o (_imp__ExpandEnvironmentStringsA@12)
/usr/lib/gcc/i686-w64-mingw32/4.8/../../../../i686-w64-mingw32/lib/../lib/libkernel32.a(dnqfbs00702.o)
                              build/release/stub_zlib_solid/exec.o (_imp__GlobalFree@4)
/usr/lib/gcc/i686-w64-mingw32/4.8/../../../../i686-w64-mingw32/lib/../lib/libkernel32.a(dnqfbs00695.o)
                              build/release/stub_zlib_solid/exec.o (_imp__GlobalAlloc@8)
/usr/lib/gcc/i686-w64-mingw32/4.8/../../../../i686-w64-mingw32/lib/../lib/libkernel32.a(dnqfbs00852.o)
                              build/release/stub_zlib_solid/exec.o (_imp__MulDiv@12)
/usr/lib/gcc/i686-w64-mingw32/4.8/../../../../i686-w64-mingw32/lib/../lib/libkernel32.a(dnqfbs01218.o)
                              build/release/stub_zlib_solid/exec.o (_imp__WaitForSingleObject@8)
/usr/lib/gcc/i686-w64-mingw32/4.8/../../../../i686-w64-mingw32/lib/../lib/libkernel32.a(dnqfbs00482.o)
                              build/release/stub_zlib_solid/exec.o (_imp__GetExitCodeProcess@8)
/usr/lib/gcc/i686-w64-mingw32/4.8/../../../../i686-w64-mingw32/lib/../lib/libkernel32.a(dnqfbs00810.o)
                              build/release/stub_zlib_solid/exec.o (_imp__LoadLibraryExA@12)
/usr/lib/gcc/i686-w64-mingw32/4.8/../../../../i686-w64-mingw32/lib/../lib/libkernel32.a(dnqfbs00533.o)
                              build/release/stub_zlib_solid/exec.o (_imp__GetModuleHandleA@4)
/usr/lib/gcc/i686-w64-mingw32/4.8/../../../../i686-w64-mingw32/lib/../lib/libkernel32.a(dnqfbs00581.o)
                              build/release/stub_zlib_solid/exec.o (_imp__GetProcAddress@8)
/usr/lib/gcc/i686-w64-mingw32/4.8/../../../../i686-w64-mingw32/lib/../lib/libkernel32.a(dnqfbs00356.o)
                              build/release/stub_zlib_solid/exec.o (_imp__FreeLibrary@4)
/usr/lib/gcc/i686-w64-mingw32/4.8/../../../../i686-w64-mingw32/lib/../lib/libkernel32.a(dnqfbs00853.o)
                              build/release/stub_zlib_solid/exec.o (_imp__MultiByteToWideChar@24)
/usr/lib/gcc/i686-w64-mingw32/4.8/../../../../i686-w64-mingw32/lib/../lib/libkernel32.a(dnqfbs01268.o)
                              build/release/stub_zlib_solid/exec.o (_imp__WritePrivateProfileStringA@16)
/usr/lib/gcc/i686-w64-mingw32/4.8/../../../../i686-w64-mingw32/lib/../lib/libkernel32.a(dnqfbs00577.o)
                              build/release/stub_zlib_solid/exec.o (_imp__GetPrivateProfileStringA@24)
/usr/lib/gcc/i686-w64-mingw32/4.8/../../../../i686-w64-mingw32/lib/../lib/libkernel32.a(dnqfbs01262.o)
                              build/release/stub_zlib_solid/exec.o (_imp__WriteFile@20)
/usr/lib/gcc/i686-w64-mingw32/4.8/../../../../i686-w64-mingw32/lib/../lib/libkernel32.a(dnqfbs00941.o)
                              build/release/stub_zlib_solid/exec.o (_imp__ReadFile@20)
/usr/lib/gcc/i686-w64-mingw32/4.8/../../../../i686-w64-mingw32/lib/../lib/libkernel32.a(dnqfbs01065.o)
                              build/release/stub_zlib_solid/exec.o (_imp__SetFilePointer@16)
/usr/lib/gcc/i686-w64-mingw32/4.8/../../../../i686-w64-mingw32/lib/../lib/libkernel32.a(dnqfbs00304.o)
                              build/release/stub_zlib_solid/exec.o (_imp__FindClose@4)
/usr/lib/gcc/i686-w64-mingw32/4.8/../../../../i686-w64-mingw32/lib/../lib/libkernel32.a(dnqfbs00325.o)
                              build/release/stub_zlib_solid/exec.o (_imp__FindNextFileA@8)
/usr/lib/gcc/i686-w64-mingw32/4.8/../../../../i686-w64-mingw32/lib/../lib/libkernel32.a(dnqfbs00308.o)
                              build/release/stub_zlib_solid/exec.o (_imp__FindFirstFileA@8)
/usr/lib/gcc/i686-w64-mingw32/4.8/../../../../i686-w64-mingw32/lib/../lib/libkernel32.a(dnqfbs00214.o)
                              build/release/stub_zlib_solid/exec.o (_imp__DeleteFileA@4)
/usr/lib/gcc/i686-w64-mingw32/4.8/../../../../i686-w64-mingw32/lib/../lib/libkernel32.a(dnqfbs00663.o)
                              build/release/stub_zlib_solid/fileform.o (_imp__GetTickCount@0)
/usr/lib/gcc/i686-w64-mingw32/4.8/../../../../i686-w64-mingw32/lib/../lib/libkernel32.a(dnqfbs00531.o)
                              build/release/stub_zlib_solid/fileform.o (_imp__GetModuleFileNameA@12)
/usr/lib/gcc/i686-w64-mingw32/4.8/../../../../i686-w64-mingw32/lib/../lib/libkernel32.a(dnqfbs00497.o)
                              build/release/stub_zlib_solid/fileform.o (_imp__GetFileSize@8)
/usr/lib/gcc/i686-w64-mingw32/4.8/../../../../i686-w64-mingw32/lib/../lib/libkernel32.a(dnqfbs00139.o)
                              build/release/stub_zlib_solid/fileform.o (_imp__CreateFileA@28)
/usr/lib/gcc/i686-w64-mingw32/4.8/../../../../i686-w64-mingw32/lib/../lib/libkernel32.a(dnqfbs01052.o)
                              build/release/stub_zlib_solid/Main.o (_imp__SetErrorMode@4)
/usr/lib/gcc/i686-w64-mingw32/4.8/../../../../i686-w64-mingw32/lib/../lib/libkernel32.a(dnqfbs00394.o)
                              build/release/stub_zlib_solid/Main.o (_imp__GetCommandLineA@0)
/usr/lib/gcc/i686-w64-mingw32/4.8/../../../../i686-w64-mingw32/lib/../lib/libkernel32.a(dnqfbs00647.o)
                              build/release/stub_zlib_solid/Main.o (_imp__GetTempPathA@8)
/usr/lib/gcc/i686-w64-mingw32/4.8/../../../../i686-w64-mingw32/lib/../lib/libkernel32.a(dnqfbs00689.o)
                              build/release/stub_zlib_solid/Main.o (_imp__GetWindowsDirectoryA@8)
/usr/lib/gcc/i686-w64-mingw32/4.8/../../../../i686-w64-mingw32/lib/../lib/libkernel32.a(dnqfbs00452.o)
                              build/release/stub_zlib_solid/Main.o (_imp__GetCurrentProcess@0)
/usr/lib/gcc/i686-w64-mingw32/4.8/../../../../i686-w64-mingw32/lib/../lib/libkernel32.a(dnqfbs00282.o)
                              build/release/stub_zlib_solid/Main.o (_imp__ExitProcess@4)
/usr/lib/gcc/i686-w64-mingw32/4.8/../../../../i686-w64-mingw32/lib/../lib/libkernel32.a(dnqfbs00114.o)
                              build/release/stub_zlib_solid/Main.o (_imp__CopyFileA@12)
/usr/lib/gcc/i686-w64-mingw32/4.8/../../../../i686-w64-mingw32/lib/../lib/libkernel32.a(dnqfbs01301.o)
                              build/release/stub_zlib_solid/Ui.o (_imp__lstrcpynA@12)
/usr/lib/gcc/i686-w64-mingw32/4.8/../../../../i686-w64-mingw32/lib/../lib/libkernel32.a(dnqfbs00464.o)
                              build/release/stub_zlib_solid/Ui.o (_imp__GetDiskFreeSpaceA@20)
/usr/lib/gcc/i686-w64-mingw32/4.8/../../../../i686-w64-mingw32/lib/../lib/libkernel32.a(dnqfbs00809.o)
                              build/release/stub_zlib_solid/Ui.o (_imp__LoadLibraryA@4)
/usr/lib/gcc/i686-w64-mingw32/4.8/../../../../i686-w64-mingw32/lib/../lib/libkernel32.a(dnqfbs00183.o)
                              build/release/stub_zlib_solid/Ui.o (_imp__CreateThread@24)
/usr/lib/gcc/i686-w64-mingw32/4.8/../../../../i686-w64-mingw32/lib/../lib/libkernel32.a(dnqfbs00706.o)
                              build/release/stub_zlib_solid/Ui.o (_imp__GlobalLock@4)
/usr/lib/gcc/i686-w64-mingw32/4.8/../../../../i686-w64-mingw32/lib/../lib/libkernel32.a(dnqfbs00714.o)
                              build/release/stub_zlib_solid/Ui.o (_imp__GlobalUnlock@4)
/usr/lib/gcc/i686-w64-mingw32/4.8/../../../../i686-w64-mingw32/lib/../lib/libkernel32.a(dnqfbs00167.o)
                              build/release/stub_zlib_solid/util.o (_imp__CreateProcessA@40)
/usr/lib/gcc/i686-w64-mingw32/4.8/../../../../i686-w64-mingw32/lib/../lib/libkernel32.a(dnqfbs01304.o)
                              build/release/stub_zlib_solid/util.o (_imp__lstrlenA@4)
/usr/lib/gcc/i686-w64-mingw32/4.8/../../../../i686-w64-mingw32/lib/../lib/libkernel32.a(dnqfbs00645.o)
                              build/release/stub_zlib_solid/util.o (_imp__GetTempFileNameA@16)
/usr/lib/gcc/i686-w64-mingw32/4.8/../../../../i686-w64-mingw32/lib/../lib/libkernel32.a(dnqfbs01289.o)
                              build/release/stub_zlib_solid/util.o (_imp__lstrcatA@8)
/usr/lib/gcc/i686-w64-mingw32/4.8/../../../../i686-w64-mingw32/lib/../lib/libkernel32.a(dnqfbs00677.o)
                              build/release/stub_zlib_solid/util.o (_imp__GetVersion@0)
/usr/lib/gcc/i686-w64-mingw32/4.8/../../../../i686-w64-mingw32/lib/../lib/libkernel32.a(dnqfbs00625.o)
                              build/release/stub_zlib_solid/util.o (_imp__GetSystemDirectoryA@8)
/usr/lib/gcc/i686-w64-mingw32/4.8/../../../../i686-w64-mingw32/lib/../lib/libkernel32.a(dnqfbs00964.o)
                              build/release/stub_zlib_solid/util.o (_imp__RemoveDirectoryA@4)
/usr/lib/gcc/i686-w64-mingw32/4.8/../../../../i686-w64-mingw32/lib/../lib/libkernel32.a(dnqfbh.o)
                              /usr/lib/gcc/i686-w64-mingw32/4.8/../../../../i686-w64-mingw32/lib/../lib/libkernel32.a(dnqfbs01140.o) (_head_lib32_libkernel32_a)
/usr/lib/gcc/i686-w64-mingw32/4.8/../../../../i686-w64-mingw32/lib/../lib/libkernel32.a(dnqfbt.o)
                              /usr/lib/gcc/i686-w64-mingw32/4.8/../../../../i686-w64-mingw32/lib/../lib/libkernel32.a(dnqfbh.o) (_lib32_libkernel32_a_iname)
/usr/lib/gcc/i686-w64-mingw32/4.8/../../../../i686-w64-mingw32/lib/../lib/libuser32.a(dbukbs00011.o)
                              build/release/stub_zlib_solid/bgbg.o (_imp__BeginPaint@8)
/usr/lib/gcc/i686-w64-mingw32/4.8/../../../../i686-w64-mingw32/lib/../lib/libuser32.a(dbukbs00237.o)
                              build/release/stub_zlib_solid/bgbg.o (_imp__GetClientRect@8)
/usr/lib/gcc/i686-w64-mingw32/4.8/../../../../i686-w64-mingw32/lib/../lib/libuser32.a(dbukbs00210.o)
                              build/release/stub_zlib_solid/bgbg.o (_imp__FillRect@12)
/usr/lib/gcc/i686-w64-mingw32/4.8/../../../../i686-w64-mingw32/lib/../lib/libuser32.a(dbukbs00173.o)
                              build/release/stub_zlib_solid/bgbg.o (_imp__DrawTextA@20)
/usr/lib/gcc/i686-w64-mingw32/4.8/../../../../i686-w64-mingw32/lib/../lib/libuser32.a(dbukbs00185.o)
                              build/release/stub_zlib_solid/bgbg.o (_imp__EndPaint@8)
/usr/lib/gcc/i686-w64-mingw32/4.8/../../../../i686-w64-mingw32/lib/../lib/libuser32.a(dbukbs00135.o)
                              build/release/stub_zlib_solid/bgbg.o (_imp__DefWindowProcA@16)
/usr/lib/gcc/i686-w64-mingw32/4.8/../../../../i686-w64-mingw32/lib/../lib/libuser32.a(dbukbs00472.o)
                              build/release/stub_zlib_solid/exec.o (_imp__PostQuitMessage@4)
/usr/lib/gcc/i686-w64-mingw32/4.8/../../../../i686-w64-mingw32/lib/../lib/libuser32.a(dbukbs00538.o)
                              build/release/stub_zlib_solid/exec.o (_imp__SetForegroundWindow@4)
/usr/lib/gcc/i686-w64-mingw32/4.8/../../../../i686-w64-mingw32/lib/../lib/libuser32.a(dbukbs00590.o)
                              build/release/stub_zlib_solid/exec.o (_imp__ShowWindow@8)
/usr/lib/gcc/i686-w64-mingw32/4.8/../../../../i686-w64-mingw32/lib/../lib/libuser32.a(dbukbs00644.o)
                              build/release/stub_zlib_solid/exec.o (_imp__wsprintfA)
/usr/lib/gcc/i686-w64-mingw32/4.8/../../../../i686-w64-mingw32/lib/../lib/libuser32.a(dbukbs00515.o)
                              build/release/stub_zlib_solid/exec.o (_imp__SendMessageTimeoutA@28)
/usr/lib/gcc/i686-w64-mingw32/4.8/../../../../i686-w64-mingw32/lib/../lib/libuser32.a(dbukbs00512.o)
                              build/release/stub_zlib_solid/exec.o (_imp__SendMessageA@16)
/usr/lib/gcc/i686-w64-mingw32/4.8/../../../../i686-w64-mingw32/lib/../lib/libuser32.a(dbukbs00212.o)
                              build/release/stub_zlib_solid/exec.o (_imp__FindWindowExA@16)
/usr/lib/gcc/i686-w64-mingw32/4.8/../../../../i686-w64-mingw32/lib/../lib/libuser32.a(dbukbs00398.o)
                              build/release/stub_zlib_solid/exec.o (_imp__IsWindow@4)
/usr/lib/gcc/i686-w64-mingw32/4.8/../../../../i686-w64-mingw32/lib/../lib/libuser32.a(dbukbs00254.o)
                              build/release/stub_zlib_solid/exec.o (_imp__GetDlgItem@8)
/usr/lib/gcc/i686-w64-mingw32/4.8/../../../../i686-w64-mingw32/lib/../lib/libuser32.a(dbukbs00574.o)
                              build/release/stub_zlib_solid/exec.o (_imp__SetWindowLongA@12)
/usr/lib/gcc/i686-w64-mingw32/4.8/../../../../i686-w64-mingw32/lib/../lib/libuser32.a(dbukbs00415.o)
                              build/release/stub_zlib_solid/exec.o (_imp__LoadImageA@24)
/usr/lib/gcc/i686-w64-mingw32/4.8/../../../../i686-w64-mingw32/lib/../lib/libuser32.a(dbukbs00249.o)
                              build/release/stub_zlib_solid/exec.o (_imp__GetDC@4)
/usr/lib/gcc/i686-w64-mingw32/4.8/../../../../i686-w64-mingw32/lib/../lib/libuser32.a(dbukbs00181.o)
                              build/release/stub_zlib_solid/exec.o (_imp__EnableWindow@8)
/usr/lib/gcc/i686-w64-mingw32/4.8/../../../../i686-w64-mingw32/lib/../lib/libuser32.a(dbukbs00374.o)
                              build/release/stub_zlib_solid/exec.o (_imp__InvalidateRect@12)
/usr/lib/gcc/i686-w64-mingw32/4.8/../../../../i686-w64-mingw32/lib/../lib/libuser32.a(dbukbs00568.o)
                              build/release/stub_zlib_solid/fileform.o (_imp__SetTimer@16)
/usr/lib/gcc/i686-w64-mingw32/4.8/../../../../i686-w64-mingw32/lib/../lib/libuser32.a(dbukbs00579.o)
                              build/release/stub_zlib_solid/fileform.o (_imp__SetWindowTextA@8)
/usr/lib/gcc/i686-w64-mingw32/4.8/../../../../i686-w64-mingw32/lib/../lib/libuser32.a(dbukbs00145.o)
                              build/release/stub_zlib_solid/fileform.o (_imp__DestroyWindow@4)
/usr/lib/gcc/i686-w64-mingw32/4.8/../../../../i686-w64-mingw32/lib/../lib/libuser32.a(dbukbs00081.o)
                              build/release/stub_zlib_solid/fileform.o (_imp__CreateDialogParamA@20)
/usr/lib/gcc/i686-w64-mingw32/4.8/../../../../i686-w64-mingw32/lib/../lib/libuser32.a(dbukbs00039.o)
                              build/release/stub_zlib_solid/Main.o (_imp__CharNextA@4)
/usr/lib/gcc/i686-w64-mingw32/4.8/../../../../i686-w64-mingw32/lib/../lib/libuser32.a(dbukbs00209.o)
                              build/release/stub_zlib_solid/Main.o (_imp__ExitWindowsEx@8)
/usr/lib/gcc/i686-w64-mingw32/4.8/../../../../i686-w64-mingw32/lib/../lib/libuser32.a(dbukbs00346.o)
                              build/release/stub_zlib_solid/Ui.o (_imp__GetWindowLongA@8)
/usr/lib/gcc/i686-w64-mingw32/4.8/../../../../i686-w64-mingw32/lib/../lib/libuser32.a(dbukbs00327.o)
                              build/release/stub_zlib_solid/Ui.o (_imp__GetSysColor@4)
/usr/lib/gcc/i686-w64-mingw32/4.8/../../../../i686-w64-mingw32/lib/../lib/libuser32.a(dbukbs00524.o)
                              build/release/stub_zlib_solid/Ui.o (_imp__SetClassLongA@12)
/usr/lib/gcc/i686-w64-mingw32/4.8/../../../../i686-w64-mingw32/lib/../lib/libuser32.a(dbukbs00329.o)
                              build/release/stub_zlib_solid/Ui.o (_imp__GetSystemMenu@8)
/usr/lib/gcc/i686-w64-mingw32/4.8/../../../../i686-w64-mingw32/lib/../lib/libuser32.a(dbukbs00179.o)
                              build/release/stub_zlib_solid/Ui.o (_imp__EnableMenuItem@12)
/usr/lib/gcc/i686-w64-mingw32/4.8/../../../../i686-w64-mingw32/lib/../lib/libuser32.a(dbukbs00183.o)
                              build/release/stub_zlib_solid/Ui.o (_imp__EndDialog@8)
/usr/lib/gcc/i686-w64-mingw32/4.8/../../../../i686-w64-mingw32/lib/../lib/libuser32.a(dbukbs00352.o)
                              build/release/stub_zlib_solid/Ui.o (_imp__GetWindowRect@8)
/usr/lib/gcc/i686-w64-mingw32/4.8/../../../../i686-w64-mingw32/lib/../lib/libuser32.a(dbukbs00504.o)
                              build/release/stub_zlib_solid/Ui.o (_imp__ScreenToClient@8)
/usr/lib/gcc/i686-w64-mingw32/4.8/../../../../i686-w64-mingw32/lib/../lib/libuser32.a(dbukbs00577.o)
                              build/release/stub_zlib_solid/Ui.o (_imp__SetWindowPos@28)
/usr/lib/gcc/i686-w64-mingw32/4.8/../../../../i686-w64-mingw32/lib/../lib/libuser32.a(dbukbs00399.o)
                              build/release/stub_zlib_solid/Ui.o (_imp__IsWindowEnabled@4)
/usr/lib/gcc/i686-w64-mingw32/4.8/../../../../i686-w64-mingw32/lib/../lib/libuser32.a(dbukbs00053.o)
                              build/release/stub_zlib_solid/Ui.o (_imp__CheckDlgButton@12)
/usr/lib/gcc/i686-w64-mingw32/4.8/../../../../i686-w64-mingw32/lib/../lib/libuser32.a(dbukbs00409.o)
                              build/release/stub_zlib_solid/Ui.o (_imp__LoadCursorA@8)
/usr/lib/gcc/i686-w64-mingw32/4.8/../../../../i686-w64-mingw32/lib/../lib/libuser32.a(dbukbs00529.o)
                              build/release/stub_zlib_solid/Ui.o (_imp__SetCursor@4)
/usr/lib/gcc/i686-w64-mingw32/4.8/../../../../i686-w64-mingw32/lib/../lib/libuser32.a(dbukbs00390.o)
                              build/release/stub_zlib_solid/Ui.o (_imp__IsDlgButtonChecked@8)
/usr/lib/gcc/i686-w64-mingw32/4.8/../../../../i686-w64-mingw32/lib/../lib/libuser32.a(dbukbs00224.o)
                              build/release/stub_zlib_solid/Ui.o (_imp__GetAsyncKeyState@4)
/usr/lib/gcc/i686-w64-mingw32/4.8/../../../../i686-w64-mingw32/lib/../lib/libuser32.a(dbukbs00483.o)
                              build/release/stub_zlib_solid/Ui.o (_imp__RegisterClassA@4)
/usr/lib/gcc/i686-w64-mingw32/4.8/../../../../i686-w64-mingw32/lib/../lib/libuser32.a(dbukbs00596.o)
                              build/release/stub_zlib_solid/Ui.o (_imp__SystemParametersInfoA@16)
/usr/lib/gcc/i686-w64-mingw32/4.8/../../../../i686-w64-mingw32/lib/../lib/libuser32.a(dbukbs00091.o)
                              build/release/stub_zlib_solid/Ui.o (_imp__CreateWindowExA@48)
/usr/lib/gcc/i686-w64-mingw32/4.8/../../../../i686-w64-mingw32/lib/../lib/libuser32.a(dbukbs00228.o)
                              build/release/stub_zlib_solid/Ui.o (_imp__GetClassInfoA@12)
/usr/lib/gcc/i686-w64-mingw32/4.8/../../../../i686-w64-mingw32/lib/../lib/libuser32.a(dbukbs00148.o)
                              build/release/stub_zlib_solid/Ui.o (_imp__DialogBoxParamA@20)
/usr/lib/gcc/i686-w64-mingw32/4.8/../../../../i686-w64-mingw32/lib/../lib/libuser32.a(dbukbs00299.o)
                              build/release/stub_zlib_solid/Ui.o (_imp__GetMessagePos@0)
/usr/lib/gcc/i686-w64-mingw32/4.8/../../../../i686-w64-mingw32/lib/../lib/libuser32.a(dbukbs00407.o)
                              build/release/stub_zlib_solid/Ui.o (_imp__LoadBitmapA@8)
/usr/lib/gcc/i686-w64-mingw32/4.8/../../../../i686-w64-mingw32/lib/../lib/libuser32.a(dbukbs00401.o)
                              build/release/stub_zlib_solid/Ui.o (_imp__IsWindowVisible@4)
/usr/lib/gcc/i686-w64-mingw32/4.8/../../../../i686-w64-mingw32/lib/../lib/libuser32.a(dbukbs00024.o)
                              build/release/stub_zlib_solid/Ui.o (_imp__CallWindowProcA@20)
/usr/lib/gcc/i686-w64-mingw32/4.8/../../../../i686-w64-mingw32/lib/../lib/libuser32.a(dbukbs00330.o)
                              build/release/stub_zlib_solid/Ui.o (_imp__GetSystemMetrics@4)
/usr/lib/gcc/i686-w64-mingw32/4.8/../../../../i686-w64-mingw32/lib/../lib/libuser32.a(dbukbs00090.o)
                              build/release/stub_zlib_solid/Ui.o (_imp__CreatePopupMenu@0)
/usr/lib/gcc/i686-w64-mingw32/4.8/../../../../i686-w64-mingw32/lib/../lib/libuser32.a(dbukbs00006.o)
                              build/release/stub_zlib_solid/Ui.o (_imp__AppendMenuA@16)
/usr/lib/gcc/i686-w64-mingw32/4.8/../../../../i686-w64-mingw32/lib/../lib/libuser32.a(dbukbs00607.o)
                              build/release/stub_zlib_solid/Ui.o (_imp__TrackPopupMenu@28)
/usr/lib/gcc/i686-w64-mingw32/4.8/../../../../i686-w64-mingw32/lib/../lib/libuser32.a(dbukbs00459.o)
                              build/release/stub_zlib_solid/Ui.o (_imp__OpenClipboard@4)
/usr/lib/gcc/i686-w64-mingw32/4.8/../../../../i686-w64-mingw32/lib/../lib/libuser32.a(dbukbs00178.o)
                              build/release/stub_zlib_solid/Ui.o (_imp__EmptyClipboard@0)
/usr/lib/gcc/i686-w64-mingw32/4.8/../../../../i686-w64-mingw32/lib/../lib/libuser32.a(dbukbs00527.o)
                              build/release/stub_zlib_solid/Ui.o (_imp__SetClipboardData@8)
/usr/lib/gcc/i686-w64-mingw32/4.8/../../../../i686-w64-mingw32/lib/../lib/libuser32.a(dbukbs00061.o)
                              build/release/stub_zlib_solid/Ui.o (_imp__CloseClipboard@0)
/usr/lib/gcc/i686-w64-mingw32/4.8/../../../../i686-w64-mingw32/lib/../lib/libuser32.a(dbukbs00534.o)
                              build/release/stub_zlib_solid/util.o (_imp__SetDlgItemTextA@12)
/usr/lib/gcc/i686-w64-mingw32/4.8/../../../../i686-w64-mingw32/lib/../lib/libuser32.a(dbukbs00256.o)
                              build/release/stub_zlib_solid/util.o (_imp__GetDlgItemTextA@16)
/usr/lib/gcc/i686-w64-mingw32/4.8/../../../../i686-w64-mingw32/lib/../lib/libuser32.a(dbukbs00441.o)
                              build/release/stub_zlib_solid/util.o (_imp__MessageBoxIndirectA@4)
/usr/lib/gcc/i686-w64-mingw32/4.8/../../../../i686-w64-mingw32/lib/../lib/libuser32.a(dbukbs00042.o)
                              build/release/stub_zlib_solid/util.o (_imp__CharPrevA@8)
/usr/lib/gcc/i686-w64-mingw32/4.8/../../../../i686-w64-mingw32/lib/../lib/libuser32.a(dbukbs00646.o)
                              build/release/stub_zlib_solid/util.o (_imp__wvsprintfA@12)
/usr/lib/gcc/i686-w64-mingw32/4.8/../../../../i686-w64-mingw32/lib/../lib/libuser32.a(dbukbs00468.o)
                              build/release/stub_zlib_solid/util.o (_imp__PeekMessageA@20)
/usr/lib/gcc/i686-w64-mingw32/4.8/../../../../i686-w64-mingw32/lib/../lib/libuser32.a(dbukbs00150.o)
                              build/release/stub_zlib_solid/util.o (_imp__DispatchMessageA@4)
/usr/lib/gcc/i686-w64-mingw32/4.8/../../../../i686-w64-mingw32/lib/../lib/libuser32.a(dbukbh.o)
                              /usr/lib/gcc/i686-w64-mingw32/4.8/../../../../i686-w64-mingw32/lib/../lib/libuser32.a(dbukbs00011.o) (_head_lib32_libuser32_a)
/usr/lib/gcc/i686-w64-mingw32/4.8/../../../../i686-w64-mingw32/lib/../lib/libuser32.a(dbukbt.o)
                              /usr/lib/gcc/i686-w64-mingw32/4.8/../../../../i686-w64-mingw32/lib/../lib/libuser32.a(dbukbh.o) (_lib32_libuser32_a_iname)
/usr/lib/gcc/i686-w64-mingw32/4.8/../../../../i686-w64-mingw32/lib/../lib/libgdi32.a(dtfkbs00030.o)
                              build/release/stub_zlib_solid/bgbg.o (_imp__CreateBrushIndirect@4)
/usr/lib/gcc/i686-w64-mingw32/4.8/../../../../i686-w64-mingw32/lib/../lib/libgdi32.a(dtfkbs00075.o)
                              build/release/stub_zlib_solid/bgbg.o (_imp__DeleteObject@4)
/usr/lib/gcc/i686-w64-mingw32/4.8/../../../../i686-w64-mingw32/lib/../lib/libgdi32.a(dtfkbs00047.o)
                              build/release/stub_zlib_solid/bgbg.o (_imp__CreateFontIndirectA@4)
/usr/lib/gcc/i686-w64-mingw32/4.8/../../../../i686-w64-mingw32/lib/../lib/libgdi32.a(dtfkbs00312.o)
                              build/release/stub_zlib_solid/bgbg.o (_imp__SetBkMode@8)
/usr/lib/gcc/i686-w64-mingw32/4.8/../../../../i686-w64-mingw32/lib/../lib/libgdi32.a(dtfkbs00348.o)
                              build/release/stub_zlib_solid/bgbg.o (_imp__SetTextColor@8)
/usr/lib/gcc/i686-w64-mingw32/4.8/../../../../i686-w64-mingw32/lib/../lib/libgdi32.a(dtfkbs00305.o)
                              build/release/stub_zlib_solid/bgbg.o (_imp__SelectObject@8)
/usr/lib/gcc/i686-w64-mingw32/4.8/../../../../i686-w64-mingw32/lib/../lib/libgdi32.a(dtfkbs00168.o)
                              build/release/stub_zlib_solid/exec.o (_imp__GetDeviceCaps@8)
/usr/lib/gcc/i686-w64-mingw32/4.8/../../../../i686-w64-mingw32/lib/../lib/libgdi32.a(dtfkbs00311.o)
                              build/release/stub_zlib_solid/Ui.o (_imp__SetBkColor@8)
/usr/lib/gcc/i686-w64-mingw32/4.8/../../../../i686-w64-mingw32/lib/../lib/libgdi32.a(dtfkbh.o)
                              /usr/lib/gcc/i686-w64-mingw32/4.8/../../../../i686-w64-mingw32/lib/../lib/libgdi32.a(dtfkbs00030.o) (_head_lib32_libgdi32_a)
/usr/lib/gcc/i686-w64-mingw32/4.8/../../../../i686-w64-mingw32/lib/../lib/libgdi32.a(dtfkbt.o)
                              /usr/lib/gcc/i686-w64-mingw32/4.8/../../../../i686-w64-mingw32/lib/../lib/libgdi32.a(dtfkbh.o) (_lib32_libgdi32_a_iname)
/usr/lib/gcc/i686-w64-mingw32/4.8/../../../../i686-w64-mingw32/lib/../lib/libshell32.a(dyxfbs00148.o)
                              build/release/stub_zlib_solid/exec.o (_imp__ShellExecuteA@24)
/usr/lib/gcc/i686-w64-mingw32/4.8/../../../../i686-w64-mingw32/lib/../lib/libshell32.a(lib32_libshell32_a-shell32.o)
                              build/release/stub_zlib_solid/exec.o (CLSID_ShellLink)
/usr/lib/gcc/i686-w64-mingw32/4.8/../../../../i686-w64-mingw32/lib/../lib/libshell32.a(dyxfbs00077.o)
                              build/release/stub_zlib_solid/exec.o (_imp__SHFileOperationA@4)
/usr/lib/gcc/i686-w64-mingw32/4.8/../../../../i686-w64-mingw32/lib/../lib/libshell32.a(dyxfbs00088.o)
                              build/release/stub_zlib_solid/Main.o (_imp__SHGetFileInfoA@20)
/usr/lib/gcc/i686-w64-mingw32/4.8/../../../../i686-w64-mingw32/lib/../lib/libshell32.a(dyxfbs00104.o)
                              build/release/stub_zlib_solid/Ui.o (_imp__SHGetPathFromIDListA@8)
/usr/lib/gcc/i686-w64-mingw32/4.8/../../../../i686-w64-mingw32/lib/../lib/libshell32.a(dyxfbs00063.o)
                              build/release/stub_zlib_solid/Ui.o (_imp__SHBrowseForFolderA@4)
/usr/lib/gcc/i686-w64-mingw32/4.8/../../../../i686-w64-mingw32/lib/../lib/libshell32.a(dyxfbs00108.o)
                              build/release/stub_zlib_solid/util.o (_imp__SHGetSpecialFolderLocation@12)
/usr/lib/gcc/i686-w64-mingw32/4.8/../../../../i686-w64-mingw32/lib/../lib/libshell32.a(dyxfbh.o)
                              /usr/lib/gcc/i686-w64-mingw32/4.8/../../../../i686-w64-mingw32/lib/../lib/libshell32.a(dyxfbs00148.o) (_head_lib32_libshell32_a)
/usr/lib/gcc/i686-w64-mingw32/4.8/../../../../i686-w64-mingw32/lib/../lib/libshell32.a(dyxfbt.o)
                              /usr/lib/gcc/i686-w64-mingw32/4.8/../../../../i686-w64-mingw32/lib/../lib/libshell32.a(dyxfbh.o) (_lib32_libshell32_a_iname)
/usr/lib/gcc/i686-w64-mingw32/4.8/../../../../i686-w64-mingw32/lib/../lib/libadvapi32.a(drrjbs00616.o)
                              build/release/stub_zlib_solid/exec.o (_imp__RegOpenKeyExA@20)
/usr/lib/gcc/i686-w64-mingw32/4.8/../../../../i686-w64-mingw32/lib/../lib/libadvapi32.a(drrjbs00597.o)
                              build/release/stub_zlib_solid/exec.o (_imp__RegEnumKeyA@16)
/usr/lib/gcc/i686-w64-mingw32/4.8/../../../../i686-w64-mingw32/lib/../lib/libadvapi32.a(drrjbs00568.o)
                              build/release/stub_zlib_solid/exec.o (_imp__RegCloseKey@4)
/usr/lib/gcc/i686-w64-mingw32/4.8/../../../../i686-w64-mingw32/lib/../lib/libadvapi32.a(drrjbs00581.o)
                              build/release/stub_zlib_solid/exec.o (_imp__RegDeleteKeyA@8)
/usr/lib/gcc/i686-w64-mingw32/4.8/../../../../i686-w64-mingw32/lib/../lib/libadvapi32.a(drrjbs00591.o)
                              build/release/stub_zlib_solid/exec.o (_imp__RegDeleteValueA@8)
/usr/lib/gcc/i686-w64-mingw32/4.8/../../../../i686-w64-mingw32/lib/../lib/libadvapi32.a(drrjbs00576.o)
                              build/release/stub_zlib_solid/exec.o (_imp__RegCreateKeyExA@36)
/usr/lib/gcc/i686-w64-mingw32/4.8/../../../../i686-w64-mingw32/lib/../lib/libadvapi32.a(drrjbs00645.o)
                              build/release/stub_zlib_solid/exec.o (_imp__RegSetValueExA@24)
/usr/lib/gcc/i686-w64-mingw32/4.8/../../../../i686-w64-mingw32/lib/../lib/libadvapi32.a(drrjbs00629.o)
                              build/release/stub_zlib_solid/exec.o (_imp__RegQueryValueExA@24)
/usr/lib/gcc/i686-w64-mingw32/4.8/../../../../i686-w64-mingw32/lib/../lib/libadvapi32.a(drrjbs00601.o)
                              build/release/stub_zlib_solid/exec.o (_imp__RegEnumValueA@32)
/usr/lib/gcc/i686-w64-mingw32/4.8/../../../../i686-w64-mingw32/lib/../lib/libadvapi32.a(drrjbh.o)
                              /usr/lib/gcc/i686-w64-mingw32/4.8/../../../../i686-w64-mingw32/lib/../lib/libadvapi32.a(drrjbs00616.o) (_head_lib32_libadvapi32_a)
/usr/lib/gcc/i686-w64-mingw32/4.8/../../../../i686-w64-mingw32/lib/../lib/libadvapi32.a(drrjbt.o)
                              /usr/lib/gcc/i686-w64-mingw32/4.8/../../../../i686-w64-mingw32/lib/../lib/libadvapi32.a(drrjbh.o) (_lib32_libadvapi32_a_iname)
/usr/lib/gcc/i686-w64-mingw32/4.8/../../../../i686-w64-mingw32/lib/../lib/libcomctl32.a(dwtjbs00094.o)
                              build/release/stub_zlib_solid/Main.o (_imp__InitCommonControls@0)
/usr/lib/gcc/i686-w64-mingw32/4.8/../../../../i686-w64-mingw32/lib/../lib/libcomctl32.a(dwtjbs00062.o)
                              build/release/stub_zlib_solid/Ui.o (_imp__ImageList_Create@20)
/usr/lib/gcc/i686-w64-mingw32/4.8/../../../../i686-w64-mingw32/lib/../lib/libcomctl32.a(dwtjbs00059.o)
                              build/release/stub_zlib_solid/Ui.o (_imp__ImageList_AddMasked@12)
/usr/lib/gcc/i686-w64-mingw32/4.8/../../../../i686-w64-mingw32/lib/../lib/libcomctl32.a(dwtjbs00063.o)
                              build/release/stub_zlib_solid/Ui.o (_imp__ImageList_Destroy@4)
/usr/lib/gcc/i686-w64-mingw32/4.8/../../../../i686-w64-mingw32/lib/../lib/libcomctl32.a(dwtjbh.o)
                              /usr/lib/gcc/i686-w64-mingw32/4.8/../../../../i686-w64-mingw32/lib/../lib/libcomctl32.a(dwtjbs00094.o) (_head_lib32_libcomctl32_a)
/usr/lib/gcc/i686-w64-mingw32/4.8/../../../../i686-w64-mingw32/lib/../lib/libcomctl32.a(dwtjbt.o)
                              /usr/lib/gcc/i686-w64-mingw32/4.8/../../../../i686-w64-mingw32/lib/../lib/libcomctl32.a(dwtjbh.o) (_lib32_libcomctl32_a_iname)
/usr/lib/gcc/i686-w64-mingw32/4.8/../../../../i686-w64-mingw32/lib/../lib/libole32.a(dxmkbs00016.o)
                              build/release/stub_zlib_solid/exec.o (_imp__CoCreateInstance@20)
/usr/lib/gcc/i686-w64-mingw32/4.8/../../../../i686-w64-mingw32/lib/../lib/libole32.a(dxmkbs00248.o)
                              build/release/stub_zlib_solid/Main.o (_imp__OleInitialize@4)
/usr/lib/gcc/i686-w64-mingw32/4.8/../../../../i686-w64-mingw32/lib/../lib/libole32.a(dxmkbs00271.o)
                              build/release/stub_zlib_solid/Main.o (_imp__OleUninitialize@0)
/usr/lib/gcc/i686-w64-mingw32/4.8/../../../../i686-w64-mingw32/lib/../lib/libole32.a(dxmkbs00106.o)
                              build/release/stub_zlib_solid/Ui.o (_imp__CoTaskMemFree@4)
/usr/lib/gcc/i686-w64-mingw32/4.8/../../../../i686-w64-mingw32/lib/../lib/libole32.a(dxmkbh.o)
                              /usr/lib/gcc/i686-w64-mingw32/4.8/../../../../i686-w64-mingw32/lib/../lib/libole32.a(dxmkbs00016.o) (_head_lib32_libole32_a)
/usr/lib/gcc/i686-w64-mingw32/4.8/../../../../i686-w64-mingw32/lib/../lib/libole32.a(dxmkbt.o)
                              /usr/lib/gcc/i686-w64-mingw32/4.8/../../../../i686-w64-mingw32/lib/../lib/libole32.a(dxmkbh.o) (_lib32_libole32_a_iname)
/usr/lib/gcc/i686-w64-mingw32/4.8/../../../../i686-w64-mingw32/lib/../lib/libversion.a(dqukbs00001.o)
                              build/release/stub_zlib_solid/exec.o (GetFileVersionInfoSizeA@8)
/usr/lib/gcc/i686-w64-mingw32/4.8/../../../../i686-w64-mingw32/lib/../lib/libversion.a(dqukbs00000.o)
                              build/release/stub_zlib_solid/exec.o (GetFileVersionInfoA@16)
/usr/lib/gcc/i686-w64-mingw32/4.8/../../../../i686-w64-mingw32/lib/../lib/libversion.a(dqukbs00010.o)
                              build/release/stub_zlib_solid/exec.o (VerQueryValueA@16)
/usr/lib/gcc/i686-w64-mingw32/4.8/../../../../i686-w64-mingw32/lib/../lib/libversion.a(dqukbh.o)
                              /usr/lib/gcc/i686-w64-mingw32/4.8/../../../../i686-w64-mingw32/lib/../lib/libversion.a(dqukbs00001.o) (_head_lib32_libversion_a)
/usr/lib/gcc/i686-w64-mingw32/4.8/../../../../i686-w64-mingw32/lib/../lib/libversion.a(dqukbt.o)
                              /usr/lib/gcc/i686-w64-mingw32/4.8/../../../../i686-w64-mingw32/lib/../lib/libversion.a(dqukbh.o) (_lib32_libversion_a_iname)
/usr/lib/gcc/i686-w64-mingw32/4.8/../../../../i686-w64-mingw32/lib/../lib/libuuid.a(lib32_libuuid_a-uuid.o)
                              build/release/stub_zlib_solid/exec.o (IID_IShellLinkA)

Allocating common symbols
Common symbol       size              file

g_quit_flag         0x4               build/release/stub_zlib_solid/Ui.o
insthwndbutton      0x4               build/release/stub_zlib_solid/Ui.o
g_header            0x4               build/release/stub_zlib_solid/fileform.o
insthwnd            0x4               build/release/stub_zlib_solid/Ui.o
log_text            0x800             build/release/stub_zlib_solid/util.o
g_exec_flags_last_used
                    0x38              build/release/stub_zlib_solid/exec.o
g_SHGetFolderPath   0x4               build/release/stub_zlib_solid/Main.o
progress_bar_pos    0x4               build/release/stub_zlib_solid/Ui.o
g_exec_flags        0x38              build/release/stub_zlib_solid/exec.o
g_log_file          0x400             build/release/stub_zlib_solid/util.o
g_blocks            0x40              build/release/stub_zlib_solid/fileform.o
verify_time         0x4               build/release/stub_zlib_solid/fileform.o
g_hwnd              0x4               build/release/stub_zlib_solid/Main.o
ps_tmpbuf           0x800             build/release/stub_zlib_solid/util.o
g_hInstance         0x4               build/release/stub_zlib_solid/Main.o
log_dolog           0x4               build/release/stub_zlib_solid/util.o
g_flags             0x4               build/release/stub_zlib_solid/fileform.o
g_hIcon             0x4               build/release/stub_zlib_solid/Ui.o
g_is_uninstaller    0x4               build/release/stub_zlib_solid/fileform.o
progress_bar_len    0x4               build/release/stub_zlib_solid/Ui.o
g_filehdrsize       0x4               build/release/stub_zlib_solid/fileform.o
m_curwnd            0x4               build/release/stub_zlib_solid/Ui.o
dlg_offset          0x4               build/release/stub_zlib_solid/Ui.o
insthwnd2           0x4               build/release/stub_zlib_solid/Ui.o
g_caption           0x800             build/release/stub_zlib_solid/Main.o
cur_langtable       0x4               build/release/stub_zlib_solid/Ui.o
g_hres              0x4               build/release/stub_zlib_solid/exec.o
g_SectionHack       0x4               build/release/stub_zlib_solid/exec.o

Discarded input sections

 .debug_info    0x0000000000000000      0xcb5 build/release/stub_zlib_solid/bgbg.o
 .debug_abbrev  0x0000000000000000      0x196 build/release/stub_zlib_solid/bgbg.o
 .debug_loc     0x0000000000000000      0x35e build/release/stub_zlib_solid/bgbg.o
 .debug_aranges
                0x0000000000000000       0x20 build/release/stub_zlib_solid/bgbg.o
 .debug_line    0x0000000000000000      0x10d build/release/stub_zlib_solid/bgbg.o
 .debug_str     0x0000000000000000        0x7 build/release/stub_zlib_solid/bgbg.o
 .debug_frame   0x0000000000000000       0x40 build/release/stub_zlib_solid/bgbg.o
 .debug_info    0x0000000000000000      0x82f build/release/stub_zlib_solid/components.o
 .debug_abbrev  0x0000000000000000      0x16e build/release/stub_zlib_solid/components.o
 .debug_loc     0x0000000000000000      0x222 build/release/stub_zlib_solid/components.o
 .debug_aranges
                0x0000000000000000       0x20 build/release/stub_zlib_solid/components.o
 .debug_line    0x0000000000000000      0x10a build/release/stub_zlib_solid/components.o
 .debug_str     0x0000000000000000       0x1d build/release/stub_zlib_solid/components.o
 .debug_frame   0x0000000000000000       0xb8 build/release/stub_zlib_solid/components.o
 .drectve       0x0000000000000000       0x7c build/release/stub_zlib_solid/exec.o
 .debug_info    0x0000000000000000     0x5ed4 build/release/stub_zlib_solid/exec.o
 .debug_abbrev  0x0000000000000000      0x4ce build/release/stub_zlib_solid/exec.o
 .debug_loc     0x0000000000000000     0x258a build/release/stub_zlib_solid/exec.o
 .debug_aranges
                0x0000000000000000       0x20 build/release/stub_zlib_solid/exec.o
 .debug_ranges  0x0000000000000000      0x2c8 build/release/stub_zlib_solid/exec.o
 .debug_line    0x0000000000000000      0x877 build/release/stub_zlib_solid/exec.o
 .debug_str     0x0000000000000000       0xd6 build/release/stub_zlib_solid/exec.o
 .debug_frame   0x0000000000000000      0x168 build/release/stub_zlib_solid/exec.o
 .drectve       0x0000000000000000       0xa8 build/release/stub_zlib_solid/fileform.o
 .debug_info    0x0000000000000000     0x1d58 build/release/stub_zlib_solid/fileform.o
 .debug_abbrev  0x0000000000000000      0x386 build/release/stub_zlib_solid/fileform.o
 .debug_loc     0x0000000000000000      0x370 build/release/stub_zlib_solid/fileform.o
 .debug_aranges
                0x0000000000000000       0x20 build/release/stub_zlib_solid/fileform.o
 .debug_ranges  0x0000000000000000       0x88 build/release/stub_zlib_solid/fileform.o
 .debug_line    0x0000000000000000      0x2c8 build/release/stub_zlib_solid/fileform.o
 .debug_str     0x0000000000000000        0x0 build/release/stub_zlib_solid/fileform.o
 .debug_frame   0x0000000000000000      0x148 build/release/stub_zlib_solid/fileform.o
 .drectve       0x0000000000000000       0x70 build/release/stub_zlib_solid/Main.o
 .debug_info    0x0000000000000000     0x19e6 build/release/stub_zlib_solid/Main.o
 .debug_abbrev  0x0000000000000000      0x311 build/release/stub_zlib_solid/Main.o
 .debug_loc     0x0000000000000000      0x2d4 build/release/stub_zlib_solid/Main.o
 .debug_aranges
                0x0000000000000000       0x20 build/release/stub_zlib_solid/Main.o
 .debug_ranges  0x0000000000000000       0x88 build/release/stub_zlib_solid/Main.o
 .debug_line    0x0000000000000000      0x267 build/release/stub_zlib_solid/Main.o
 .debug_str     0x0000000000000000        0x7 build/release/stub_zlib_solid/Main.o
 .debug_frame   0x0000000000000000       0x74 build/release/stub_zlib_solid/Main.o
 .debug_info    0x0000000000000000      0x7d3 build/release/stub_zlib_solid/plugin.o
 .debug_abbrev  0x0000000000000000      0x184 build/release/stub_zlib_solid/plugin.o
 .debug_loc     0x0000000000000000       0xab build/release/stub_zlib_solid/plugin.o
 .debug_aranges
                0x0000000000000000       0x20 build/release/stub_zlib_solid/plugin.o
 .debug_line    0x0000000000000000      0x102 build/release/stub_zlib_solid/plugin.o
 .debug_str     0x0000000000000000        0xd build/release/stub_zlib_solid/plugin.o
 .debug_frame   0x0000000000000000       0xa4 build/release/stub_zlib_solid/plugin.o
 .drectve       0x0000000000000000      0x11c build/release/stub_zlib_solid/Ui.o
 .debug_info    0x0000000000000000     0x55fe build/release/stub_zlib_solid/Ui.o
 .debug_abbrev  0x0000000000000000      0x5c7 build/release/stub_zlib_solid/Ui.o
 .debug_loc     0x0000000000000000     0x10ad build/release/stub_zlib_solid/Ui.o
 .debug_aranges
                0x0000000000000000       0x20 build/release/stub_zlib_solid/Ui.o
 .debug_ranges  0x0000000000000000       0xa0 build/release/stub_zlib_solid/Ui.o
 .debug_line    0x0000000000000000      0x8a8 build/release/stub_zlib_solid/Ui.o
 .debug_str     0x0000000000000000       0xbe build/release/stub_zlib_solid/Ui.o
 .debug_frame   0x0000000000000000      0x3d4 build/release/stub_zlib_solid/Ui.o
 .drectve       0x0000000000000000       0x68 build/release/stub_zlib_solid/util.o
 .debug_info    0x0000000000000000     0x31de build/release/stub_zlib_solid/util.o
 .debug_abbrev  0x0000000000000000      0x449 build/release/stub_zlib_solid/util.o
 .debug_loc     0x0000000000000000      0xd3b build/release/stub_zlib_solid/util.o
 .debug_aranges
                0x0000000000000000       0x20 build/release/stub_zlib_solid/util.o
 .debug_ranges  0x0000000000000000      0x158 build/release/stub_zlib_solid/util.o
 .debug_line    0x0000000000000000      0x5e2 build/release/stub_zlib_solid/util.o
 .debug_str     0x0000000000000000       0x10 build/release/stub_zlib_solid/util.o
 .debug_frame   0x0000000000000000      0x4cc build/release/stub_zlib_solid/util.o
 .debug_info    0x0000000000000000      0x230 build/release/stub_zlib_solid/crc32.o
 .debug_abbrev  0x0000000000000000       0xa0 build/release/stub_zlib_solid/crc32.o
 .debug_loc     0x0000000000000000      0x11a build/release/stub_zlib_solid/crc32.o
 .debug_aranges
                0x0000000000000000       0x20 build/release/stub_zlib_solid/crc32.o
 .debug_line    0x0000000000000000       0x92 build/release/stub_zlib_solid/crc32.o
 .debug_str     0x0000000000000000        0x0 build/release/stub_zlib_solid/crc32.o
 .debug_frame   0x0000000000000000       0x3c build/release/stub_zlib_solid/crc32.o
 .debug_info    0x0000000000000000     0x1157 build/release/stub_zlib_solid/INFBLOCK.o
 .debug_abbrev  0x0000000000000000      0x265 build/release/stub_zlib_solid/INFBLOCK.o
 .debug_loc     0x0000000000000000     0x2901 build/release/stub_zlib_solid/INFBLOCK.o
 .debug_aranges
                0x0000000000000000       0x20 build/release/stub_zlib_solid/INFBLOCK.o
 .debug_ranges  0x0000000000000000       0x78 build/release/stub_zlib_solid/INFBLOCK.o
 .debug_line    0x0000000000000000      0x50a build/release/stub_zlib_solid/INFBLOCK.o
 .debug_str     0x0000000000000000        0x0 build/release/stub_zlib_solid/INFBLOCK.o
 .debug_frame   0x0000000000000000       0x98 build/release/stub_zlib_solid/INFBLOCK.o
 .text          0x0000000000000000        0x8 /usr/lib/gcc/i686-w64-mingw32/4.8/../../../../i686-w64-mingw32/lib/../lib/libkernel32.a(dnqfbs01140.o)
 .text          0x0000000000000000        0x8 /usr/lib/gcc/i686-w64-mingw32/4.8/../../../../i686-w64-mingw32/lib/../lib/libkernel32.a(dnqfbs01057.o)
 .text          0x0000000000000000        0x8 /usr/lib/gcc/i686-w64-mingw32/4.8/../../../../i686-w64-mingw32/lib/../lib/libkernel32.a(dnqfbs00126.o)
 .text          0x0000000000000000        0x8 /usr/lib/gcc/i686-w64-mingw32/4.8/../../../../i686-w64-mingw32/lib/../lib/libkernel32.a(dnqfbs00515.o)
 .text          0x0000000000000000        0x8 /usr/lib/gcc/i686-w64-mingw32/4.8/../../../../i686-w64-mingw32/lib/../lib/libkernel32.a(dnqfbs00486.o)
 .text          0x0000000000000000        0x8 /usr/lib/gcc/i686-w64-mingw32/4.8/../../../../i686-w64-mingw32/lib/../lib/libkernel32.a(dnqfbs01040.o)
 .text          0x0000000000000000        0x8 /usr/lib/gcc/i686-w64-mingw32/4.8/../../../../i686-w64-mingw32/lib/../lib/libkernel32.a(dnqfbs00844.o)
 .text          0x0000000000000000        0x8 /usr/lib/gcc/i686-w64-mingw32/4.8/../../../../i686-w64-mingw32/lib/../lib/libkernel32.a(dnqfbs00505.o)
 .text          0x0000000000000000        0x8 /usr/lib/gcc/i686-w64-mingw32/4.8/../../../../i686-w64-mingw32/lib/../lib/libkernel32.a(dnqfbs00610.o)
 .text          0x0000000000000000        0x8 /usr/lib/gcc/i686-w64-mingw32/4.8/../../../../i686-w64-mingw32/lib/../lib/libkernel32.a(dnqfbs00991.o)
 .text          0x0000000000000000        0x8 /usr/lib/gcc/i686-w64-mingw32/4.8/../../../../i686-w64-mingw32/lib/../lib/libkernel32.a(dnqfbs00097.o)
 .text          0x0000000000000000        0x8 /usr/lib/gcc/i686-w64-mingw32/4.8/../../../../i686-w64-mingw32/lib/../lib/libkernel32.a(dnqfbs01069.o)
 .text          0x0000000000000000        0x8 /usr/lib/gcc/i686-w64-mingw32/4.8/../../../../i686-w64-mingw32/lib/../lib/libkernel32.a(dnqfbs00083.o)
 .text          0x0000000000000000        0x8 /usr/lib/gcc/i686-w64-mingw32/4.8/../../../../i686-w64-mingw32/lib/../lib/libkernel32.a(dnqfbs01295.o)
 .text          0x0000000000000000        0x8 /usr/lib/gcc/i686-w64-mingw32/4.8/../../../../i686-w64-mingw32/lib/../lib/libkernel32.a(dnqfbs01292.o)
 .text          0x0000000000000000        0x8 /usr/lib/gcc/i686-w64-mingw32/4.8/../../../../i686-w64-mingw32/lib/../lib/libkernel32.a(dnqfbs00285.o)
 .text          0x0000000000000000        0x8 /usr/lib/gcc/i686-w64-mingw32/4.8/../../../../i686-w64-mingw32/lib/../lib/libkernel32.a(dnqfbs00702.o)
 .text          0x0000000000000000        0x8 /usr/lib/gcc/i686-w64-mingw32/4.8/../../../../i686-w64-mingw32/lib/../lib/libkernel32.a(dnqfbs00695.o)
 .text          0x0000000000000000        0x8 /usr/lib/gcc/i686-w64-mingw32/4.8/../../../../i686-w64-mingw32/lib/../lib/libkernel32.a(dnqfbs00852.o)
 .text          0x0000000000000000        0x8 /usr/lib/gcc/i686-w64-mingw32/4.8/../../../../i686-w64-mingw32/lib/../lib/libkernel32.a(dnqfbs01218.o)
 .text          0x0000000000000000        0x8 /usr/lib/gcc/i686-w64-mingw32/4.8/../../../../i686-w64-mingw32/lib/../lib/libkernel32.a(dnqfbs00482.o)
 .text          0x0000000000000000        0x8 /usr/lib/gcc/i686-w64-mingw32/4.8/../../../../i686-w64-mingw32/lib/../lib/libkernel32.a(dnqfbs00810.o)
 .text          0x0000000000000000        0x8 /usr/lib/gcc/i686-w64-mingw32/4.8/../../../../i686-w64-mingw32/lib/../lib/libkernel32.a(dnqfbs00533.o)
 .text          0x0000000000000000        0x8 /usr/lib/gcc/i686-w64-mingw32/4.8/../../../../i686-w64-mingw32/lib/../lib/libkernel32.a(dnqfbs00581.o)
 .text          0x0000000000000000        0x8 /usr/lib/gcc/i686-w64-mingw32/4.8/../../../../i686-w64-mingw32/lib/../lib/libkernel32.a(dnqfbs00356.o)
 .text          0x0000000000000000        0x8 /usr/lib/gcc/i686-w64-mingw32/4.8/../../../../i686-w64-mingw32/lib/../lib/libkernel32.a(dnqfbs00853.o)
 .text          0x0000000000000000        0x8 /usr/lib/gcc/i686-w64-mingw32/4.8/../../../../i686-w64-mingw32/lib/../lib/libkernel32.a(dnqfbs01268.o)
 .text          0x0000000000000000        0x8 /usr/lib/gcc/i686-w64-mingw32/4.8/../../../../i686-w64-mingw32/lib/../lib/libkernel32.a(dnqfbs00577.o)
 .text          0x0000000000000000        0x8 /usr/lib/gcc/i686-w64-mingw32/4.8/../../../../i686-w64-mingw32/lib/../lib/libkernel32.a(dnqfbs01262.o)
 .text          0x0000000000000000        0x8 /usr/lib/gcc/i686-w64-mingw32/4.8/../../../../i686-w64-mingw32/lib/../lib/libkernel32.a(dnqfbs00941.o)
 .text          0x0000000000000000        0x8 /usr/lib/gcc/i686-w64-mingw32/4.8/../../../../i686-w64-mingw32/lib/../lib/libkernel32.a(dnqfbs01065.o)
 .text          0x0000000000000000        0x8 /usr/lib/gcc/i686-w64-mingw32/4.8/../../../../i686-w64-mingw32/lib/../lib/libkernel32.a(dnqfbs00304.o)
 .text          0x0000000000000000        0x8 /usr/lib/gcc/i686-w64-mingw32/4.8/../../../../i686-w64-mingw32/lib/../lib/libkernel32.a(dnqfbs00325.o)
 .text          0x0000000000000000        0x8 /usr/lib/gcc/i686-w64-mingw32/4.8/../../../../i686-w64-mingw32/lib/../lib/libkernel32.a(dnqfbs00308.o)
 .text          0x0000000000000000        0x8 /usr/lib/gcc/i686-w64-mingw32/4.8/../../../../i686-w64-mingw32/lib/../lib/libkernel32.a(dnqfbs00214.o)
 .text          0x0000000000000000        0x8 /usr/lib/gcc/i686-w64-mingw32/4.8/../../../../i686-w64-mingw32/lib/../lib/libkernel32.a(dnqfbs00663.o)
 .text          0x0000000000000000        0x8 /usr/lib/gcc/i686-w64-mingw32/4.8/../../../../i686-w64-mingw32/lib/../lib/libkernel32.a(dnqfbs00531.o)
 .text          0x0000000000000000        0x8 /usr/lib/gcc/i686-w64-mingw32/4.8/../../../../i686-w64-mingw32/lib/../lib/libkernel32.a(dnqfbs00497.o)
 .text          0x0000000000000000        0x8 /usr/lib/gcc/i686-w64-mingw32/4.8/../../../../i686-w64-mingw32/lib/../lib/libkernel32.a(dnqfbs00139.o)
 .text          0x0000000000000000        0x8 /usr/lib/gcc/i686-w64-mingw32/4.8/../../../../i686-w64-mingw32/lib/../lib/libkernel32.a(dnqfbs01052.o)
 .text          0x0000000000000000        0x8 /usr/lib/gcc/i686-w64-mingw32/4.8/../../../../i686-w64-mingw32/lib/../lib/libkernel32.a(dnqfbs00394.o)
 .text          0x0000000000000000        0x8 /usr/lib/gcc/i686-w64-mingw32/4.8/../../../../i686-w64-mingw32/lib/../lib/libkernel32.a(dnqfbs00647.o)
 .text          0x0000000000000000        0x8 /usr/lib/gcc/i686-w64-mingw32/4.8/../../../../i686-w64-mingw32/lib/../lib/libkernel32.a(dnqfbs00689.o)
 .text          0x0000000000000000        0x8 /usr/lib/gcc/i686-w64-mingw32/4.8/../../../../i686-w64-mingw32/lib/../lib/libkernel32.a(dnqfbs00452.o)
 .text          0x0000000000000000        0x8 /usr/lib/gcc/i686-w64-mingw32/4.8/../../../../i686-w64-mingw32/lib/../lib/libkernel32.a(dnqfbs00282.o)
 .text          0x0000000000000000        0x8 /usr/lib/gcc/i686-w64-mingw32/4.8/../../../../i686-w64-mingw32/lib/../lib/libkernel32.a(dnqfbs00114.o)
 .text          0x0000000000000000        0x8 /usr/lib/gcc/i686-w64-mingw32/4.8/../../../../i686-w64-mingw32/lib/../lib/libkernel32.a(dnqfbs01301.o)
 .text          0x0000000000000000        0x8 /usr/lib/gcc/i686-w64-mingw32/4.8/../../../../i686-w64-mingw32/lib/../lib/libkernel32.a(dnqfbs00464.o)
 .text          0x0000000000000000        0x8 /usr/lib/gcc/i686-w64-mingw32/4.8/../../../../i686-w64-mingw32/lib/../lib/libkernel32.a(dnqfbs00809.o)
 .text          0x0000000000000000        0x8 /usr/lib/gcc/i686-w64-mingw32/4.8/../../../../i686-w64-mingw32/lib/../lib/libkernel32.a(dnqfbs00183.o)
 .text          0x0000000000000000        0x8 /usr/lib/gcc/i686-w64-mingw32/4.8/../../../../i686-w64-mingw32/lib/../lib/libkernel32.a(dnqfbs00706.o)
 .text          0x0000000000000000        0x8 /usr/lib/gcc/i686-w64-mingw32/4.8/../../../../i686-w64-mingw32/lib/../lib/libkernel32.a(dnqfbs00714.o)
 .text          0x0000000000000000        0x8 /usr/lib/gcc/i686-w64-mingw32/4.8/../../../../i686-w64-mingw32/lib/../lib/libkernel32.a(dnqfbs00167.o)
 .text          0x0000000000000000        0x8 /usr/lib/gcc/i686-w64-mingw32/4.8/../../../../i686-w64-mingw32/lib/../lib/libkernel32.a(dnqfbs01304.o)
 .text          0x0000000000000000        0x8 /usr/lib/gcc/i686-w64-mingw32/4.8/../../../../i686-w64-mingw32/lib/../lib/libkernel32.a(dnqfbs00645.o)
 .text          0x0000000000000000        0x8 /usr/lib/gcc/i686-w64-mingw32/4.8/../../../../i686-w64-mingw32/lib/../lib/libkernel32.a(dnqfbs01289.o)
 .text          0x0000000000000000        0x8 /usr/lib/gcc/i686-w64-mingw32/4.8/../../../../i686-w64-mingw32/lib/../lib/libkernel32.a(dnqfbs00677.o)
 .text          0x0000000000000000        0x8 /usr/lib/gcc/i686-w64-mingw32/4.8/../../../../i686-w64-mingw32/lib/../lib/libkernel32.a(dnqfbs00625.o)
 .text          0x0000000000000000        0x8 /usr/lib/gcc/i686-w64-mingw32/4.8/../../../../i686-w64-mingw32/lib/../lib/libkernel32.a(dnqfbs00964.o)
 .text          0x0000000000000000        0x8 /usr/lib/gcc/i686-w64-mingw32/4.8/../../../../i686-w64-mingw32/lib/../lib/libuser32.a(dbukbs00011.o)
 .text          0x0000000000000000        0x8 /usr/lib/gcc/i686-w64-mingw32/4.8/../../../../i686-w64-mingw32/lib/../lib/libuser32.a(dbukbs00237.o)
 .text          0x0000000000000000        0x8 /usr/lib/gcc/i686-w64-mingw32/4.8/../../../../i686-w64-mingw32/lib/../lib/libuser32.a(dbukbs00210.o)
 .text          0x0000000000000000        0x8 /usr/lib/gcc/i686-w64-mingw32/4.8/../../../../i686-w64-mingw32/lib/../lib/libuser32.a(dbukbs00173.o)
 .text          0x0000000000000000        0x8 /usr/lib/gcc/i686-w64-mingw32/4.8/../../../../i686-w64-mingw32/lib/../lib/libuser32.a(dbukbs00185.o)
 .text          0x0000000000000000        0x8 /usr/lib/gcc/i686-w64-mingw32/4.8/../../../../i686-w64-mingw32/lib/../lib/libuser32.a(dbukbs00135.o)
 .text          0x0000000000000000        0x8 /usr/lib/gcc/i686-w64-mingw32/4.8/../../../../i686-w64-mingw32/lib/../lib/libuser32.a(dbukbs00472.o)
 .text          0x0000000000000000        0x8 /usr/lib/gcc/i686-w64-mingw32/4.8/../../../../i686-w64-mingw32/lib/../lib/libuser32.a(dbukbs00538.o)
 .text          0x0000000000000000        0x8 /usr/lib/gcc/i686-w64-mingw32/4.8/../../../../i686-w64-mingw32/lib/../lib/libuser32.a(dbukbs00590.o)
 .text          0x0000000000000000        0x8 /usr/lib/gcc/i686-w64-mingw32/4.8/../../../../i686-w64-mingw32/lib/../lib/libuser32.a(dbukbs00644.o)
 .text          0x0000000000000000        0x8 /usr/lib/gcc/i686-w64-mingw32/4.8/../../../../i686-w64-mingw32/lib/../lib/libuser32.a(dbukbs00515.o)
 .text          0x0000000000000000        0x8 /usr/lib/gcc/i686-w64-mingw32/4.8/../../../../i686-w64-mingw32/lib/../lib/libuser32.a(dbukbs00512.o)
 .text          0x0000000000000000        0x8 /usr/lib/gcc/i686-w64-mingw32/4.8/../../../../i686-w64-mingw32/lib/../lib/libuser32.a(dbukbs00212.o)
 .text          0x0000000000000000        0x8 /usr/lib/gcc/i686-w64-mingw32/4.8/../../../../i686-w64-mingw32/lib/../lib/libuser32.a(dbukbs00398.o)
 .text          0x0000000000000000        0x8 /usr/lib/gcc/i686-w64-mingw32/4.8/../../../../i686-w64-mingw32/lib/../lib/libuser32.a(dbukbs00254.o)
 .text          0x0000000000000000        0x8 /usr/lib/gcc/i686-w64-mingw32/4.8/../../../../i686-w64-mingw32/lib/../lib/libuser32.a(dbukbs00574.o)
 .text          0x0000000000000000        0x8 /usr/lib/gcc/i686-w64-mingw32/4.8/../../../../i686-w64-mingw32/lib/../lib/libuser32.a(dbukbs00415.o)
 .text          0x0000000000000000        0x8 /usr/lib/gcc/i686-w64-mingw32/4.8/../../../../i686-w64-mingw32/lib/../lib/libuser32.a(dbukbs00249.o)
 .text          0x0000000000000000        0x8 /usr/lib/gcc/i686-w64-mingw32/4.8/../../../../i686-w64-mingw32/lib/../lib/libuser32.a(dbukbs00181.o)
 .text          0x0000000000000000        0x8 /usr/lib/gcc/i686-w64-mingw32/4.8/../../../../i686-w64-mingw32/lib/../lib/libuser32.a(dbukbs00374.o)
 .text          0x0000000000000000        0x8 /usr/lib/gcc/i686-w64-mingw32/4.8/../../../../i686-w64-mingw32/lib/../lib/libuser32.a(dbukbs00568.o)
 .text          0x0000000000000000        0x8 /usr/lib/gcc/i686-w64-mingw32/4.8/../../../../i686-w64-mingw32/lib/../lib/libuser32.a(dbukbs00579.o)
 .text          0x0000000000000000        0x8 /usr/lib/gcc/i686-w64-mingw32/4.8/../../../../i686-w64-mingw32/lib/../lib/libuser32.a(dbukbs00145.o)
 .text          0x0000000000000000        0x8 /usr/lib/gcc/i686-w64-mingw32/4.8/../../../../i686-w64-mingw32/lib/../lib/libuser32.a(dbukbs00081.o)
 .text          0x0000000000000000        0x8 /usr/lib/gcc/i686-w64-mingw32/4.8/../../../../i686-w64-mingw32/lib/../lib/libuser32.a(dbukbs00039.o)
 .text          0x0000000000000000        0x8 /usr/lib/gcc/i686-w64-mingw32/4.8/../../../../i686-w64-mingw32/lib/../lib/libuser32.a(dbukbs00209.o)
 .text          0x0000000000000000        0x8 /usr/lib/gcc/i686-w64-mingw32/4.8/../../../../i686-w64-mingw32/lib/../lib/libuser32.a(dbukbs00346.o)
 .text          0x0000000000000000        0x8 /usr/lib/gcc/i686-w64-mingw32/4.8/../../../../i686-w64-mingw32/lib/../lib/libuser32.a(dbukbs00327.o)
 .text          0x0000000000000000        0x8 /usr/lib/gcc/i686-w64-mingw32/4.8/../../../../i686-w64-mingw32/lib/../lib/libuser32.a(dbukbs00524.o)
 .text          0x0000000000000000        0x8 /usr/lib/gcc/i686-w64-mingw32/4.8/../../../../i686-w64-mingw32/lib/../lib/libuser32.a(dbukbs00329.o)
 .text          0x0000000000000000        0x8 /usr/lib/gcc/i686-w64-mingw32/4.8/../../../../i686-w64-mingw32/lib/../lib/libuser32.a(dbukbs00179.o)
 .text          0x0000000000000000        0x8 /usr/lib/gcc/i686-w64-mingw32/4.8/../../../../i686-w64-mingw32/lib/../lib/libuser32.a(dbukbs00183.o)
 .text          0x0000000000000000        0x8 /usr/lib/gcc/i686-w64-mingw32/4.8/../../../../i686-w64-mingw32/lib/../lib/libuser32.a(dbukbs00352.o)
 .text          0x0000000000000000        0x8 /usr/lib/gcc/i686-w64-mingw32/4.8/../../../../i686-w64-mingw32/lib/../lib/libuser32.a(dbukbs00504.o)
 .text          0x0000000000000000        0x8 /usr/lib/gcc/i686-w64-mingw32/4.8/../../../../i686-w64-mingw32/lib/../lib/libuser32.a(dbukbs00577.o)
 .text          0x0000000000000000        0x8 /usr/lib/gcc/i686-w64-mingw32/4.8/../../../../i686-w64-mingw32/lib/../lib/libuser32.a(dbukbs00399.o)
 .text          0x0000000000000000        0x8 /usr/lib/gcc/i686-w64-mingw32/4.8/../../../../i686-w64-mingw32/lib/../lib/libuser32.a(dbukbs00053.o)
 .text          0x0000000000000000        0x8 /usr/lib/gcc/i686-w64-mingw32/4.8/../../../../i686-w64-mingw32/lib/../lib/libuser32.a(dbukbs00409.o)
 .text          0x0000000000000000        0x8 /usr/lib/gcc/i686-w64-mingw32/4.8/../../../../i686-w64-mingw32/lib/../lib/libuser32.a(dbukbs00529.o)
 .text          0x0000000000000000        0x8 /usr/lib/gcc/i686-w64-mingw32/4.8/../../../../i686-w64-mingw32/lib/../lib/libuser32.a(dbukbs00390.o)
 .text          0x0000000000000000        0x8 /usr/lib/gcc/i686-w64-mingw32/4.8/../../../../i686-w64-mingw32/lib/../lib/libuser32.a(dbukbs00224.o)
 .text          0x0000000000000000        0x8 /usr/lib/gcc/i686-w64-mingw32/4.8/../../../../i686-w64-mingw32/lib/../lib/libuser32.a(dbukbs00483.o)
 .text          0x0000000000000000        0x8 /usr/lib/gcc/i686-w64-mingw32/4.8/../../../../i686-w64-mingw32/lib/../lib/libuser32.a(dbukbs00596.o)
 .text          0x0000000000000000        0x8 /usr/lib/gcc/i686-w64-mingw32/4.8/../../../../i686-w64-mingw32/lib/../lib/libuser32.a(dbukbs00091.o)
 .text          0x0000000000000000        0x8 /usr/lib/gcc/i686-w64-mingw32/4.8/../../../../i686-w64-mingw32/lib/../lib/libuser32.a(dbukbs00228.o)
 .text          0x0000000000000000        0x8 /usr/lib/gcc/i686-w64-mingw32/4.8/../../../../i686-w64-mingw32/lib/../lib/libuser32.a(dbukbs00148.o)
 .text          0x0000000000000000        0x8 /usr/lib/gcc/i686-w64-mingw32/4.8/../../../../i686-w64-mingw32/lib/../lib/libuser32.a(dbukbs00299.o)
 .text          0x0000000000000000        0x8 /usr/lib/gcc/i686-w64-mingw32/4.8/../../../../i686-w64-mingw32/lib/../lib/libuser32.a(dbukbs00407.o)
 .text          0x0000000000000000        0x8 /usr/lib/gcc/i686-w64-mingw32/4.8/../../../../i686-w64-mingw32/lib/../lib/libuser32.a(dbukbs00401.o)
 .text          0x0000000000000000        0x8 /usr/lib/gcc/i686-w64-mingw32/4.8/../../../../i686-w64-mingw32/lib/../lib/libuser32.a(dbukbs00024.o)
 .text          0x0000000000000000        0x8 /usr/lib/gcc/i686-w64-mingw32/4.8/../../../../i686-w64-mingw32/lib/../lib/libuser32.a(dbukbs00330.o)
 .text          0x0000000000000000        0x8 /usr/lib/gcc/i686-w64-mingw32/4.8/../../../../i686-w64-mingw32/lib/../lib/libuser32.a(dbukbs00090.o)
 .text          0x0000000000000000        0x8 /usr/lib/gcc/i686-w64-mingw32/4.8/../../../../i686-w64-mingw32/lib/../lib/libuser32.a(dbukbs00006.o)
 .text          0x0000000000000000        0x8 /usr/lib/gcc/i686-w64-mingw32/4.8/../../../../i686-w64-mingw32/lib/../lib/libuser32.a(dbukbs00607.o)
 .text          0x0000000000000000        0x8 /usr/lib/gcc/i686-w64-mingw32/4.8/../../../../i686-w64-mingw32/lib/../lib/libuser32.a(dbukbs00459.o)
 .text          0x0000000000000000        0x8 /usr/lib/gcc/i686-w64-mingw32/4.8/../../../../i686-w64-mingw32/lib/../lib/libuser32.a(dbukbs00178.o)
 .text          0x0000000000000000        0x8 /usr/lib/gcc/i686-w64-mingw32/4.8/../../../../i686-w64-mingw32/lib/../lib/libuser32.a(dbukbs00527.o)
 .text          0x0000000000000000        0x8 /usr/lib/gcc/i686-w64-mingw32/4.8/../../../../i686-w64-mingw32/lib/../lib/libuser32.a(dbukbs00061.o)
 .text          0x0000000000000000        0x8 /usr/lib/gcc/i686-w64-mingw32/4.8/../../../../i686-w64-mingw32/lib/../lib/libuser32.a(dbukbs00534.o)
 .text          0x0000000000000000        0x8 /usr/lib/gcc/i686-w64-mingw32/4.8/../../../../i686-w64-mingw32/lib/../lib/libuser32.a(dbukbs00256.o)
 .text          0x0000000000000000        0x8 /usr/lib/gcc/i686-w64-mingw32/4.8/../../../../i686-w64-mingw32/lib/../lib/libuser32.a(dbukbs00441.o)
 .text          0x0000000000000000        0x8 /usr/lib/gcc/i686-w64-mingw32/4.8/../../../../i686-w64-mingw32/lib/../lib/libuser32.a(dbukbs00042.o)
 .text          0x0000000000000000        0x8 /usr/lib/gcc/i686-w64-mingw32/4.8/../../../../i686-w64-mingw32/lib/../lib/libuser32.a(dbukbs00646.o)
 .text          0x0000000000000000        0x8 /usr/lib/gcc/i686-w64-mingw32/4.8/../../../../i686-w64-mingw32/lib/../lib/libuser32.a(dbukbs00468.o)
 .text          0x0000000000000000        0x8 /usr/lib/gcc/i686-w64-mingw32/4.8/../../../../i686-w64-mingw32/lib/../lib/libuser32.a(dbukbs00150.o)
 .text          0x0000000000000000        0x8 /usr/lib/gcc/i686-w64-mingw32/4.8/../../../../i686-w64-mingw32/lib/../lib/libgdi32.a(dtfkbs00030.o)
 .text          0x0000000000000000        0x8 /usr/lib/gcc/i686-w64-mingw32/4.8/../../../../i686-w64-mingw32/lib/../lib/libgdi32.a(dtfkbs00075.o)
 .text          0x0000000000000000        0x8 /usr/lib/gcc/i686-w64-mingw32/4.8/../../../../i686-w64-mingw32/lib/../lib/libgdi32.a(dtfkbs00047.o)
 .text          0x0000000000000000        0x8 /usr/lib/gcc/i686-w64-mingw32/4.8/../../../../i686-w64-mingw32/lib/../lib/libgdi32.a(dtfkbs00312.o)
 .text          0x0000000000000000        0x8 /usr/lib/gcc/i686-w64-mingw32/4.8/../../../../i686-w64-mingw32/lib/../lib/libgdi32.a(dtfkbs00348.o)
 .text          0x0000000000000000        0x8 /usr/lib/gcc/i686-w64-mingw32/4.8/../../../../i686-w64-mingw32/lib/../lib/libgdi32.a(dtfkbs00305.o)
 .text          0x0000000000000000        0x8 /usr/lib/gcc/i686-w64-mingw32/4.8/../../../../i686-w64-mingw32/lib/../lib/libgdi32.a(dtfkbs00168.o)
 .text          0x0000000000000000        0x8 /usr/lib/gcc/i686-w64-mingw32/4.8/../../../../i686-w64-mingw32/lib/../lib/libgdi32.a(dtfkbs00311.o)
 .text          0x0000000000000000        0x8 /usr/lib/gcc/i686-w64-mingw32/4.8/../../../../i686-w64-mingw32/lib/../lib/libshell32.a(dyxfbs00148.o)
 .debug_info    0x0000000000000000      0x431 /usr/lib/gcc/i686-w64-mingw32/4.8/../../../../i686-w64-mingw32/lib/../lib/libshell32.a(lib32_libshell32_a-shell32.o)
 .debug_abbrev  0x0000000000000000       0x70 /usr/lib/gcc/i686-w64-mingw32/4.8/../../../../i686-w64-mingw32/lib/../lib/libshell32.a(lib32_libshell32_a-shell32.o)
 .debug_aranges
                0x0000000000000000       0x18 /usr/lib/gcc/i686-w64-mingw32/4.8/../../../../i686-w64-mingw32/lib/../lib/libshell32.a(lib32_libshell32_a-shell32.o)
 .debug_line    0x0000000000000000       0x98 /usr/lib/gcc/i686-w64-mingw32/4.8/../../../../i686-w64-mingw32/lib/../lib/libshell32.a(lib32_libshell32_a-shell32.o)
 .debug_str     0x0000000000000000        0x0 /usr/lib/gcc/i686-w64-mingw32/4.8/../../../../i686-w64-mingw32/lib/../lib/libshell32.a(lib32_libshell32_a-shell32.o)
 .text          0x0000000000000000        0x8 /usr/lib/gcc/i686-w64-mingw32/4.8/../../../../i686-w64-mingw32/lib/../lib/libshell32.a(dyxfbs00077.o)
 .text          0x0000000000000000        0x8 /usr/lib/gcc/i686-w64-mingw32/4.8/../../../../i686-w64-mingw32/lib/../lib/libshell32.a(dyxfbs00088.o)
 .text          0x0000000000000000        0x8 /usr/lib/gcc/i686-w64-mingw32/4.8/../../../../i686-w64-mingw32/lib/../lib/libshell32.a(dyxfbs00104.o)
 .text          0x0000000000000000        0x8 /usr/lib/gcc/i686-w64-mingw32/4.8/../../../../i686-w64-mingw32/lib/../lib/libshell32.a(dyxfbs00063.o)
 .text          0x0000000000000000        0x8 /usr/lib/gcc/i686-w64-mingw32/4.8/../../../../i686-w64-mingw32/lib/../lib/libshell32.a(dyxfbs00108.o)
 .text          0x0000000000000000        0x8 /usr/lib/gcc/i686-w64-mingw32/4.8/../../../../i686-w64-mingw32/lib/../lib/libadvapi32.a(drrjbs00616.o)
 .text          0x0000000000000000        0x8 /usr/lib/gcc/i686-w64-mingw32/4.8/../../../../i686-w64-mingw32/lib/../lib/libadvapi32.a(drrjbs00597.o)
 .text          0x0000000000000000        0x8 /usr/lib/gcc/i686-w64-mingw32/4.8/../../../../i686-w64-mingw32/lib/../lib/libadvapi32.a(drrjbs00568.o)
 .text          0x0000000000000000        0x8 /usr/lib/gcc/i686-w64-mingw32/4.8/../../../../i686-w64-mingw32/lib/../lib/libadvapi32.a(drrjbs00581.o)
 .text          0x0000000000000000        0x8 /usr/lib/gcc/i686-w64-mingw32/4.8/../../../../i686-w64-mingw32/lib/../lib/libadvapi32.a(drrjbs00591.o)
 .text          0x0000000000000000        0x8 /usr/lib/gcc/i686-w64-mingw32/4.8/../../../../i686-w64-mingw32/lib/../lib/libadvapi32.a(drrjbs00576.o)
 .text          0x0000000000000000        0x8 /usr/lib/gcc/i686-w64-mingw32/4.8/../../../../i686-w64-mingw32/lib/../lib/libadvapi32.a(drrjbs00645.o)
 .text          0x0000000000000000        0x8 /usr/lib/gcc/i686-w64-mingw32/4.8/../../../../i686-w64-mingw32/lib/../lib/libadvapi32.a(drrjbs00629.o)
 .text          0x0000000000000000        0x8 /usr/lib/gcc/i686-w64-mingw32/4.8/../../../../i686-w64-mingw32/lib/../lib/libadvapi32.a(drrjbs00601.o)
 .text          0x0000000000000000        0x8 /usr/lib/gcc/i686-w64-mingw32/4.8/../../../../i686-w64-mingw32/lib/../lib/libcomctl32.a(dwtjbs00094.o)
 .text          0x0000000000000000        0x8 /usr/lib/gcc/i686-w64-mingw32/4.8/../../../../i686-w64-mingw32/lib/../lib/libcomctl32.a(dwtjbs00062.o)
 .text          0x0000000000000000        0x8 /usr/lib/gcc/i686-w64-mingw32/4.8/../../../../i686-w64-mingw32/lib/../lib/libcomctl32.a(dwtjbs00059.o)
 .text          0x0000000000000000        0x8 /usr/lib/gcc/i686-w64-mingw32/4.8/../../../../i686-w64-mingw32/lib/../lib/libcomctl32.a(dwtjbs00063.o)
 .text          0x0000000000000000        0x8 /usr/lib/gcc/i686-w64-mingw32/4.8/../../../../i686-w64-mingw32/lib/../lib/libole32.a(dxmkbs00016.o)
 .text          0x0000000000000000        0x8 /usr/lib/gcc/i686-w64-mingw32/4.8/../../../../i686-w64-mingw32/lib/../lib/libole32.a(dxmkbs00248.o)
 .text          0x0000000000000000        0x8 /usr/lib/gcc/i686-w64-mingw32/4.8/../../../../i686-w64-mingw32/lib/../lib/libole32.a(dxmkbs00271.o)
 .text          0x0000000000000000        0x8 /usr/lib/gcc/i686-w64-mingw32/4.8/../../../../i686-w64-mingw32/lib/../lib/libole32.a(dxmkbs00106.o)
 .rdata$CLSID_ApplicationAssociationRegistrationUI
                0x0000000000000000       0x10 /usr/lib/gcc/i686-w64-mingw32/4.8/../../../../i686-w64-mingw32/lib/../lib/libuuid.a(lib32_libuuid_a-uuid.o)
 .rdata$CLSID_TaskbarList
                0x0000000000000000       0x10 /usr/lib/gcc/i686-w64-mingw32/4.8/../../../../i686-w64-mingw32/lib/../lib/libuuid.a(lib32_libuuid_a-uuid.o)
 .rdata$CLSID_ShellLink
                0x0000000000000000       0x10 /usr/lib/gcc/i686-w64-mingw32/4.8/../../../../i686-w64-mingw32/lib/../lib/libuuid.a(lib32_libuuid_a-uuid.o)
 .rdata$IID_IApplicationAssociationRegistrationUI
                0x0000000000000000       0x10 /usr/lib/gcc/i686-w64-mingw32/4.8/../../../../i686-w64-mingw32/lib/../lib/libuuid.a(lib32_libuuid_a-uuid.o)
 .debug_info    0x0000000000000000     0xba51 /usr/lib/gcc/i686-w64-mingw32/4.8/../../../../i686-w64-mingw32/lib/../lib/libuuid.a(lib32_libuuid_a-uuid.o)
 .debug_abbrev  0x0000000000000000       0xd3 /usr/lib/gcc/i686-w64-mingw32/4.8/../../../../i686-w64-mingw32/lib/../lib/libuuid.a(lib32_libuuid_a-uuid.o)
 .debug_aranges
                0x0000000000000000       0x18 /usr/lib/gcc/i686-w64-mingw32/4.8/../../../../i686-w64-mingw32/lib/../lib/libuuid.a(lib32_libuuid_a-uuid.o)
 .debug_line    0x0000000000000000      0x259 /usr/lib/gcc/i686-w64-mingw32/4.8/../../../../i686-w64-mingw32/lib/../lib/libuuid.a(lib32_libuuid_a-uuid.o)
 .debug_str     0x0000000000000000        0x0 /usr/lib/gcc/i686-w64-mingw32/4.8/../../../../i686-w64-mingw32/lib/../lib/libuuid.a(lib32_libuuid_a-uuid.o)

Memory Configuration

Name             Origin             Length             Attributes
*default*        0x0000000000000000 0xffffffffffffffff

Linker script and memory map

                0x0000000000400000                __image_base__ = 0x400000
                0x0000000000000000                __dll__ = 0x0
                0x0000000000400000                ___ImageBase = 0x400000
                0x0000000000001000                __section_alignment__ = 0x1000
                0x0000000000000200                __file_alignment__ = 0x200
                0x0000000000000004                __major_os_version__ = 0x4
                0x0000000000000000                __minor_os_version__ = 0x0
                0x0000000000000001                __major_image_version__ = 0x1
                0x0000000000000000                __minor_image_version__ = 0x0
                0x0000000000000004                __major_subsystem_version__ = 0x4
                0x0000000000000000                __minor_subsystem_version__ = 0x0
                0x0000000000000002                __subsystem__ = 0x2
                0x0000000000200000                __size_of_stack_reserve__ = 0x200000
                0x0000000000001000                __size_of_stack_commit__ = 0x1000
                0x0000000000100000                __size_of_heap_reserve__ = 0x100000
                0x0000000000001000                __size_of_heap_commit__ = 0x1000
                0x0000000000000000                __loader_flags__ = 0x0
                0x0000000000000000                __dll_characteristics__ = 0x0
LOAD build/release/stub_zlib_solid/bgbg.o
LOAD build/release/stub_zlib_solid/components.o
LOAD build/release/stub_zlib_solid/exec.o
LOAD build/release/stub_zlib_solid/fileform.o
LOAD build/release/stub_zlib_solid/Main.o
LOAD build/release/stub_zlib_solid/plugin.o
LOAD build/release/stub_zlib_solid/Ui.o
LOAD build/release/stub_zlib_solid/util.o
LOAD build/release/stub_zlib_solid/crc32.o
LOAD build/release/stub_zlib_solid/INFBLOCK.o
LOAD build/release/stub_zlib_solid/resource.o
LOAD /usr/lib/gcc/i686-w64-mingw32/4.8/../../../../i686-w64-mingw32/lib/../lib/libkernel32.a
LOAD /usr/lib/gcc/i686-w64-mingw32/4.8/../../../../i686-w64-mingw32/lib/../lib/libuser32.a
LOAD /usr/lib/gcc/i686-w64-mingw32/4.8/../../../../i686-w64-mingw32/lib/../lib/libgdi32.a
LOAD /usr/lib/gcc/i686-w64-mingw32/4.8/../../../../i686-w64-mingw32/lib/../lib/libshell32.a
LOAD /usr/lib/gcc/i686-w64-mingw32/4.8/../../../../i686-w64-mingw32/lib/../lib/libadvapi32.a
LOAD /usr/lib/gcc/i686-w64-mingw32/4.8/../../../../i686-w64-mingw32/lib/../lib/libcomdlg32.a
LOAD /usr/lib/gcc/i686-w64-mingw32/4.8/../../../../i686-w64-mingw32/lib/../lib/libcomctl32.a
LOAD /usr/lib/gcc/i686-w64-mingw32/4.8/../../../../i686-w64-mingw32/lib/../lib/libole32.a
LOAD /usr/lib/gcc/i686-w64-mingw32/4.8/../../../../i686-w64-mingw32/lib/../lib/libversion.a
LOAD /usr/lib/gcc/i686-w64-mingw32/4.8/../../../../i686-w64-mingw32/lib/../lib/libuuid.a

.text           0x0000000000401000     0x9400
 *(.init)
 *(.text)
 .text          0x0000000000401000      0x21c build/release/stub_zlib_solid/bgbg.o
                0x0000000000401000                BG_WndProc@16
 .text          0x000000000040121c      0x1e4 build/release/stub_zlib_solid/components.o
                0x000000000040121c                SectionFlagsChanged@4
                0x0000000000401283                _RefreshSectionGroups@8
                0x0000000000401333                SetInstType@4
                0x000000000040137a                GetInstType@4
 .text          0x0000000000401400     0x2ad8 build/release/stub_zlib_solid/exec.o
                0x000000000040161b                resolveaddr@4
                0x000000000040163c                update_status_text_buf1@4
                0x0000000000403df6                ExecuteCodeSegment@8
                0x0000000000403ead                ExecuteCallbackFunction@4
 .text          0x0000000000403ed8      0x9c8 build/release/stub_zlib_solid/fileform.o
                0x0000000000403f0a                verProc@16
                0x0000000000403faa                handle_ver_dlg
                0x0000000000404095                ReadSelfFile@8
                0x00000000004040e1                SetSelfFilePointer@4
                0x0000000000404302                _dodecomp@16
                0x00000000004044ad                loadHeaders@4
 .text          0x00000000004048a0      0x640 build/release/stub_zlib_solid/Main.o
                0x00000000004048a0                ValidateTempDir
                0x0000000000404904                CleanUp@0
                0x0000000000404963                WinMain@16
 .text          0x0000000000404ee0       0xf4 build/release/stub_zlib_solid/plugin.o
                0x0000000000404ee0                Plugins_SendMsgToAllPlugins@4
                0x0000000000404f08                Plugins_UnloadAll@0
                0x0000000000404f55                Plugins_CanUnload@4
                0x0000000000404f77                RegisterPluginCallback@8
 .text          0x0000000000404fd4     0x2cd4 build/release/stub_zlib_solid/Ui.o
                0x0000000000405415                StreamLicense@16
                0x0000000000405541                DialogProc@16
                0x0000000000406169                build_g_logfile@0
                0x00000000004066c9                ui_doinstall@0
                0x0000000000406b44                TreeGetSelectedSection@8
                0x000000000040759b                update_status_text@8
 .text          0x0000000000407ca8     0x132c build/release/stub_zlib_solid/util.o
                0x0000000000407ca8                myCreateProcess@4
                0x0000000000407d2a                my_SetDialogItemText@12
                0x0000000000407d35                my_GetDialogItemText@8
                0x0000000000407d66                my_MessageBox@8
                0x0000000000407dd4                findchar@8
                0x0000000000407dfe                trimslashtoend@4
                0x0000000000407e37                validpathspec@4
                0x0000000000407e64                skip_root@4
                0x0000000000407ee3                mystrstri@8
                0x0000000000407f52                mini_memcpy@12
                0x0000000000407f75                remove_ro_attr@4
                0x0000000000407fa7                myOpenFile@12
                0x0000000000408000                my_GetTempFileName@8
                0x0000000000408069                myRegGetStr@20
                0x0000000000408112                myitoa@8
                0x0000000000408137                myatoi@4
                0x00000000004081e9                mystrcpy@8
                0x0000000000408211                mystrlen@4
                0x000000000040821c                mystrcat@8
                0x0000000000408227                addtrailingslash@4
                0x000000000040826c                validate_filename@4
                0x0000000000408339                GetNSISString@8
                0x000000000040864a                log_write@4
                0x0000000000408742                _RegKeyHandleToName
                0x00000000004087b7                _LogData2Hex
                0x0000000000408840                log_printf
                0x000000000040888d                file_exists@4
                0x00000000004088c5                is_valid_instpath@4
                0x000000000040897e                myGetProcAddress@4
                0x00000000004089d1                MoveFileOnReboot@8
                0x0000000000408c74                myDelete@8
                0x0000000000408f83                MessageLoop@4
 .text          0x0000000000408fd4       0x6c build/release/stub_zlib_solid/crc32.o
                0x0000000000408fd4                CRC32@12
 .text          0x0000000000409040     0x11f4 build/release/stub_zlib_solid/INFBLOCK.o
                0x0000000000409591                inflate@4
 .text          0x000000000040a234        0x0 /usr/lib/gcc/i686-w64-mingw32/4.8/../../../../i686-w64-mingw32/lib/../lib/libkernel32.a(dnqfbh.o)
 .text          0x000000000040a234        0x0 /usr/lib/gcc/i686-w64-mingw32/4.8/../../../../i686-w64-mingw32/lib/../lib/libkernel32.a(dnqfbt.o)
 .text          0x000000000040a234        0x0 /usr/lib/gcc/i686-w64-mingw32/4.8/../../../../i686-w64-mingw32/lib/../lib/libuser32.a(dbukbh.o)
 .text          0x000000000040a234        0x0 /usr/lib/gcc/i686-w64-mingw32/4.8/../../../../i686-w64-mingw32/lib/../lib/libuser32.a(dbukbt.o)
 .text          0x000000000040a234        0x0 /usr/lib/gcc/i686-w64-mingw32/4.8/../../../../i686-w64-mingw32/lib/../lib/libgdi32.a(dtfkbh.o)
 .text          0x000000000040a234        0x0 /usr/lib/gcc/i686-w64-mingw32/4.8/../../../../i686-w64-mingw32/lib/../lib/libgdi32.a(dtfkbt.o)
 .text          0x000000000040a234        0x0 /usr/lib/gcc/i686-w64-mingw32/4.8/../../../../i686-w64-mingw32/lib/../lib/libshell32.a(lib32_libshell32_a-shell32.o)
 .text          0x000000000040a234        0x0 /usr/lib/gcc/i686-w64-mingw32/4.8/../../../../i686-w64-mingw32/lib/../lib/libshell32.a(dyxfbh.o)
 .text          0x000000000040a234        0x0 /usr/lib/gcc/i686-w64-mingw32/4.8/../../../../i686-w64-mingw32/lib/../lib/libshell32.a(dyxfbt.o)
 .text          0x000000000040a234        0x0 /usr/lib/gcc/i686-w64-mingw32/4.8/../../../../i686-w64-mingw32/lib/../lib/libadvapi32.a(drrjbh.o)
 .text          0x000000000040a234        0x0 /usr/lib/gcc/i686-w64-mingw32/4.8/../../../../i686-w64-mingw32/lib/../lib/libadvapi32.a(drrjbt.o)
 .text          0x000000000040a234        0x0 /usr/lib/gcc/i686-w64-mingw32/4.8/../../../../i686-w64-mingw32/lib/../lib/libcomctl32.a(dwtjbh.o)
 .text          0x000000000040a234        0x0 /usr/lib/gcc/i686-w64-mingw32/4.8/../../../../i686-w64-mingw32/lib/../lib/libcomctl32.a(dwtjbt.o)
 .text          0x000000000040a234        0x0 /usr/lib/gcc/i686-w64-mingw32/4.8/../../../../i686-w64-mingw32/lib/../lib/libole32.a(dxmkbh.o)
 .text          0x000000000040a234        0x0 /usr/lib/gcc/i686-w64-mingw32/4.8/../../../../i686-w64-mingw32/lib/../lib/libole32.a(dxmkbt.o)
 .text          0x000000000040a234        0x8 /usr/lib/gcc/i686-w64-mingw32/4.8/../../../../i686-w64-mingw32/lib/../lib/libversion.a(dqukbs00001.o)
                0x000000000040a234                GetFileVersionInfoSizeA@8
 .text          0x000000000040a23c        0x8 /usr/lib/gcc/i686-w64-mingw32/4.8/../../../../i686-w64-mingw32/lib/../lib/libversion.a(dqukbs00000.o)
                0x000000000040a23c                GetFileVersionInfoA@16
 .text          0x000000000040a244        0x8 /usr/lib/gcc/i686-w64-mingw32/4.8/../../../../i686-w64-mingw32/lib/../lib/libversion.a(dqukbs00010.o)
                0x000000000040a244                VerQueryValueA@16
 .text          0x000000000040a24c        0x0 /usr/lib/gcc/i686-w64-mingw32/4.8/../../../../i686-w64-mingw32/lib/../lib/libversion.a(dqukbh.o)
 .text          0x000000000040a24c        0x0 /usr/lib/gcc/i686-w64-mingw32/4.8/../../../../i686-w64-mingw32/lib/../lib/libversion.a(dqukbt.o)
 .text          0x000000000040a24c        0x0 /usr/lib/gcc/i686-w64-mingw32/4.8/../../../../i686-w64-mingw32/lib/../lib/libuuid.a(lib32_libuuid_a-uuid.o)
 *(SORT(.text$*))
 *(.glue_7t)
 *(.glue_7)
                0x000000000040a24c                ___CTOR_LIST__ = .
                0x000000000040a24c                __CTOR_LIST__ = .
                0x000000000040a24c        0x4 LONG 0xffffffffffffffff
 *(EXCLUDE_FILE(*crtend.o) .ctors)
 *(.ctor)
 *(SORT(.ctors.*))
 *crtend.o(.ctors)
                0x000000000040a250        0x4 LONG 0x0
                0x000000000040a254                ___DTOR_LIST__ = .
                0x000000000040a254                __DTOR_LIST__ = .
                0x000000000040a254        0x4 LONG 0xffffffffffffffff
 *(EXCLUDE_FILE(*crtend.o) .dtors)
 *(.dtor)
 *(SORT(.dtors.*))
 *crtend.o(.dtors)
                0x000000000040a258        0x4 LONG 0x0
 *(.fini)
 *(.gcc_exc)
                0x000000000040a25c                PROVIDE (etext, .)
 *(.gcc_except_table)

.data           0x000000000040b000      0x200
                0x000000000040b000                __data_start__ = .
 *(.data)
 .data          0x000000000040b000        0x0 build/release/stub_zlib_solid/bgbg.o
 .data          0x000000000040b000        0x0 build/release/stub_zlib_solid/components.o
 .data          0x000000000040b000       0x10 build/release/stub_zlib_solid/exec.o
                0x000000000040b000                plugin_extra_parameters
 .data          0x000000000040b010        0x8 build/release/stub_zlib_solid/fileform.o
                0x000000000040b010                dbd_hFile
                0x000000000040b014                g_db_hFile
 .data          0x000000000040b018        0x0 build/release/stub_zlib_solid/Main.o
 .data          0x000000000040b018        0x0 build/release/stub_zlib_solid/plugin.o
 .data          0x000000000040b018        0x4 build/release/stub_zlib_solid/Ui.o
 .data          0x000000000040b01c       0x74 build/release/stub_zlib_solid/util.o
                0x000000000040b048                MGA_FUNCS
 .data          0x000000000040b090        0x0 build/release/stub_zlib_solid/crc32.o
 .data          0x000000000040b090        0x8 build/release/stub_zlib_solid/INFBLOCK.o
 .data          0x000000000040b098        0x0 /usr/lib/gcc/i686-w64-mingw32/4.8/../../../../i686-w64-mingw32/lib/../lib/libkernel32.a(dnqfbs01140.o)
 .data          0x000000000040b098        0x0 /usr/lib/gcc/i686-w64-mingw32/4.8/../../../../i686-w64-mingw32/lib/../lib/libkernel32.a(dnqfbs01057.o)
 .data          0x000000000040b098        0x0 /usr/lib/gcc/i686-w64-mingw32/4.8/../../../../i686-w64-mingw32/lib/../lib/libkernel32.a(dnqfbs00126.o)
 .data          0x000000000040b098        0x0 /usr/lib/gcc/i686-w64-mingw32/4.8/../../../../i686-w64-mingw32/lib/../lib/libkernel32.a(dnqfbs00515.o)
 .data          0x000000000040b098        0x0 /usr/lib/gcc/i686-w64-mingw32/4.8/../../../../i686-w64-mingw32/lib/../lib/libkernel32.a(dnqfbs00486.o)
 .data          0x000000000040b098        0x0 /usr/lib/gcc/i686-w64-mingw32/4.8/../../../../i686-w64-mingw32/lib/../lib/libkernel32.a(dnqfbs01040.o)
 .data          0x000000000040b098        0x0 /usr/lib/gcc/i686-w64-mingw32/4.8/../../../../i686-w64-mingw32/lib/../lib/libkernel32.a(dnqfbs00844.o)
 .data          0x000000000040b098        0x0 /usr/lib/gcc/i686-w64-mingw32/4.8/../../../../i686-w64-mingw32/lib/../lib/libkernel32.a(dnqfbs00505.o)
 .data          0x000000000040b098        0x0 /usr/lib/gcc/i686-w64-mingw32/4.8/../../../../i686-w64-mingw32/lib/../lib/libkernel32.a(dnqfbs00610.o)
 .data          0x000000000040b098        0x0 /usr/lib/gcc/i686-w64-mingw32/4.8/../../../../i686-w64-mingw32/lib/../lib/libkernel32.a(dnqfbs00991.o)
 .data          0x000000000040b098        0x0 /usr/lib/gcc/i686-w64-mingw32/4.8/../../../../i686-w64-mingw32/lib/../lib/libkernel32.a(dnqfbs00097.o)
 .data          0x000000000040b098        0x0 /usr/lib/gcc/i686-w64-mingw32/4.8/../../../../i686-w64-mingw32/lib/../lib/libkernel32.a(dnqfbs01069.o)
 .data          0x000000000040b098        0x0 /usr/lib/gcc/i686-w64-mingw32/4.8/../../../../i686-w64-mingw32/lib/../lib/libkernel32.a(dnqfbs00083.o)
 .data          0x000000000040b098        0x0 /usr/lib/gcc/i686-w64-mingw32/4.8/../../../../i686-w64-mingw32/lib/../lib/libkernel32.a(dnqfbs01295.o)
 .data          0x000000000040b098        0x0 /usr/lib/gcc/i686-w64-mingw32/4.8/../../../../i686-w64-mingw32/lib/../lib/libkernel32.a(dnqfbs01292.o)
 .data          0x000000000040b098        0x0 /usr/lib/gcc/i686-w64-mingw32/4.8/../../../../i686-w64-mingw32/lib/../lib/libkernel32.a(dnqfbs00285.o)
 .data          0x000000000040b098        0x0 /usr/lib/gcc/i686-w64-mingw32/4.8/../../../../i686-w64-mingw32/lib/../lib/libkernel32.a(dnqfbs00702.o)
 .data          0x000000000040b098        0x0 /usr/lib/gcc/i686-w64-mingw32/4.8/../../../../i686-w64-mingw32/lib/../lib/libkernel32.a(dnqfbs00695.o)
 .data          0x000000000040b098        0x0 /usr/lib/gcc/i686-w64-mingw32/4.8/../../../../i686-w64-mingw32/lib/../lib/libkernel32.a(dnqfbs00852.o)
 .data          0x000000000040b098        0x0 /usr/lib/gcc/i686-w64-mingw32/4.8/../../../../i686-w64-mingw32/lib/../lib/libkernel32.a(dnqfbs01218.o)
 .data          0x000000000040b098        0x0 /usr/lib/gcc/i686-w64-mingw32/4.8/../../../../i686-w64-mingw32/lib/../lib/libkernel32.a(dnqfbs00482.o)
 .data          0x000000000040b098        0x0 /usr/lib/gcc/i686-w64-mingw32/4.8/../../../../i686-w64-mingw32/lib/../lib/libkernel32.a(dnqfbs00810.o)
 .data          0x000000000040b098        0x0 /usr/lib/gcc/i686-w64-mingw32/4.8/../../../../i686-w64-mingw32/lib/../lib/libkernel32.a(dnqfbs00533.o)
 .data          0x000000000040b098        0x0 /usr/lib/gcc/i686-w64-mingw32/4.8/../../../../i686-w64-mingw32/lib/../lib/libkernel32.a(dnqfbs00581.o)
 .data          0x000000000040b098        0x0 /usr/lib/gcc/i686-w64-mingw32/4.8/../../../../i686-w64-mingw32/lib/../lib/libkernel32.a(dnqfbs00356.o)
 .data          0x000000000040b098        0x0 /usr/lib/gcc/i686-w64-mingw32/4.8/../../../../i686-w64-mingw32/lib/../lib/libkernel32.a(dnqfbs00853.o)
 .data          0x000000000040b098        0x0 /usr/lib/gcc/i686-w64-mingw32/4.8/../../../../i686-w64-mingw32/lib/../lib/libkernel32.a(dnqfbs01268.o)
 .data          0x000000000040b098        0x0 /usr/lib/gcc/i686-w64-mingw32/4.8/../../../../i686-w64-mingw32/lib/../lib/libkernel32.a(dnqfbs00577.o)
 .data          0x000000000040b098        0x0 /usr/lib/gcc/i686-w64-mingw32/4.8/../../../../i686-w64-mingw32/lib/../lib/libkernel32.a(dnqfbs01262.o)
 .data          0x000000000040b098        0x0 /usr/lib/gcc/i686-w64-mingw32/4.8/../../../../i686-w64-mingw32/lib/../lib/libkernel32.a(dnqfbs00941.o)
 .data          0x000000000040b098        0x0 /usr/lib/gcc/i686-w64-mingw32/4.8/../../../../i686-w64-mingw32/lib/../lib/libkernel32.a(dnqfbs01065.o)
 .data          0x000000000040b098        0x0 /usr/lib/gcc/i686-w64-mingw32/4.8/../../../../i686-w64-mingw32/lib/../lib/libkernel32.a(dnqfbs00304.o)
 .data          0x000000000040b098        0x0 /usr/lib/gcc/i686-w64-mingw32/4.8/../../../../i686-w64-mingw32/lib/../lib/libkernel32.a(dnqfbs00325.o)
 .data          0x000000000040b098        0x0 /usr/lib/gcc/i686-w64-mingw32/4.8/../../../../i686-w64-mingw32/lib/../lib/libkernel32.a(dnqfbs00308.o)
 .data          0x000000000040b098        0x0 /usr/lib/gcc/i686-w64-mingw32/4.8/../../../../i686-w64-mingw32/lib/../lib/libkernel32.a(dnqfbs00214.o)
 .data          0x000000000040b098        0x0 /usr/lib/gcc/i686-w64-mingw32/4.8/../../../../i686-w64-mingw32/lib/../lib/libkernel32.a(dnqfbs00663.o)
 .data          0x000000000040b098        0x0 /usr/lib/gcc/i686-w64-mingw32/4.8/../../../../i686-w64-mingw32/lib/../lib/libkernel32.a(dnqfbs00531.o)
 .data          0x000000000040b098        0x0 /usr/lib/gcc/i686-w64-mingw32/4.8/../../../../i686-w64-mingw32/lib/../lib/libkernel32.a(dnqfbs00497.o)
 .data          0x000000000040b098        0x0 /usr/lib/gcc/i686-w64-mingw32/4.8/../../../../i686-w64-mingw32/lib/../lib/libkernel32.a(dnqfbs00139.o)
 .data          0x000000000040b098        0x0 /usr/lib/gcc/i686-w64-mingw32/4.8/../../../../i686-w64-mingw32/lib/../lib/libkernel32.a(dnqfbs01052.o)
 .data          0x000000000040b098        0x0 /usr/lib/gcc/i686-w64-mingw32/4.8/../../../../i686-w64-mingw32/lib/../lib/libkernel32.a(dnqfbs00394.o)
 .data          0x000000000040b098        0x0 /usr/lib/gcc/i686-w64-mingw32/4.8/../../../../i686-w64-mingw32/lib/../lib/libkernel32.a(dnqfbs00647.o)
 .data          0x000000000040b098        0x0 /usr/lib/gcc/i686-w64-mingw32/4.8/../../../../i686-w64-mingw32/lib/../lib/libkernel32.a(dnqfbs00689.o)
 .data          0x000000000040b098        0x0 /usr/lib/gcc/i686-w64-mingw32/4.8/../../../../i686-w64-mingw32/lib/../lib/libkernel32.a(dnqfbs00452.o)
 .data          0x000000000040b098        0x0 /usr/lib/gcc/i686-w64-mingw32/4.8/../../../../i686-w64-mingw32/lib/../lib/libkernel32.a(dnqfbs00282.o)
 .data          0x000000000040b098        0x0 /usr/lib/gcc/i686-w64-mingw32/4.8/../../../../i686-w64-mingw32/lib/../lib/libkernel32.a(dnqfbs00114.o)
 .data          0x000000000040b098        0x0 /usr/lib/gcc/i686-w64-mingw32/4.8/../../../../i686-w64-mingw32/lib/../lib/libkernel32.a(dnqfbs01301.o)
 .data          0x000000000040b098        0x0 /usr/lib/gcc/i686-w64-mingw32/4.8/../../../../i686-w64-mingw32/lib/../lib/libkernel32.a(dnqfbs00464.o)
 .data          0x000000000040b098        0x0 /usr/lib/gcc/i686-w64-mingw32/4.8/../../../../i686-w64-mingw32/lib/../lib/libkernel32.a(dnqfbs00809.o)
 .data          0x000000000040b098        0x0 /usr/lib/gcc/i686-w64-mingw32/4.8/../../../../i686-w64-mingw32/lib/../lib/libkernel32.a(dnqfbs00183.o)
 .data          0x000000000040b098        0x0 /usr/lib/gcc/i686-w64-mingw32/4.8/../../../../i686-w64-mingw32/lib/../lib/libkernel32.a(dnqfbs00706.o)
 .data          0x000000000040b098        0x0 /usr/lib/gcc/i686-w64-mingw32/4.8/../../../../i686-w64-mingw32/lib/../lib/libkernel32.a(dnqfbs00714.o)
 .data          0x000000000040b098        0x0 /usr/lib/gcc/i686-w64-mingw32/4.8/../../../../i686-w64-mingw32/lib/../lib/libkernel32.a(dnqfbs00167.o)
 .data          0x000000000040b098        0x0 /usr/lib/gcc/i686-w64-mingw32/4.8/../../../../i686-w64-mingw32/lib/../lib/libkernel32.a(dnqfbs01304.o)
 .data          0x000000000040b098        0x0 /usr/lib/gcc/i686-w64-mingw32/4.8/../../../../i686-w64-mingw32/lib/../lib/libkernel32.a(dnqfbs00645.o)
 .data          0x000000000040b098        0x0 /usr/lib/gcc/i686-w64-mingw32/4.8/../../../../i686-w64-mingw32/lib/../lib/libkernel32.a(dnqfbs01289.o)
 .data          0x000000000040b098        0x0 /usr/lib/gcc/i686-w64-mingw32/4.8/../../../../i686-w64-mingw32/lib/../lib/libkernel32.a(dnqfbs00677.o)
 .data          0x000000000040b098        0x0 /usr/lib/gcc/i686-w64-mingw32/4.8/../../../../i686-w64-mingw32/lib/../lib/libkernel32.a(dnqfbs00625.o)
 .data          0x000000000040b098        0x0 /usr/lib/gcc/i686-w64-mingw32/4.8/../../../../i686-w64-mingw32/lib/../lib/libkernel32.a(dnqfbs00964.o)
 .data          0x000000000040b098        0x0 /usr/lib/gcc/i686-w64-mingw32/4.8/../../../../i686-w64-mingw32/lib/../lib/libkernel32.a(dnqfbh.o)
 .data          0x000000000040b098        0x0 /usr/lib/gcc/i686-w64-mingw32/4.8/../../../../i686-w64-mingw32/lib/../lib/libkernel32.a(dnqfbt.o)
 .data          0x000000000040b098        0x0 /usr/lib/gcc/i686-w64-mingw32/4.8/../../../../i686-w64-mingw32/lib/../lib/libuser32.a(dbukbs00011.o)
 .data          0x000000000040b098        0x0 /usr/lib/gcc/i686-w64-mingw32/4.8/../../../../i686-w64-mingw32/lib/../lib/libuser32.a(dbukbs00237.o)
 .data          0x000000000040b098        0x0 /usr/lib/gcc/i686-w64-mingw32/4.8/../../../../i686-w64-mingw32/lib/../lib/libuser32.a(dbukbs00210.o)
 .data          0x000000000040b098        0x0 /usr/lib/gcc/i686-w64-mingw32/4.8/../../../../i686-w64-mingw32/lib/../lib/libuser32.a(dbukbs00173.o)
 .data          0x000000000040b098        0x0 /usr/lib/gcc/i686-w64-mingw32/4.8/../../../../i686-w64-mingw32/lib/../lib/libuser32.a(dbukbs00185.o)
 .data          0x000000000040b098        0x0 /usr/lib/gcc/i686-w64-mingw32/4.8/../../../../i686-w64-mingw32/lib/../lib/libuser32.a(dbukbs00135.o)
 .data          0x000000000040b098        0x0 /usr/lib/gcc/i686-w64-mingw32/4.8/../../../../i686-w64-mingw32/lib/../lib/libuser32.a(dbukbs00472.o)
 .data          0x000000000040b098        0x0 /usr/lib/gcc/i686-w64-mingw32/4.8/../../../../i686-w64-mingw32/lib/../lib/libuser32.a(dbukbs00538.o)
 .data          0x000000000040b098        0x0 /usr/lib/gcc/i686-w64-mingw32/4.8/../../../../i686-w64-mingw32/lib/../lib/libuser32.a(dbukbs00590.o)
 .data          0x000000000040b098        0x0 /usr/lib/gcc/i686-w64-mingw32/4.8/../../../../i686-w64-mingw32/lib/../lib/libuser32.a(dbukbs00644.o)
 .data          0x000000000040b098        0x0 /usr/lib/gcc/i686-w64-mingw32/4.8/../../../../i686-w64-mingw32/lib/../lib/libuser32.a(dbukbs00515.o)
 .data          0x000000000040b098        0x0 /usr/lib/gcc/i686-w64-mingw32/4.8/../../../../i686-w64-mingw32/lib/../lib/libuser32.a(dbukbs00512.o)
 .data          0x000000000040b098        0x0 /usr/lib/gcc/i686-w64-mingw32/4.8/../../../../i686-w64-mingw32/lib/../lib/libuser32.a(dbukbs00212.o)
 .data          0x000000000040b098        0x0 /usr/lib/gcc/i686-w64-mingw32/4.8/../../../../i686-w64-mingw32/lib/../lib/libuser32.a(dbukbs00398.o)
 .data          0x000000000040b098        0x0 /usr/lib/gcc/i686-w64-mingw32/4.8/../../../../i686-w64-mingw32/lib/../lib/libuser32.a(dbukbs00254.o)
 .data          0x000000000040b098        0x0 /usr/lib/gcc/i686-w64-mingw32/4.8/../../../../i686-w64-mingw32/lib/../lib/libuser32.a(dbukbs00574.o)
 .data          0x000000000040b098        0x0 /usr/lib/gcc/i686-w64-mingw32/4.8/../../../../i686-w64-mingw32/lib/../lib/libuser32.a(dbukbs00415.o)
 .data          0x000000000040b098        0x0 /usr/lib/gcc/i686-w64-mingw32/4.8/../../../../i686-w64-mingw32/lib/../lib/libuser32.a(dbukbs00249.o)
 .data          0x000000000040b098        0x0 /usr/lib/gcc/i686-w64-mingw32/4.8/../../../../i686-w64-mingw32/lib/../lib/libuser32.a(dbukbs00181.o)
 .data          0x000000000040b098        0x0 /usr/lib/gcc/i686-w64-mingw32/4.8/../../../../i686-w64-mingw32/lib/../lib/libuser32.a(dbukbs00374.o)
 .data          0x000000000040b098        0x0 /usr/lib/gcc/i686-w64-mingw32/4.8/../../../../i686-w64-mingw32/lib/../lib/libuser32.a(dbukbs00568.o)
 .data          0x000000000040b098        0x0 /usr/lib/gcc/i686-w64-mingw32/4.8/../../../../i686-w64-mingw32/lib/../lib/libuser32.a(dbukbs00579.o)
 .data          0x000000000040b098        0x0 /usr/lib/gcc/i686-w64-mingw32/4.8/../../../../i686-w64-mingw32/lib/../lib/libuser32.a(dbukbs00145.o)
 .data          0x000000000040b098        0x0 /usr/lib/gcc/i686-w64-mingw32/4.8/../../../../i686-w64-mingw32/lib/../lib/libuser32.a(dbukbs00081.o)
 .data          0x000000000040b098        0x0 /usr/lib/gcc/i686-w64-mingw32/4.8/../../../../i686-w64-mingw32/lib/../lib/libuser32.a(dbukbs00039.o)
 .data          0x000000000040b098        0x0 /usr/lib/gcc/i686-w64-mingw32/4.8/../../../../i686-w64-mingw32/lib/../lib/libuser32.a(dbukbs00209.o)
 .data          0x000000000040b098        0x0 /usr/lib/gcc/i686-w64-mingw32/4.8/../../../../i686-w64-mingw32/lib/../lib/libuser32.a(dbukbs00346.o)
 .data          0x000000000040b098        0x0 /usr/lib/gcc/i686-w64-mingw32/4.8/../../../../i686-w64-mingw32/lib/../lib/libuser32.a(dbukbs00327.o)
 .data          0x000000000040b098        0x0 /usr/lib/gcc/i686-w64-mingw32/4.8/../../../../i686-w64-mingw32/lib/../lib/libuser32.a(dbukbs00524.o)
 .data          0x000000000040b098        0x0 /usr/lib/gcc/i686-w64-mingw32/4.8/../../../../i686-w64-mingw32/lib/../lib/libuser32.a(dbukbs00329.o)
 .data          0x000000000040b098        0x0 /usr/lib/gcc/i686-w64-mingw32/4.8/../../../../i686-w64-mingw32/lib/../lib/libuser32.a(dbukbs00179.o)
 .data          0x000000000040b098        0x0 /usr/lib/gcc/i686-w64-mingw32/4.8/../../../../i686-w64-mingw32/lib/../lib/libuser32.a(dbukbs00183.o)
 .data          0x000000000040b098        0x0 /usr/lib/gcc/i686-w64-mingw32/4.8/../../../../i686-w64-mingw32/lib/../lib/libuser32.a(dbukbs00352.o)
 .data          0x000000000040b098        0x0 /usr/lib/gcc/i686-w64-mingw32/4.8/../../../../i686-w64-mingw32/lib/../lib/libuser32.a(dbukbs00504.o)
 .data          0x000000000040b098        0x0 /usr/lib/gcc/i686-w64-mingw32/4.8/../../../../i686-w64-mingw32/lib/../lib/libuser32.a(dbukbs00577.o)
 .data          0x000000000040b098        0x0 /usr/lib/gcc/i686-w64-mingw32/4.8/../../../../i686-w64-mingw32/lib/../lib/libuser32.a(dbukbs00399.o)
 .data          0x000000000040b098        0x0 /usr/lib/gcc/i686-w64-mingw32/4.8/../../../../i686-w64-mingw32/lib/../lib/libuser32.a(dbukbs00053.o)
 .data          0x000000000040b098        0x0 /usr/lib/gcc/i686-w64-mingw32/4.8/../../../../i686-w64-mingw32/lib/../lib/libuser32.a(dbukbs00409.o)
 .data          0x000000000040b098        0x0 /usr/lib/gcc/i686-w64-mingw32/4.8/../../../../i686-w64-mingw32/lib/../lib/libuser32.a(dbukbs00529.o)
 .data          0x000000000040b098        0x0 /usr/lib/gcc/i686-w64-mingw32/4.8/../../../../i686-w64-mingw32/lib/../lib/libuser32.a(dbukbs00390.o)
 .data          0x000000000040b098        0x0 /usr/lib/gcc/i686-w64-mingw32/4.8/../../../../i686-w64-mingw32/lib/../lib/libuser32.a(dbukbs00224.o)
 .data          0x000000000040b098        0x0 /usr/lib/gcc/i686-w64-mingw32/4.8/../../../../i686-w64-mingw32/lib/../lib/libuser32.a(dbukbs00483.o)
 .data          0x000000000040b098        0x0 /usr/lib/gcc/i686-w64-mingw32/4.8/../../../../i686-w64-mingw32/lib/../lib/libuser32.a(dbukbs00596.o)
 .data          0x000000000040b098        0x0 /usr/lib/gcc/i686-w64-mingw32/4.8/../../../../i686-w64-mingw32/lib/../lib/libuser32.a(dbukbs00091.o)
 .data          0x000000000040b098        0x0 /usr/lib/gcc/i686-w64-mingw32/4.8/../../../../i686-w64-mingw32/lib/../lib/libuser32.a(dbukbs00228.o)
 .data          0x000000000040b098        0x0 /usr/lib/gcc/i686-w64-mingw32/4.8/../../../../i686-w64-mingw32/lib/../lib/libuser32.a(dbukbs00148.o)
 .data          0x000000000040b098        0x0 /usr/lib/gcc/i686-w64-mingw32/4.8/../../../../i686-w64-mingw32/lib/../lib/libuser32.a(dbukbs00299.o)
 .data          0x000000000040b098        0x0 /usr/lib/gcc/i686-w64-mingw32/4.8/../../../../i686-w64-mingw32/lib/../lib/libuser32.a(dbukbs00407.o)
 .data          0x000000000040b098        0x0 /usr/lib/gcc/i686-w64-mingw32/4.8/../../../../i686-w64-mingw32/lib/../lib/libuser32.a(dbukbs00401.o)
 .data          0x000000000040b098        0x0 /usr/lib/gcc/i686-w64-mingw32/4.8/../../../../i686-w64-mingw32/lib/../lib/libuser32.a(dbukbs00024.o)
 .data          0x000000000040b098        0x0 /usr/lib/gcc/i686-w64-mingw32/4.8/../../../../i686-w64-mingw32/lib/../lib/libuser32.a(dbukbs00330.o)
 .data          0x000000000040b098        0x0 /usr/lib/gcc/i686-w64-mingw32/4.8/../../../../i686-w64-mingw32/lib/../lib/libuser32.a(dbukbs00090.o)
 .data          0x000000000040b098        0x0 /usr/lib/gcc/i686-w64-mingw32/4.8/../../../../i686-w64-mingw32/lib/../lib/libuser32.a(dbukbs00006.o)
 .data          0x000000000040b098        0x0 /usr/lib/gcc/i686-w64-mingw32/4.8/../../../../i686-w64-mingw32/lib/../lib/libuser32.a(dbukbs00607.o)
 .data          0x000000000040b098        0x0 /usr/lib/gcc/i686-w64-mingw32/4.8/../../../../i686-w64-mingw32/lib/../lib/libuser32.a(dbukbs00459.o)
 .data          0x000000000040b098        0x0 /usr/lib/gcc/i686-w64-mingw32/4.8/../../../../i686-w64-mingw32/lib/../lib/libuser32.a(dbukbs00178.o)
 .data          0x000000000040b098        0x0 /usr/lib/gcc/i686-w64-mingw32/4.8/../../../../i686-w64-mingw32/lib/../lib/libuser32.a(dbukbs00527.o)
 .data          0x000000000040b098        0x0 /usr/lib/gcc/i686-w64-mingw32/4.8/../../../../i686-w64-mingw32/lib/../lib/libuser32.a(dbukbs00061.o)
 .data          0x000000000040b098        0x0 /usr/lib/gcc/i686-w64-mingw32/4.8/../../../../i686-w64-mingw32/lib/../lib/libuser32.a(dbukbs00534.o)
 .data          0x000000000040b098        0x0 /usr/lib/gcc/i686-w64-mingw32/4.8/../../../../i686-w64-mingw32/lib/../lib/libuser32.a(dbukbs00256.o)
 .data          0x000000000040b098        0x0 /usr/lib/gcc/i686-w64-mingw32/4.8/../../../../i686-w64-mingw32/lib/../lib/libuser32.a(dbukbs00441.o)
 .data          0x000000000040b098        0x0 /usr/lib/gcc/i686-w64-mingw32/4.8/../../../../i686-w64-mingw32/lib/../lib/libuser32.a(dbukbs00042.o)
 .data          0x000000000040b098        0x0 /usr/lib/gcc/i686-w64-mingw32/4.8/../../../../i686-w64-mingw32/lib/../lib/libuser32.a(dbukbs00646.o)
 .data          0x000000000040b098        0x0 /usr/lib/gcc/i686-w64-mingw32/4.8/../../../../i686-w64-mingw32/lib/../lib/libuser32.a(dbukbs00468.o)
 .data          0x000000000040b098        0x0 /usr/lib/gcc/i686-w64-mingw32/4.8/../../../../i686-w64-mingw32/lib/../lib/libuser32.a(dbukbs00150.o)
 .data          0x000000000040b098        0x0 /usr/lib/gcc/i686-w64-mingw32/4.8/../../../../i686-w64-mingw32/lib/../lib/libuser32.a(dbukbh.o)
 .data          0x000000000040b098        0x0 /usr/lib/gcc/i686-w64-mingw32/4.8/../../../../i686-w64-mingw32/lib/../lib/libuser32.a(dbukbt.o)
 .data          0x000000000040b098        0x0 /usr/lib/gcc/i686-w64-mingw32/4.8/../../../../i686-w64-mingw32/lib/../lib/libgdi32.a(dtfkbs00030.o)
 .data          0x000000000040b098        0x0 /usr/lib/gcc/i686-w64-mingw32/4.8/../../../../i686-w64-mingw32/lib/../lib/libgdi32.a(dtfkbs00075.o)
 .data          0x000000000040b098        0x0 /usr/lib/gcc/i686-w64-mingw32/4.8/../../../../i686-w64-mingw32/lib/../lib/libgdi32.a(dtfkbs00047.o)
 .data          0x000000000040b098        0x0 /usr/lib/gcc/i686-w64-mingw32/4.8/../../../../i686-w64-mingw32/lib/../lib/libgdi32.a(dtfkbs00312.o)
 .data          0x000000000040b098        0x0 /usr/lib/gcc/i686-w64-mingw32/4.8/../../../../i686-w64-mingw32/lib/../lib/libgdi32.a(dtfkbs00348.o)
 .data          0x000000000040b098        0x0 /usr/lib/gcc/i686-w64-mingw32/4.8/../../../../i686-w64-mingw32/lib/../lib/libgdi32.a(dtfkbs00305.o)
 .data          0x000000000040b098        0x0 /usr/lib/gcc/i686-w64-mingw32/4.8/../../../../i686-w64-mingw32/lib/../lib/libgdi32.a(dtfkbs00168.o)
 .data          0x000000000040b098        0x0 /usr/lib/gcc/i686-w64-mingw32/4.8/../../../../i686-w64-mingw32/lib/../lib/libgdi32.a(dtfkbs00311.o)
 .data          0x000000000040b098        0x0 /usr/lib/gcc/i686-w64-mingw32/4.8/../../../../i686-w64-mingw32/lib/../lib/libgdi32.a(dtfkbh.o)
 .data          0x000000000040b098        0x0 /usr/lib/gcc/i686-w64-mingw32/4.8/../../../../i686-w64-mingw32/lib/../lib/libgdi32.a(dtfkbt.o)
 .data          0x000000000040b098        0x0 /usr/lib/gcc/i686-w64-mingw32/4.8/../../../../i686-w64-mingw32/lib/../lib/libshell32.a(dyxfbs00148.o)
 .data          0x000000000040b098        0x0 /usr/lib/gcc/i686-w64-mingw32/4.8/../../../../i686-w64-mingw32/lib/../lib/libshell32.a(lib32_libshell32_a-shell32.o)
 .data          0x000000000040b098        0x0 /usr/lib/gcc/i686-w64-mingw32/4.8/../../../../i686-w64-mingw32/lib/../lib/libshell32.a(dyxfbs00077.o)
 .data          0x000000000040b098        0x0 /usr/lib/gcc/i686-w64-mingw32/4.8/../../../../i686-w64-mingw32/lib/../lib/libshell32.a(dyxfbs00088.o)
 .data          0x000000000040b098        0x0 /usr/lib/gcc/i686-w64-mingw32/4.8/../../../../i686-w64-mingw32/lib/../lib/libshell32.a(dyxfbs00104.o)
 .data          0x000000000040b098        0x0 /usr/lib/gcc/i686-w64-mingw32/4.8/../../../../i686-w64-mingw32/lib/../lib/libshell32.a(dyxfbs00063.o)
 .data          0x000000000040b098        0x0 /usr/lib/gcc/i686-w64-mingw32/4.8/../../../../i686-w64-mingw32/lib/../lib/libshell32.a(dyxfbs00108.o)
 .data          0x000000000040b098        0x0 /usr/lib/gcc/i686-w64-mingw32/4.8/../../../../i686-w64-mingw32/lib/../lib/libshell32.a(dyxfbh.o)
 .data          0x000000000040b098        0x0 /usr/lib/gcc/i686-w64-mingw32/4.8/../../../../i686-w64-mingw32/lib/../lib/libshell32.a(dyxfbt.o)
 .data          0x000000000040b098        0x0 /usr/lib/gcc/i686-w64-mingw32/4.8/../../../../i686-w64-mingw32/lib/../lib/libadvapi32.a(drrjbs00616.o)
 .data          0x000000000040b098        0x0 /usr/lib/gcc/i686-w64-mingw32/4.8/../../../../i686-w64-mingw32/lib/../lib/libadvapi32.a(drrjbs00597.o)
 .data          0x000000000040b098        0x0 /usr/lib/gcc/i686-w64-mingw32/4.8/../../../../i686-w64-mingw32/lib/../lib/libadvapi32.a(drrjbs00568.o)
 .data          0x000000000040b098        0x0 /usr/lib/gcc/i686-w64-mingw32/4.8/../../../../i686-w64-mingw32/lib/../lib/libadvapi32.a(drrjbs00581.o)
 .data          0x000000000040b098        0x0 /usr/lib/gcc/i686-w64-mingw32/4.8/../../../../i686-w64-mingw32/lib/../lib/libadvapi32.a(drrjbs00591.o)
 .data          0x000000000040b098        0x0 /usr/lib/gcc/i686-w64-mingw32/4.8/../../../../i686-w64-mingw32/lib/../lib/libadvapi32.a(drrjbs00576.o)
 .data          0x000000000040b098        0x0 /usr/lib/gcc/i686-w64-mingw32/4.8/../../../../i686-w64-mingw32/lib/../lib/libadvapi32.a(drrjbs00645.o)
 .data          0x000000000040b098        0x0 /usr/lib/gcc/i686-w64-mingw32/4.8/../../../../i686-w64-mingw32/lib/../lib/libadvapi32.a(drrjbs00629.o)
 .data          0x000000000040b098        0x0 /usr/lib/gcc/i686-w64-mingw32/4.8/../../../../i686-w64-mingw32/lib/../lib/libadvapi32.a(drrjbs00601.o)
 .data          0x000000000040b098        0x0 /usr/lib/gcc/i686-w64-mingw32/4.8/../../../../i686-w64-mingw32/lib/../lib/libadvapi32.a(drrjbh.o)
 .data          0x000000000040b098        0x0 /usr/lib/gcc/i686-w64-mingw32/4.8/../../../../i686-w64-mingw32/lib/../lib/libadvapi32.a(drrjbt.o)
 .data          0x000000000040b098        0x0 /usr/lib/gcc/i686-w64-mingw32/4.8/../../../../i686-w64-mingw32/lib/../lib/libcomctl32.a(dwtjbs00094.o)
 .data          0x000000000040b098        0x0 /usr/lib/gcc/i686-w64-mingw32/4.8/../../../../i686-w64-mingw32/lib/../lib/libcomctl32.a(dwtjbs00062.o)
 .data          0x000000000040b098        0x0 /usr/lib/gcc/i686-w64-mingw32/4.8/../../../../i686-w64-mingw32/lib/../lib/libcomctl32.a(dwtjbs00059.o)
 .data          0x000000000040b098        0x0 /usr/lib/gcc/i686-w64-mingw32/4.8/../../../../i686-w64-mingw32/lib/../lib/libcomctl32.a(dwtjbs00063.o)
 .data          0x000000000040b098        0x0 /usr/lib/gcc/i686-w64-mingw32/4.8/../../../../i686-w64-mingw32/lib/../lib/libcomctl32.a(dwtjbh.o)
 .data          0x000000000040b098        0x0 /usr/lib/gcc/i686-w64-mingw32/4.8/../../../../i686-w64-mingw32/lib/../lib/libcomctl32.a(dwtjbt.o)
 .data          0x000000000040b098        0x0 /usr/lib/gcc/i686-w64-mingw32/4.8/../../../../i686-w64-mingw32/lib/../lib/libole32.a(dxmkbs00016.o)
 .data          0x000000000040b098        0x0 /usr/lib/gcc/i686-w64-mingw32/4.8/../../../../i686-w64-mingw32/lib/../lib/libole32.a(dxmkbs00248.o)
 .data          0x000000000040b098        0x0 /usr/lib/gcc/i686-w64-mingw32/4.8/../../../../i686-w64-mingw32/lib/../lib/libole32.a(dxmkbs00271.o)
 .data          0x000000000040b098        0x0 /usr/lib/gcc/i686-w64-mingw32/4.8/../../../../i686-w64-mingw32/lib/../lib/libole32.a(dxmkbs00106.o)
 .data          0x000000000040b098        0x0 /usr/lib/gcc/i686-w64-mingw32/4.8/../../../../i686-w64-mingw32/lib/../lib/libole32.a(dxmkbh.o)
 .data          0x000000000040b098        0x0 /usr/lib/gcc/i686-w64-mingw32/4.8/../../../../i686-w64-mingw32/lib/../lib/libole32.a(dxmkbt.o)
 .data          0x000000000040b098        0x0 /usr/lib/gcc/i686-w64-mingw32/4.8/../../../../i686-w64-mingw32/lib/../lib/libversion.a(dqukbs00001.o)
 .data          0x000000000040b098        0x0 /usr/lib/gcc/i686-w64-mingw32/4.8/../../../../i686-w64-mingw32/lib/../lib/libversion.a(dqukbs00000.o)
 .data          0x000000000040b098        0x0 /usr/lib/gcc/i686-w64-mingw32/4.8/../../../../i686-w64-mingw32/lib/../lib/libversion.a(dqukbs00010.o)
 .data          0x000000000040b098        0x0 /usr/lib/gcc/i686-w64-mingw32/4.8/../../../../i686-w64-mingw32/lib/../lib/libversion.a(dqukbh.o)
 .data          0x000000000040b098        0x0 /usr/lib/gcc/i686-w64-mingw32/4.8/../../../../i686-w64-mingw32/lib/../lib/libversion.a(dqukbt.o)
 .data          0x000000000040b098        0x0 /usr/lib/gcc/i686-w64-mingw32/4.8/../../../../i686-w64-mingw32/lib/../lib/libuuid.a(lib32_libuuid_a-uuid.o)
 *(.data2)
 *(SORT(.data$*))
                0x000000000040b098                __data_end__ = .
 *(.data_cygwin_nocopy)

.rdata          0x000000000040c000     0x6200
 *(.rdata)
 .rdata         0x000000000040c000      0x73c build/release/stub_zlib_solid/exec.o
 .rdata         0x000000000040c73c      0x164 build/release/stub_zlib_solid/fileform.o
 .rdata         0x000000000040c8a0       0x8c build/release/stub_zlib_solid/Main.o
 .rdata         0x000000000040c92c       0xf8 build/release/stub_zlib_solid/Ui.o
 .rdata         0x000000000040ca24      0x2d8 build/release/stub_zlib_solid/util.o
                0x000000000040cca4                QUICKLAUNCH
                0x000000000040ccd0                SYSREGKEY
 .rdata         0x000000000040ccfc      0x170 build/release/stub_zlib_solid/INFBLOCK.o
 *(SORT(.rdata$*))
 .rdata$ALL_POWERSCHEMES_GUID
                0x000000000040ce6c       0x10 /usr/lib/gcc/i686-w64-mingw32/4.8/../../../../i686-w64-mingw32/lib/../lib/libuuid.a(lib32_libuuid_a-uuid.o)
                0x000000000040ce6c                ALL_POWERSCHEMES_GUID
 .rdata$ARRAYID_PathProperties
                0x000000000040ce7c       0x10 /usr/lib/gcc/i686-w64-mingw32/4.8/../../../../i686-w64-mingw32/lib/../lib/libuuid.a(lib32_libuuid_a-uuid.o)
                0x000000000040ce7c                ARRAYID_PathProperties
 .rdata$BHID_AssociationArray
                0x000000000040ce8c       0x10 /usr/lib/gcc/i686-w64-mingw32/4.8/../../../../i686-w64-mingw32/lib/../lib/libuuid.a(lib32_libuuid_a-uuid.o)
                0x000000000040ce8c                BHID_AssociationArray
 .rdata$BHID_DataObject
                0x000000000040ce9c       0x10 /usr/lib/gcc/i686-w64-mingw32/4.8/../../../../i686-w64-mingw32/lib/../lib/libuuid.a(lib32_libuuid_a-uuid.o)
                0x000000000040ce9c                BHID_DataObject
 .rdata$BHID_EnumAssocHandlers
                0x000000000040ceac       0x10 /usr/lib/gcc/i686-w64-mingw32/4.8/../../../../i686-w64-mingw32/lib/../lib/libuuid.a(lib32_libuuid_a-uuid.o)
                0x000000000040ceac                BHID_EnumAssocHandlers
 .rdata$BHID_EnumItems
                0x000000000040cebc       0x10 /usr/lib/gcc/i686-w64-mingw32/4.8/../../../../i686-w64-mingw32/lib/../lib/libuuid.a(lib32_libuuid_a-uuid.o)
                0x000000000040cebc                BHID_EnumItems
 .rdata$BHID_Filter
                0x000000000040cecc       0x10 /usr/lib/gcc/i686-w64-mingw32/4.8/../../../../i686-w64-mingw32/lib/../lib/libuuid.a(lib32_libuuid_a-uuid.o)
                0x000000000040cecc                BHID_Filter
 .rdata$BHID_LinkTargetItem
                0x000000000040cedc       0x10 /usr/lib/gcc/i686-w64-mingw32/4.8/../../../../i686-w64-mingw32/lib/../lib/libuuid.a(lib32_libuuid_a-uuid.o)
                0x000000000040cedc                BHID_LinkTargetItem
 .rdata$BHID_PropertyStore
                0x000000000040ceec       0x10 /usr/lib/gcc/i686-w64-mingw32/4.8/../../../../i686-w64-mingw32/lib/../lib/libuuid.a(lib32_libuuid_a-uuid.o)
                0x000000000040ceec                BHID_PropertyStore
 .rdata$BHID_RandomAccessStream
                0x000000000040cefc       0x10 /usr/lib/gcc/i686-w64-mingw32/4.8/../../../../i686-w64-mingw32/lib/../lib/libuuid.a(lib32_libuuid_a-uuid.o)
                0x000000000040cefc                BHID_RandomAccessStream
 .rdata$BHID_SFObject
                0x000000000040cf0c       0x10 /usr/lib/gcc/i686-w64-mingw32/4.8/../../../../i686-w64-mingw32/lib/../lib/libuuid.a(lib32_libuuid_a-uuid.o)
                0x000000000040cf0c                BHID_SFObject
 .rdata$BHID_SFUIObject
                0x000000000040cf1c       0x10 /usr/lib/gcc/i686-w64-mingw32/4.8/../../../../i686-w64-mingw32/lib/../lib/libuuid.a(lib32_libuuid_a-uuid.o)
                0x000000000040cf1c                BHID_SFUIObject
 .rdata$BHID_SFViewObject
                0x000000000040cf2c       0x10 /usr/lib/gcc/i686-w64-mingw32/4.8/../../../../i686-w64-mingw32/lib/../lib/libuuid.a(lib32_libuuid_a-uuid.o)
                0x000000000040cf2c                BHID_SFViewObject
 .rdata$BHID_Storage
                0x000000000040cf3c       0x10 /usr/lib/gcc/i686-w64-mingw32/4.8/../../../../i686-w64-mingw32/lib/../lib/libuuid.a(lib32_libuuid_a-uuid.o)
                0x000000000040cf3c                BHID_Storage
 .rdata$BHID_StorageEnum
                0x000000000040cf4c       0x10 /usr/lib/gcc/i686-w64-mingw32/4.8/../../../../i686-w64-mingw32/lib/../lib/libuuid.a(lib32_libuuid_a-uuid.o)
                0x000000000040cf4c                BHID_StorageEnum
 .rdata$BHID_Stream
                0x000000000040cf5c       0x10 /usr/lib/gcc/i686-w64-mingw32/4.8/../../../../i686-w64-mingw32/lib/../lib/libuuid.a(lib32_libuuid_a-uuid.o)
                0x000000000040cf5c                BHID_Stream
 .rdata$BHID_ThumbnailHandler
                0x000000000040cf6c       0x10 /usr/lib/gcc/i686-w64-mingw32/4.8/../../../../i686-w64-mingw32/lib/../lib/libuuid.a(lib32_libuuid_a-uuid.o)
                0x000000000040cf6c                BHID_ThumbnailHandler
 .rdata$BHID_Transfer
                0x000000000040cf7c       0x10 /usr/lib/gcc/i686-w64-mingw32/4.8/../../../../i686-w64-mingw32/lib/../lib/libuuid.a(lib32_libuuid_a-uuid.o)
                0x000000000040cf7c                BHID_Transfer
 .rdata$CATID_BrowsableShellExt
                0x000000000040cf8c       0x10 /usr/lib/gcc/i686-w64-mingw32/4.8/../../../../i686-w64-mingw32/lib/../lib/libuuid.a(lib32_libuuid_a-uuid.o)
                0x000000000040cf8c                CATID_BrowsableShellExt
 .rdata$CATID_BrowseInPlace
                0x000000000040cf9c       0x10 /usr/lib/gcc/i686-w64-mingw32/4.8/../../../../i686-w64-mingw32/lib/../lib/libuuid.a(lib32_libuuid_a-uuid.o)
                0x000000000040cf9c                CATID_BrowseInPlace
 .rdata$CATID_CommBand
                0x000000000040cfac       0x10 /usr/lib/gcc/i686-w64-mingw32/4.8/../../../../i686-w64-mingw32/lib/../lib/libuuid.a(lib32_libuuid_a-uuid.o)
                0x000000000040cfac                CATID_CommBand
 .rdata$CATID_Control
                0x000000000040cfbc       0x10 /usr/lib/gcc/i686-w64-mingw32/4.8/../../../../i686-w64-mingw32/lib/../lib/libuuid.a(lib32_libuuid_a-uuid.o)
                0x000000000040cfbc                CATID_Control
 .rdata$CATID_DeskBand
                0x000000000040cfcc       0x10 /usr/lib/gcc/i686-w64-mingw32/4.8/../../../../i686-w64-mingw32/lib/../lib/libuuid.a(lib32_libuuid_a-uuid.o)
                0x000000000040cfcc                CATID_DeskBand
 .rdata$CATID_DocObject
                0x000000000040cfdc       0x10 /usr/lib/gcc/i686-w64-mingw32/4.8/../../../../i686-w64-mingw32/lib/../lib/libuuid.a(lib32_libuuid_a-uuid.o)
                0x000000000040cfdc                CATID_DocObject
 .rdata$CATID_InfoBand
                0x000000000040cfec       0x10 /usr/lib/gcc/i686-w64-mingw32/4.8/../../../../i686-w64-mingw32/lib/../lib/libuuid.a(lib32_libuuid_a-uuid.o)
                0x000000000040cfec                CATID_InfoBand
 .rdata$CATID_Insertable
                0x000000000040cffc       0x10 /usr/lib/gcc/i686-w64-mingw32/4.8/../../../../i686-w64-mingw32/lib/../lib/libuuid.a(lib32_libuuid_a-uuid.o)
                0x000000000040cffc                CATID_Insertable
 .rdata$CATID_InternetAware
                0x000000000040d00c       0x10 /usr/lib/gcc/i686-w64-mingw32/4.8/../../../../i686-w64-mingw32/lib/../lib/libuuid.a(lib32_libuuid_a-uuid.o)
                0x000000000040d00c                CATID_InternetAware
 .rdata$CATID_IsShortcut
                0x000000000040d01c       0x10 /usr/lib/gcc/i686-w64-mingw32/4.8/../../../../i686-w64-mingw32/lib/../lib/libuuid.a(lib32_libuuid_a-uuid.o)
                0x000000000040d01c                CATID_IsShortcut
 .rdata$CATID_LocationFactory
                0x000000000040d02c       0x10 /usr/lib/gcc/i686-w64-mingw32/4.8/../../../../i686-w64-mingw32/lib/../lib/libuuid.a(lib32_libuuid_a-uuid.o)
                0x000000000040d02c                CATID_LocationFactory
 .rdata$CATID_LocationProvider
                0x000000000040d03c       0x10 /usr/lib/gcc/i686-w64-mingw32/4.8/../../../../i686-w64-mingw32/lib/../lib/libuuid.a(lib32_libuuid_a-uuid.o)
                0x000000000040d03c                CATID_LocationProvider
 .rdata$CATID_NeverShowExt
                0x000000000040d04c       0x10 /usr/lib/gcc/i686-w64-mingw32/4.8/../../../../i686-w64-mingw32/lib/../lib/libuuid.a(lib32_libuuid_a-uuid.o)
                0x000000000040d04c                CATID_NeverShowExt
 .rdata$CATID_PersistsToFile
                0x000000000040d05c       0x10 /usr/lib/gcc/i686-w64-mingw32/4.8/../../../../i686-w64-mingw32/lib/../lib/libuuid.a(lib32_libuuid_a-uuid.o)
                0x000000000040d05c                CATID_PersistsToFile
 .rdata$CATID_PersistsToMemory
                0x000000000040d06c       0x10 /usr/lib/gcc/i686-w64-mingw32/4.8/../../../../i686-w64-mingw32/lib/../lib/libuuid.a(lib32_libuuid_a-uuid.o)
                0x000000000040d06c                CATID_PersistsToMemory
 .rdata$CATID_PersistsToMoniker
                0x000000000040d07c       0x10 /usr/lib/gcc/i686-w64-mingw32/4.8/../../../../i686-w64-mingw32/lib/../lib/libuuid.a(lib32_libuuid_a-uuid.o)
                0x000000000040d07c                CATID_PersistsToMoniker
 .rdata$CATID_PersistsToPropertyBag
                0x000000000040d08c       0x10 /usr/lib/gcc/i686-w64-mingw32/4.8/../../../../i686-w64-mingw32/lib/../lib/libuuid.a(lib32_libuuid_a-uuid.o)
                0x000000000040d08c                CATID_PersistsToPropertyBag
 .rdata$CATID_PersistsToStorage
                0x000000000040d09c       0x10 /usr/lib/gcc/i686-w64-mingw32/4.8/../../../../i686-w64-mingw32/lib/../lib/libuuid.a(lib32_libuuid_a-uuid.o)
                0x000000000040d09c                CATID_PersistsToStorage
 .rdata$CATID_PersistsToStream
                0x000000000040d0ac       0x10 /usr/lib/gcc/i686-w64-mingw32/4.8/../../../../i686-w64-mingw32/lib/../lib/libuuid.a(lib32_libuuid_a-uuid.o)
                0x000000000040d0ac                CATID_PersistsToStream
 .rdata$CATID_PersistsToStreamInit
                0x000000000040d0bc       0x10 /usr/lib/gcc/i686-w64-mingw32/4.8/../../../../i686-w64-mingw32/lib/../lib/libuuid.a(lib32_libuuid_a-uuid.o)
                0x000000000040d0bc                CATID_PersistsToStreamInit
 .rdata$CATID_Printable
                0x000000000040d0cc       0x10 /usr/lib/gcc/i686-w64-mingw32/4.8/../../../../i686-w64-mingw32/lib/../lib/libuuid.a(lib32_libuuid_a-uuid.o)
                0x000000000040d0cc                CATID_Printable
 .rdata$CATID_Programmable
                0x000000000040d0dc       0x10 /usr/lib/gcc/i686-w64-mingw32/4.8/../../../../i686-w64-mingw32/lib/../lib/libuuid.a(lib32_libuuid_a-uuid.o)
                0x000000000040d0dc                CATID_Programmable
 .rdata$CATID_RequiresDataPathHost
                0x000000000040d0ec       0x10 /usr/lib/gcc/i686-w64-mingw32/4.8/../../../../i686-w64-mingw32/lib/../lib/libuuid.a(lib32_libuuid_a-uuid.o)
                0x000000000040d0ec                CATID_RequiresDataPathHost
 .rdata$CATID_SafeForInitializing
                0x000000000040d0fc       0x10 /usr/lib/gcc/i686-w64-mingw32/4.8/../../../../i686-w64-mingw32/lib/../lib/libuuid.a(lib32_libuuid_a-uuid.o)
                0x000000000040d0fc                CATID_SafeForInitializing
 .rdata$CATID_SafeForScripting
                0x000000000040d10c       0x10 /usr/lib/gcc/i686-w64-mingw32/4.8/../../../../i686-w64-mingw32/lib/../lib/libuuid.a(lib32_libuuid_a-uuid.o)
                0x000000000040d10c                CATID_SafeForScripting
 .rdata$CATID_SearchableApplication
                0x000000000040d11c       0x10 /usr/lib/gcc/i686-w64-mingw32/4.8/../../../../i686-w64-mingw32/lib/../lib/libuuid.a(lib32_libuuid_a-uuid.o)
                0x000000000040d11c                CATID_SearchableApplication
 .rdata$CGID_DefView
                0x000000000040d12c       0x10 /usr/lib/gcc/i686-w64-mingw32/4.8/../../../../i686-w64-mingw32/lib/../lib/libuuid.a(lib32_libuuid_a-uuid.o)
                0x000000000040d12c                CGID_DefView
 .rdata$CGID_Explorer
                0x000000000040d13c       0x10 /usr/lib/gcc/i686-w64-mingw32/4.8/../../../../i686-w64-mingw32/lib/../lib/libuuid.a(lib32_libuuid_a-uuid.o)
                0x000000000040d13c                CGID_Explorer
 .rdata$CGID_ExplorerBarDoc
                0x000000000040d14c       0x10 /usr/lib/gcc/i686-w64-mingw32/4.8/../../../../i686-w64-mingw32/lib/../lib/libuuid.a(lib32_libuuid_a-uuid.o)
                0x000000000040d14c                CGID_ExplorerBarDoc
 .rdata$CGID_MENUDESKBAR
                0x000000000040d15c       0x10 /usr/lib/gcc/i686-w64-mingw32/4.8/../../../../i686-w64-mingw32/lib/../lib/libuuid.a(lib32_libuuid_a-uuid.o)
                0x000000000040d15c                CGID_MENUDESKBAR
 .rdata$CGID_ShellDocView
                0x000000000040d16c       0x10 /usr/lib/gcc/i686-w64-mingw32/4.8/../../../../i686-w64-mingw32/lib/../lib/libuuid.a(lib32_libuuid_a-uuid.o)
                0x000000000040d16c                CGID_ShellDocView
 .rdata$CGID_ShellServiceObject
                0x000000000040d17c       0x10 /usr/lib/gcc/i686-w64-mingw32/4.8/../../../../i686-w64-mingw32/lib/../lib/libuuid.a(lib32_libuuid_a-uuid.o)
                0x000000000040d17c                CGID_ShellServiceObject
 .rdata$CGID_ShortCut
                0x000000000040d18c       0x10 /usr/lib/gcc/i686-w64-mingw32/4.8/../../../../i686-w64-mingw32/lib/../lib/libuuid.a(lib32_libuuid_a-uuid.o)
                0x000000000040d18c                CGID_ShortCut
 .rdata$CLSID_ACLCustomMRU
                0x000000000040d19c       0x10 /usr/lib/gcc/i686-w64-mingw32/4.8/../../../../i686-w64-mingw32/lib/../lib/libuuid.a(lib32_libuuid_a-uuid.o)
                0x000000000040d19c                CLSID_ACLCustomMRU
 .rdata$CLSID_ACLHistory
                0x000000000040d1ac       0x10 /usr/lib/gcc/i686-w64-mingw32/4.8/../../../../i686-w64-mingw32/lib/../lib/libuuid.a(lib32_libuuid_a-uuid.o)
                0x000000000040d1ac                CLSID_ACLHistory
 .rdata$CLSID_ACLMRU
                0x000000000040d1bc       0x10 /usr/lib/gcc/i686-w64-mingw32/4.8/../../../../i686-w64-mingw32/lib/../lib/libuuid.a(lib32_libuuid_a-uuid.o)
                0x000000000040d1bc                CLSID_ACLMRU
 .rdata$CLSID_ACLMulti
                0x000000000040d1cc       0x10 /usr/lib/gcc/i686-w64-mingw32/4.8/../../../../i686-w64-mingw32/lib/../lib/libuuid.a(lib32_libuuid_a-uuid.o)
                0x000000000040d1cc                CLSID_ACLMulti
 .rdata$CLSID_ACListISF
                0x000000000040d1dc       0x10 /usr/lib/gcc/i686-w64-mingw32/4.8/../../../../i686-w64-mingw32/lib/../lib/libuuid.a(lib32_libuuid_a-uuid.o)
                0x000000000040d1dc                CLSID_ACListISF
 .rdata$CLSID_AccPropServices
                0x000000000040d1ec       0x10 /usr/lib/gcc/i686-w64-mingw32/4.8/../../../../i686-w64-mingw32/lib/../lib/libuuid.a(lib32_libuuid_a-uuid.o)
                0x000000000040d1ec                CLSID_AccPropServices
 .rdata$CLSID_AccessibilityDockingService
                0x000000000040d1fc       0x10 /usr/lib/gcc/i686-w64-mingw32/4.8/../../../../i686-w64-mingw32/lib/../lib/libuuid.a(lib32_libuuid_a-uuid.o)
                0x000000000040d1fc                CLSID_AccessibilityDockingService
 .rdata$CLSID_ActiveDesktop
                0x000000000040d20c       0x10 /usr/lib/gcc/i686-w64-mingw32/4.8/../../../../i686-w64-mingw32/lib/../lib/libuuid.a(lib32_libuuid_a-uuid.o)
                0x000000000040d20c                CLSID_ActiveDesktop
 .rdata$CLSID_AllClasses
                0x000000000040d21c       0x10 /usr/lib/gcc/i686-w64-mingw32/4.8/../../../../i686-w64-mingw32/lib/../lib/libuuid.a(lib32_libuuid_a-uuid.o)
                0x000000000040d21c                CLSID_AllClasses
 .rdata$CLSID_AlphabeticalCategorizer
                0x000000000040d22c       0x10 /usr/lib/gcc/i686-w64-mingw32/4.8/../../../../i686-w64-mingw32/lib/../lib/libuuid.a(lib32_libuuid_a-uuid.o)
                0x000000000040d22c                CLSID_AlphabeticalCategorizer
 .rdata$CLSID_AppShellVerbHandler
                0x000000000040d23c       0x10 /usr/lib/gcc/i686-w64-mingw32/4.8/../../../../i686-w64-mingw32/lib/../lib/libuuid.a(lib32_libuuid_a-uuid.o)
                0x000000000040d23c                CLSID_AppShellVerbHandler
 .rdata$CLSID_AppStartupLink
                0x000000000040d24c       0x10 /usr/lib/gcc/i686-w64-mingw32/4.8/../../../../i686-w64-mingw32/lib/../lib/libuuid.a(lib32_libuuid_a-uuid.o)
                0x000000000040d24c                CLSID_AppStartupLink
 .rdata$CLSID_AppVisibility
                0x000000000040d25c       0x10 /usr/lib/gcc/i686-w64-mingw32/4.8/../../../../i686-w64-mingw32/lib/../lib/libuuid.a(lib32_libuuid_a-uuid.o)
                0x000000000040d25c                CLSID_AppVisibility
 .rdata$CLSID_ApplicationActivationManager
                0x000000000040d26c       0x10 /usr/lib/gcc/i686-w64-mingw32/4.8/../../../../i686-w64-mingw32/lib/../lib/libuuid.a(lib32_libuuid_a-uuid.o)
                0x000000000040d26c                CLSID_ApplicationActivationManager
 .rdata$CLSID_ApplicationAssociationRegistration
                0x000000000040d27c       0x10 /usr/lib/gcc/i686-w64-mingw32/4.8/../../../../i686-w64-mingw32/lib/../lib/libuuid.a(lib32_libuuid_a-uuid.o)
                0x000000000040d27c                CLSID_ApplicationAssociationRegistration
 .rdata$CLSID_ApplicationAssociationRegistrationUI
                0x000000000040d28c       0x10 /usr/lib/gcc/i686-w64-mingw32/4.8/../../../../i686-w64-mingw32/lib/../lib/libshell32.a(lib32_libshell32_a-shell32.o)
                0x000000000040d28c                CLSID_ApplicationAssociationRegistrationUI
 .rdata$CLSID_ApplicationDesignModeSettings
                0x000000000040d29c       0x10 /usr/lib/gcc/i686-w64-mingw32/4.8/../../../../i686-w64-mingw32/lib/../lib/libuuid.a(lib32_libuuid_a-uuid.o)
                0x000000000040d29c                CLSID_ApplicationDesignModeSettings
 .rdata$CLSID_ApplicationDestinations
                0x000000000040d2ac       0x10 /usr/lib/gcc/i686-w64-mingw32/4.8/../../../../i686-w64-mingw32/lib/../lib/libuuid.a(lib32_libuuid_a-uuid.o)
                0x000000000040d2ac                CLSID_ApplicationDestinations
 .rdata$CLSID_ApplicationDocumentLists
                0x000000000040d2bc       0x10 /usr/lib/gcc/i686-w64-mingw32/4.8/../../../../i686-w64-mingw32/lib/../lib/libuuid.a(lib32_libuuid_a-uuid.o)
                0x000000000040d2bc                CLSID_ApplicationDocumentLists
 .rdata$CLSID_AttachmentServices
                0x000000000040d2cc       0x10 /usr/lib/gcc/i686-w64-mingw32/4.8/../../../../i686-w64-mingw32/lib/../lib/libuuid.a(lib32_libuuid_a-uuid.o)
                0x000000000040d2cc                CLSID_AttachmentServices
 .rdata$CLSID_AutoComplete
                0x000000000040d2dc       0x10 /usr/lib/gcc/i686-w64-mingw32/4.8/../../../../i686-w64-mingw32/lib/../lib/libuuid.a(lib32_libuuid_a-uuid.o)
                0x000000000040d2dc                CLSID_AutoComplete
 .rdata$CLSID_CAnchorBrowsePropertyPage
                0x000000000040d2ec       0x10 /usr/lib/gcc/i686-w64-mingw32/4.8/../../../../i686-w64-mingw32/lib/../lib/libuuid.a(lib32_libuuid_a-uuid.o)
                0x000000000040d2ec                CLSID_CAnchorBrowsePropertyPage
 .rdata$CLSID_CColorPropPage
                0x000000000040d2fc       0x10 /usr/lib/gcc/i686-w64-mingw32/4.8/../../../../i686-w64-mingw32/lib/../lib/libuuid.a(lib32_libuuid_a-uuid.o)
                0x000000000040d2fc                CLSID_CColorPropPage
 .rdata$CLSID_CDBurn
                0x000000000040d30c       0x10 /usr/lib/gcc/i686-w64-mingw32/4.8/../../../../i686-w64-mingw32/lib/../lib/libuuid.a(lib32_libuuid_a-uuid.o)
                0x000000000040d30c                CLSID_CDBurn
 .rdata$CLSID_CDocBrowsePropertyPage
                0x000000000040d31c       0x10 /usr/lib/gcc/i686-w64-mingw32/4.8/../../../../i686-w64-mingw32/lib/../lib/libuuid.a(lib32_libuuid_a-uuid.o)
                0x000000000040d31c                CLSID_CDocBrowsePropertyPage
 .rdata$CLSID_CFSIconOverlayManager
                0x000000000040d32c       0x10 /usr/lib/gcc/i686-w64-mingw32/4.8/../../../../i686-w64-mingw32/lib/../lib/libuuid.a(lib32_libuuid_a-uuid.o)
                0x000000000040d32c                CLSID_CFSIconOverlayManager
 .rdata$CLSID_CFontPropPage
                0x000000000040d33c       0x10 /usr/lib/gcc/i686-w64-mingw32/4.8/../../../../i686-w64-mingw32/lib/../lib/libuuid.a(lib32_libuuid_a-uuid.o)
                0x000000000040d33c                CLSID_CFontPropPage
 .rdata$CLSID_CImageBrowsePropertyPage
                0x000000000040d34c       0x10 /usr/lib/gcc/i686-w64-mingw32/4.8/../../../../i686-w64-mingw32/lib/../lib/libuuid.a(lib32_libuuid_a-uuid.o)
                0x000000000040d34c                CLSID_CImageBrowsePropertyPage
 .rdata$CLSID_CPicturePropPage
                0x000000000040d35c       0x10 /usr/lib/gcc/i686-w64-mingw32/4.8/../../../../i686-w64-mingw32/lib/../lib/libuuid.a(lib32_libuuid_a-uuid.o)
                0x000000000040d35c                CLSID_CPicturePropPage
 .rdata$CLSID_CURLSearchHook
                0x000000000040d36c       0x10 /usr/lib/gcc/i686-w64-mingw32/4.8/../../../../i686-w64-mingw32/lib/../lib/libuuid.a(lib32_libuuid_a-uuid.o)
                0x000000000040d36c                CLSID_CURLSearchHook
 .rdata$CLSID_CUrlHistory
                0x000000000040d37c       0x10 /usr/lib/gcc/i686-w64-mingw32/4.8/../../../../i686-w64-mingw32/lib/../lib/libuuid.a(lib32_libuuid_a-uuid.o)
                0x000000000040d37c                CLSID_CUrlHistory
 .rdata$CLSID_ControlPanel
                0x000000000040d38c       0x10 /usr/lib/gcc/i686-w64-mingw32/4.8/../../../../i686-w64-mingw32/lib/../lib/libuuid.a(lib32_libuuid_a-uuid.o)
                0x000000000040d38c                CLSID_ControlPanel
 .rdata$CLSID_ConvertVBX
                0x000000000040d39c       0x10 /usr/lib/gcc/i686-w64-mingw32/4.8/../../../../i686-w64-mingw32/lib/../lib/libuuid.a(lib32_libuuid_a-uuid.o)
                0x000000000040d39c                CLSID_ConvertVBX
 .rdata$CLSID_CurrentUserClasses
                0x000000000040d3ac       0x10 /usr/lib/gcc/i686-w64-mingw32/4.8/../../../../i686-w64-mingw32/lib/../lib/libuuid.a(lib32_libuuid_a-uuid.o)
                0x000000000040d3ac                CLSID_CurrentUserClasses
 .rdata$CLSID_DarwinAppPublisher
                0x000000000040d3bc       0x10 /usr/lib/gcc/i686-w64-mingw32/4.8/../../../../i686-w64-mingw32/lib/../lib/libuuid.a(lib32_libuuid_a-uuid.o)
                0x000000000040d3bc                CLSID_DarwinAppPublisher
 .rdata$CLSID_DefFolderMenu
                0x000000000040d3cc       0x10 /usr/lib/gcc/i686-w64-mingw32/4.8/../../../../i686-w64-mingw32/lib/../lib/libuuid.a(lib32_libuuid_a-uuid.o)
                0x000000000040d3cc                CLSID_DefFolderMenu
 .rdata$CLSID_DesktopGadget
                0x000000000040d3dc       0x10 /usr/lib/gcc/i686-w64-mingw32/4.8/../../../../i686-w64-mingw32/lib/../lib/libuuid.a(lib32_libuuid_a-uuid.o)
                0x000000000040d3dc                CLSID_DesktopGadget
 .rdata$CLSID_DesktopWallpaper
                0x000000000040d3ec       0x10 /usr/lib/gcc/i686-w64-mingw32/4.8/../../../../i686-w64-mingw32/lib/../lib/libuuid.a(lib32_libuuid_a-uuid.o)
                0x000000000040d3ec                CLSID_DesktopWallpaper
 .rdata$CLSID_DestinationList
                0x000000000040d3fc       0x10 /usr/lib/gcc/i686-w64-mingw32/4.8/../../../../i686-w64-mingw32/lib/../lib/libuuid.a(lib32_libuuid_a-uuid.o)
                0x000000000040d3fc                CLSID_DestinationList
 .rdata$CLSID_DocHostUIHandler
                0x000000000040d40c       0x10 /usr/lib/gcc/i686-w64-mingw32/4.8/../../../../i686-w64-mingw32/lib/../lib/libuuid.a(lib32_libuuid_a-uuid.o)
                0x000000000040d40c                CLSID_DocHostUIHandler
 .rdata$CLSID_DocPropShellExtension
                0x000000000040d41c       0x10 /usr/lib/gcc/i686-w64-mingw32/4.8/../../../../i686-w64-mingw32/lib/../lib/libuuid.a(lib32_libuuid_a-uuid.o)
                0x000000000040d41c                CLSID_DocPropShellExtension
 .rdata$CLSID_DragDropHelper
                0x000000000040d42c       0x10 /usr/lib/gcc/i686-w64-mingw32/4.8/../../../../i686-w64-mingw32/lib/../lib/libuuid.a(lib32_libuuid_a-uuid.o)
                0x000000000040d42c                CLSID_DragDropHelper
 .rdata$CLSID_DriveSizeCategorizer
                0x000000000040d43c       0x10 /usr/lib/gcc/i686-w64-mingw32/4.8/../../../../i686-w64-mingw32/lib/../lib/libuuid.a(lib32_libuuid_a-uuid.o)
                0x000000000040d43c                CLSID_DriveSizeCategorizer
 .rdata$CLSID_DriveTypeCategorizer
                0x000000000040d44c       0x10 /usr/lib/gcc/i686-w64-mingw32/4.8/../../../../i686-w64-mingw32/lib/../lib/libuuid.a(lib32_libuuid_a-uuid.o)
                0x000000000040d44c                CLSID_DriveTypeCategorizer
 .rdata$CLSID_EnumerableObjectCollection
                0x000000000040d45c       0x10 /usr/lib/gcc/i686-w64-mingw32/4.8/../../../../i686-w64-mingw32/lib/../lib/libuuid.a(lib32_libuuid_a-uuid.o)
                0x000000000040d45c                CLSID_EnumerableObjectCollection
 .rdata$CLSID_ExecuteFolder
                0x000000000040d46c       0x10 /usr/lib/gcc/i686-w64-mingw32/4.8/../../../../i686-w64-mingw32/lib/../lib/libuuid.a(lib32_libuuid_a-uuid.o)
                0x000000000040d46c                CLSID_ExecuteFolder
 .rdata$CLSID_ExecuteUnknown
                0x000000000040d47c       0x10 /usr/lib/gcc/i686-w64-mingw32/4.8/../../../../i686-w64-mingw32/lib/../lib/libuuid.a(lib32_libuuid_a-uuid.o)
                0x000000000040d47c                CLSID_ExecuteUnknown
 .rdata$CLSID_ExplorerBrowser
                0x000000000040d48c       0x10 /usr/lib/gcc/i686-w64-mingw32/4.8/../../../../i686-w64-mingw32/lib/../lib/libuuid.a(lib32_libuuid_a-uuid.o)
                0x000000000040d48c                CLSID_ExplorerBrowser
 .rdata$CLSID_FSCopyHandler
                0x000000000040d49c       0x10 /usr/lib/gcc/i686-w64-mingw32/4.8/../../../../i686-w64-mingw32/lib/../lib/libuuid.a(lib32_libuuid_a-uuid.o)
                0x000000000040d49c                CLSID_FSCopyHandler
 .rdata$CLSID_FileOpenDialog
                0x000000000040d4ac       0x10 /usr/lib/gcc/i686-w64-mingw32/4.8/../../../../i686-w64-mingw32/lib/../lib/libuuid.a(lib32_libuuid_a-uuid.o)
                0x000000000040d4ac                CLSID_FileOpenDialog
 .rdata$CLSID_FileOperation
                0x000000000040d4bc       0x10 /usr/lib/gcc/i686-w64-mingw32/4.8/../../../../i686-w64-mingw32/lib/../lib/libuuid.a(lib32_libuuid_a-uuid.o)
                0x000000000040d4bc                CLSID_FileOperation
 .rdata$CLSID_FileProtocol
                0x000000000040d4cc       0x10 /usr/lib/gcc/i686-w64-mingw32/4.8/../../../../i686-w64-mingw32/lib/../lib/libuuid.a(lib32_libuuid_a-uuid.o)
                0x000000000040d4cc                CLSID_FileProtocol
 .rdata$CLSID_FileSaveDialog
                0x000000000040d4dc       0x10 /usr/lib/gcc/i686-w64-mingw32/4.8/../../../../i686-w64-mingw32/lib/../lib/libuuid.a(lib32_libuuid_a-uuid.o)
                0x000000000040d4dc                CLSID_FileSaveDialog
 .rdata$CLSID_FileTypes
                0x000000000040d4ec       0x10 /usr/lib/gcc/i686-w64-mingw32/4.8/../../../../i686-w64-mingw32/lib/../lib/libuuid.a(lib32_libuuid_a-uuid.o)
                0x000000000040d4ec                CLSID_FileTypes
 .rdata$CLSID_FolderItem
                0x000000000040d4fc       0x10 /usr/lib/gcc/i686-w64-mingw32/4.8/../../../../i686-w64-mingw32/lib/../lib/libuuid.a(lib32_libuuid_a-uuid.o)
                0x000000000040d4fc                CLSID_FolderItem
 .rdata$CLSID_FolderItemsMultiLevel
                0x000000000040d50c       0x10 /usr/lib/gcc/i686-w64-mingw32/4.8/../../../../i686-w64-mingw32/lib/../lib/libuuid.a(lib32_libuuid_a-uuid.o)
                0x000000000040d50c                CLSID_FolderItemsMultiLevel
 .rdata$CLSID_FolderShortcut
                0x000000000040d51c       0x10 /usr/lib/gcc/i686-w64-mingw32/4.8/../../../../i686-w64-mingw32/lib/../lib/libuuid.a(lib32_libuuid_a-uuid.o)
                0x000000000040d51c                CLSID_FolderShortcut
 .rdata$CLSID_FolderViewHost
                0x000000000040d52c       0x10 /usr/lib/gcc/i686-w64-mingw32/4.8/../../../../i686-w64-mingw32/lib/../lib/libuuid.a(lib32_libuuid_a-uuid.o)
                0x000000000040d52c                CLSID_FolderViewHost
 .rdata$CLSID_FrameworkInputPane
                0x000000000040d53c       0x10 /usr/lib/gcc/i686-w64-mingw32/4.8/../../../../i686-w64-mingw32/lib/../lib/libuuid.a(lib32_libuuid_a-uuid.o)
                0x000000000040d53c                CLSID_FrameworkInputPane
 .rdata$CLSID_FreeSpaceCategorizer
                0x000000000040d54c       0x10 /usr/lib/gcc/i686-w64-mingw32/4.8/../../../../i686-w64-mingw32/lib/../lib/libuuid.a(lib32_libuuid_a-uuid.o)
                0x000000000040d54c                CLSID_FreeSpaceCategorizer
 .rdata$CLSID_FtpProtocol
                0x000000000040d55c       0x10 /usr/lib/gcc/i686-w64-mingw32/4.8/../../../../i686-w64-mingw32/lib/../lib/libuuid.a(lib32_libuuid_a-uuid.o)
                0x000000000040d55c                CLSID_FtpProtocol
 .rdata$CLSID_GopherProtocol
                0x000000000040d56c       0x10 /usr/lib/gcc/i686-w64-mingw32/4.8/../../../../i686-w64-mingw32/lib/../lib/libuuid.a(lib32_libuuid_a-uuid.o)
                0x000000000040d56c                CLSID_GopherProtocol
 .rdata$CLSID_HWShellExecute
                0x000000000040d57c       0x10 /usr/lib/gcc/i686-w64-mingw32/4.8/../../../../i686-w64-mingw32/lib/../lib/libuuid.a(lib32_libuuid_a-uuid.o)
                0x000000000040d57c                CLSID_HWShellExecute
 .rdata$CLSID_HomeGroup
                0x000000000040d58c       0x10 /usr/lib/gcc/i686-w64-mingw32/4.8/../../../../i686-w64-mingw32/lib/../lib/libuuid.a(lib32_libuuid_a-uuid.o)
                0x000000000040d58c                CLSID_HomeGroup
 .rdata$CLSID_HttpProtocol
                0x000000000040d59c       0x10 /usr/lib/gcc/i686-w64-mingw32/4.8/../../../../i686-w64-mingw32/lib/../lib/libuuid.a(lib32_libuuid_a-uuid.o)
                0x000000000040d59c                CLSID_HttpProtocol
 .rdata$CLSID_HttpSProtocol
                0x000000000040d5ac       0x10 /usr/lib/gcc/i686-w64-mingw32/4.8/../../../../i686-w64-mingw32/lib/../lib/libuuid.a(lib32_libuuid_a-uuid.o)
                0x000000000040d5ac                CLSID_HttpSProtocol
 .rdata$CLSID_IENamespaceTreeControl
                0x000000000040d5bc       0x10 /usr/lib/gcc/i686-w64-mingw32/4.8/../../../../i686-w64-mingw32/lib/../lib/libuuid.a(lib32_libuuid_a-uuid.o)
                0x000000000040d5bc                CLSID_IENamespaceTreeControl
 .rdata$CLSID_ISFBand
                0x000000000040d5cc       0x10 /usr/lib/gcc/i686-w64-mingw32/4.8/../../../../i686-w64-mingw32/lib/../lib/libuuid.a(lib32_libuuid_a-uuid.o)
                0x000000000040d5cc                CLSID_ISFBand
 .rdata$CLSID_IdentityUnmarshal
                0x000000000040d5dc       0x10 /usr/lib/gcc/i686-w64-mingw32/4.8/../../../../i686-w64-mingw32/lib/../lib/libuuid.a(lib32_libuuid_a-uuid.o)
                0x000000000040d5dc                CLSID_IdentityUnmarshal
 .rdata$CLSID_ImageProperties
                0x000000000040d5ec       0x10 /usr/lib/gcc/i686-w64-mingw32/4.8/../../../../i686-w64-mingw32/lib/../lib/libuuid.a(lib32_libuuid_a-uuid.o)
                0x000000000040d5ec                CLSID_ImageProperties
 .rdata$CLSID_ImageRecompress
                0x000000000040d5fc       0x10 /usr/lib/gcc/i686-w64-mingw32/4.8/../../../../i686-w64-mingw32/lib/../lib/libuuid.a(lib32_libuuid_a-uuid.o)
                0x000000000040d5fc                CLSID_ImageRecompress
 .rdata$CLSID_InMemoryPropertyStore
                0x000000000040d60c       0x10 /usr/lib/gcc/i686-w64-mingw32/4.8/../../../../i686-w64-mingw32/lib/../lib/libuuid.a(lib32_libuuid_a-uuid.o)
                0x000000000040d60c                CLSID_InMemoryPropertyStore
 .rdata$CLSID_InProcFreeMarshaler
                0x000000000040d61c       0x10 /usr/lib/gcc/i686-w64-mingw32/4.8/../../../../i686-w64-mingw32/lib/../lib/libuuid.a(lib32_libuuid_a-uuid.o)
                0x000000000040d61c                CLSID_InProcFreeMarshaler
 .rdata$CLSID_Internet
                0x000000000040d62c       0x10 /usr/lib/gcc/i686-w64-mingw32/4.8/../../../../i686-w64-mingw32/lib/../lib/libuuid.a(lib32_libuuid_a-uuid.o)
                0x000000000040d62c                CLSID_Internet
 .rdata$CLSID_InternetButtons
                0x000000000040d63c       0x10 /usr/lib/gcc/i686-w64-mingw32/4.8/../../../../i686-w64-mingw32/lib/../lib/libuuid.a(lib32_libuuid_a-uuid.o)
                0x000000000040d63c                CLSID_InternetButtons
 .rdata$CLSID_InternetExplorer
                0x000000000040d64c       0x10 /usr/lib/gcc/i686-w64-mingw32/4.8/../../../../i686-w64-mingw32/lib/../lib/libshell32.a(lib32_libshell32_a-shell32.o)
                0x000000000040d64c                CLSID_InternetExplorer
 .rdata$CLSID_InternetPrintOrdering
                0x000000000040d65c       0x10 /usr/lib/gcc/i686-w64-mingw32/4.8/../../../../i686-w64-mingw32/lib/../lib/libuuid.a(lib32_libuuid_a-uuid.o)
                0x000000000040d65c                CLSID_InternetPrintOrdering
 .rdata$CLSID_InternetShortcut
                0x000000000040d66c       0x10 /usr/lib/gcc/i686-w64-mingw32/4.8/../../../../i686-w64-mingw32/lib/../lib/libuuid.a(lib32_libuuid_a-uuid.o)
                0x000000000040d66c                CLSID_InternetShortcut
 .rdata$CLSID_KnownFolderManager
                0x000000000040d67c       0x10 /usr/lib/gcc/i686-w64-mingw32/4.8/../../../../i686-w64-mingw32/lib/../lib/libuuid.a(lib32_libuuid_a-uuid.o)
                0x000000000040d67c                CLSID_KnownFolderManager
 .rdata$CLSID_LinkColumnProvider
                0x000000000040d68c       0x10 /usr/lib/gcc/i686-w64-mingw32/4.8/../../../../i686-w64-mingw32/lib/../lib/libuuid.a(lib32_libuuid_a-uuid.o)
                0x000000000040d68c                CLSID_LinkColumnProvider
 .rdata$CLSID_LocalMachineClasses
                0x000000000040d69c       0x10 /usr/lib/gcc/i686-w64-mingw32/4.8/../../../../i686-w64-mingw32/lib/../lib/libuuid.a(lib32_libuuid_a-uuid.o)
                0x000000000040d69c                CLSID_LocalMachineClasses
 .rdata$CLSID_MSOButtons
                0x000000000040d6ac       0x10 /usr/lib/gcc/i686-w64-mingw32/4.8/../../../../i686-w64-mingw32/lib/../lib/libuuid.a(lib32_libuuid_a-uuid.o)
                0x000000000040d6ac                CLSID_MSOButtons
 .rdata$CLSID_MailRecipient
                0x000000000040d6bc       0x10 /usr/lib/gcc/i686-w64-mingw32/4.8/../../../../i686-w64-mingw32/lib/../lib/libuuid.a(lib32_libuuid_a-uuid.o)
                0x000000000040d6bc                CLSID_MailRecipient
 .rdata$CLSID_MenuBand
                0x000000000040d6cc       0x10 /usr/lib/gcc/i686-w64-mingw32/4.8/../../../../i686-w64-mingw32/lib/../lib/libuuid.a(lib32_libuuid_a-uuid.o)
                0x000000000040d6cc                CLSID_MenuBand
 .rdata$CLSID_MenuBandSite
                0x000000000040d6dc       0x10 /usr/lib/gcc/i686-w64-mingw32/4.8/../../../../i686-w64-mingw32/lib/../lib/libuuid.a(lib32_libuuid_a-uuid.o)
                0x000000000040d6dc                CLSID_MenuBandSite
 .rdata$CLSID_MenuToolbarBase
                0x000000000040d6ec       0x10 /usr/lib/gcc/i686-w64-mingw32/4.8/../../../../i686-w64-mingw32/lib/../lib/libuuid.a(lib32_libuuid_a-uuid.o)
                0x000000000040d6ec                CLSID_MenuToolbarBase
 .rdata$CLSID_MergedCategorizer
                0x000000000040d6fc       0x10 /usr/lib/gcc/i686-w64-mingw32/4.8/../../../../i686-w64-mingw32/lib/../lib/libuuid.a(lib32_libuuid_a-uuid.o)
                0x000000000040d6fc                CLSID_MergedCategorizer
 .rdata$CLSID_MkProtocol
                0x000000000040d70c       0x10 /usr/lib/gcc/i686-w64-mingw32/4.8/../../../../i686-w64-mingw32/lib/../lib/libuuid.a(lib32_libuuid_a-uuid.o)
                0x000000000040d70c                CLSID_MkProtocol
 .rdata$CLSID_MyComputer
                0x000000000040d71c       0x10 /usr/lib/gcc/i686-w64-mingw32/4.8/../../../../i686-w64-mingw32/lib/../lib/libuuid.a(lib32_libuuid_a-uuid.o)
                0x000000000040d71c                CLSID_MyComputer
 .rdata$CLSID_MyDocuments
                0x000000000040d72c       0x10 /usr/lib/gcc/i686-w64-mingw32/4.8/../../../../i686-w64-mingw32/lib/../lib/libuuid.a(lib32_libuuid_a-uuid.o)
                0x000000000040d72c                CLSID_MyDocuments
 .rdata$CLSID_NamespaceTreeControl
                0x000000000040d73c       0x10 /usr/lib/gcc/i686-w64-mingw32/4.8/../../../../i686-w64-mingw32/lib/../lib/libuuid.a(lib32_libuuid_a-uuid.o)
                0x000000000040d73c                CLSID_NamespaceTreeControl
 .rdata$CLSID_NamespaceWalker
                0x000000000040d74c       0x10 /usr/lib/gcc/i686-w64-mingw32/4.8/../../../../i686-w64-mingw32/lib/../lib/libuuid.a(lib32_libuuid_a-uuid.o)
                0x000000000040d74c                CLSID_NamespaceWalker
 .rdata$CLSID_NetworkConnections
                0x000000000040d75c       0x10 /usr/lib/gcc/i686-w64-mingw32/4.8/../../../../i686-w64-mingw32/lib/../lib/libuuid.a(lib32_libuuid_a-uuid.o)
                0x000000000040d75c                CLSID_NetworkConnections
 .rdata$CLSID_NetworkDomain
                0x000000000040d76c       0x10 /usr/lib/gcc/i686-w64-mingw32/4.8/../../../../i686-w64-mingw32/lib/../lib/libuuid.a(lib32_libuuid_a-uuid.o)
                0x000000000040d76c                CLSID_NetworkDomain
 .rdata$CLSID_NetworkExplorerFolder
                0x000000000040d77c       0x10 /usr/lib/gcc/i686-w64-mingw32/4.8/../../../../i686-w64-mingw32/lib/../lib/libuuid.a(lib32_libuuid_a-uuid.o)
                0x000000000040d77c                CLSID_NetworkExplorerFolder
 .rdata$CLSID_NetworkPlaces
                0x000000000040d78c       0x10 /usr/lib/gcc/i686-w64-mingw32/4.8/../../../../i686-w64-mingw32/lib/../lib/libuuid.a(lib32_libuuid_a-uuid.o)
                0x000000000040d78c                CLSID_NetworkPlaces
 .rdata$CLSID_NetworkServer
                0x000000000040d79c       0x10 /usr/lib/gcc/i686-w64-mingw32/4.8/../../../../i686-w64-mingw32/lib/../lib/libuuid.a(lib32_libuuid_a-uuid.o)
                0x000000000040d79c                CLSID_NetworkServer
 .rdata$CLSID_NetworkShare
                0x000000000040d7ac       0x10 /usr/lib/gcc/i686-w64-mingw32/4.8/../../../../i686-w64-mingw32/lib/../lib/libuuid.a(lib32_libuuid_a-uuid.o)
                0x000000000040d7ac                CLSID_NetworkShare
 .rdata$CLSID_NewMenu
                0x000000000040d7bc       0x10 /usr/lib/gcc/i686-w64-mingw32/4.8/../../../../i686-w64-mingw32/lib/../lib/libuuid.a(lib32_libuuid_a-uuid.o)
                0x000000000040d7bc                CLSID_NewMenu
 .rdata$CLSID_OpenControlPanel
                0x000000000040d7cc       0x10 /usr/lib/gcc/i686-w64-mingw32/4.8/../../../../i686-w64-mingw32/lib/../lib/libuuid.a(lib32_libuuid_a-uuid.o)
                0x000000000040d7cc                CLSID_OpenControlPanel
 .rdata$CLSID_PSBindCtx
                0x000000000040d7dc       0x10 /usr/lib/gcc/i686-w64-mingw32/4.8/../../../../i686-w64-mingw32/lib/../lib/libuuid.a(lib32_libuuid_a-uuid.o)
                0x000000000040d7dc                CLSID_PSBindCtx
 .rdata$CLSID_PSClassObject
                0x000000000040d7ec       0x10 /usr/lib/gcc/i686-w64-mingw32/4.8/../../../../i686-w64-mingw32/lib/../lib/libuuid.a(lib32_libuuid_a-uuid.o)
                0x000000000040d7ec                CLSID_PSClassObject
 .rdata$CLSID_PSClientSite
                0x000000000040d7fc       0x10 /usr/lib/gcc/i686-w64-mingw32/4.8/../../../../i686-w64-mingw32/lib/../lib/libuuid.a(lib32_libuuid_a-uuid.o)
                0x000000000040d7fc                CLSID_PSClientSite
 .rdata$CLSID_PSDragDrop
                0x000000000040d80c       0x10 /usr/lib/gcc/i686-w64-mingw32/4.8/../../../../i686-w64-mingw32/lib/../lib/libuuid.a(lib32_libuuid_a-uuid.o)
                0x000000000040d80c                CLSID_PSDragDrop
 .rdata$CLSID_PSEnumerators
                0x000000000040d81c       0x10 /usr/lib/gcc/i686-w64-mingw32/4.8/../../../../i686-w64-mingw32/lib/../lib/libuuid.a(lib32_libuuid_a-uuid.o)
                0x000000000040d81c                CLSID_PSEnumerators
 .rdata$CLSID_PSGenObject
                0x000000000040d82c       0x10 /usr/lib/gcc/i686-w64-mingw32/4.8/../../../../i686-w64-mingw32/lib/../lib/libuuid.a(lib32_libuuid_a-uuid.o)
                0x000000000040d82c                CLSID_PSGenObject
 .rdata$CLSID_PSInPlaceActive
                0x000000000040d83c       0x10 /usr/lib/gcc/i686-w64-mingw32/4.8/../../../../i686-w64-mingw32/lib/../lib/libuuid.a(lib32_libuuid_a-uuid.o)
                0x000000000040d83c                CLSID_PSInPlaceActive
 .rdata$CLSID_PSInPlaceFrame
                0x000000000040d84c       0x10 /usr/lib/gcc/i686-w64-mingw32/4.8/../../../../i686-w64-mingw32/lib/../lib/libuuid.a(lib32_libuuid_a-uuid.o)
                0x000000000040d84c                CLSID_PSInPlaceFrame
 .rdata$CLSID_PSUrlMonProxy
                0x000000000040d85c       0x10 /usr/lib/gcc/i686-w64-mingw32/4.8/../../../../i686-w64-mingw32/lib/../lib/libuuid.a(lib32_libuuid_a-uuid.o)
                0x000000000040d85c                CLSID_PSUrlMonProxy
 .rdata$CLSID_PackageDebugSettings
                0x000000000040d86c       0x10 /usr/lib/gcc/i686-w64-mingw32/4.8/../../../../i686-w64-mingw32/lib/../lib/libuuid.a(lib32_libuuid_a-uuid.o)
                0x000000000040d86c                CLSID_PackageDebugSettings
 .rdata$CLSID_PersistPropset
                0x000000000040d87c       0x10 /usr/lib/gcc/i686-w64-mingw32/4.8/../../../../i686-w64-mingw32/lib/../lib/libuuid.a(lib32_libuuid_a-uuid.o)
                0x000000000040d87c                CLSID_PersistPropset
 .rdata$CLSID_Picture_Dib
                0x000000000040d88c       0x10 /usr/lib/gcc/i686-w64-mingw32/4.8/../../../../i686-w64-mingw32/lib/../lib/libuuid.a(lib32_libuuid_a-uuid.o)
                0x000000000040d88c                CLSID_Picture_Dib
 .rdata$CLSID_Picture_EnhMetafile
                0x000000000040d89c       0x10 /usr/lib/gcc/i686-w64-mingw32/4.8/../../../../i686-w64-mingw32/lib/../lib/libuuid.a(lib32_libuuid_a-uuid.o)
                0x000000000040d89c                CLSID_Picture_EnhMetafile
 .rdata$CLSID_Picture_Metafile
                0x000000000040d8ac       0x10 /usr/lib/gcc/i686-w64-mingw32/4.8/../../../../i686-w64-mingw32/lib/../lib/libuuid.a(lib32_libuuid_a-uuid.o)
                0x000000000040d8ac                CLSID_Picture_Metafile
 .rdata$CLSID_PlaybackManager
                0x000000000040d8bc       0x10 /usr/lib/gcc/i686-w64-mingw32/4.8/../../../../i686-w64-mingw32/lib/../lib/libuuid.a(lib32_libuuid_a-uuid.o)
                0x000000000040d8bc                CLSID_PlaybackManager
 .rdata$CLSID_PreviousVersions
                0x000000000040d8cc       0x10 /usr/lib/gcc/i686-w64-mingw32/4.8/../../../../i686-w64-mingw32/lib/../lib/libuuid.a(lib32_libuuid_a-uuid.o)
                0x000000000040d8cc                CLSID_PreviousVersions
 .rdata$CLSID_Printers
                0x000000000040d8dc       0x10 /usr/lib/gcc/i686-w64-mingw32/4.8/../../../../i686-w64-mingw32/lib/../lib/libuuid.a(lib32_libuuid_a-uuid.o)
                0x000000000040d8dc                CLSID_Printers
 .rdata$CLSID_ProgressDialog
                0x000000000040d8ec       0x10 /usr/lib/gcc/i686-w64-mingw32/4.8/../../../../i686-w64-mingw32/lib/../lib/libuuid.a(lib32_libuuid_a-uuid.o)
                0x000000000040d8ec                CLSID_ProgressDialog
 .rdata$CLSID_PropertiesUI
                0x000000000040d8fc       0x10 /usr/lib/gcc/i686-w64-mingw32/4.8/../../../../i686-w64-mingw32/lib/../lib/libuuid.a(lib32_libuuid_a-uuid.o)
                0x000000000040d8fc                CLSID_PropertiesUI
 .rdata$CLSID_PropertySystem
                0x000000000040d90c       0x10 /usr/lib/gcc/i686-w64-mingw32/4.8/../../../../i686-w64-mingw32/lib/../lib/libuuid.a(lib32_libuuid_a-uuid.o)
                0x000000000040d90c                CLSID_PropertySystem
 .rdata$CLSID_PublishDropTarget
                0x000000000040d91c       0x10 /usr/lib/gcc/i686-w64-mingw32/4.8/../../../../i686-w64-mingw32/lib/../lib/libuuid.a(lib32_libuuid_a-uuid.o)
                0x000000000040d91c                CLSID_PublishDropTarget
 .rdata$CLSID_PublishingWizard
                0x000000000040d92c       0x10 /usr/lib/gcc/i686-w64-mingw32/4.8/../../../../i686-w64-mingw32/lib/../lib/libuuid.a(lib32_libuuid_a-uuid.o)
                0x000000000040d92c                CLSID_PublishingWizard
 .rdata$CLSID_QueryAssociations
                0x000000000040d93c       0x10 /usr/lib/gcc/i686-w64-mingw32/4.8/../../../../i686-w64-mingw32/lib/../lib/libuuid.a(lib32_libuuid_a-uuid.o)
                0x000000000040d93c                CLSID_QueryAssociations
 .rdata$CLSID_QueryCancelAutoPlay
                0x000000000040d94c       0x10 /usr/lib/gcc/i686-w64-mingw32/4.8/../../../../i686-w64-mingw32/lib/../lib/libuuid.a(lib32_libuuid_a-uuid.o)
                0x000000000040d94c                CLSID_QueryCancelAutoPlay
 .rdata$CLSID_QuickLinks
                0x000000000040d95c       0x10 /usr/lib/gcc/i686-w64-mingw32/4.8/../../../../i686-w64-mingw32/lib/../lib/libuuid.a(lib32_libuuid_a-uuid.o)
                0x000000000040d95c                CLSID_QuickLinks
 .rdata$CLSID_RecycleBin
                0x000000000040d96c       0x10 /usr/lib/gcc/i686-w64-mingw32/4.8/../../../../i686-w64-mingw32/lib/../lib/libuuid.a(lib32_libuuid_a-uuid.o)
                0x000000000040d96c                CLSID_RecycleBin
 .rdata$CLSID_SHItemOC
                0x000000000040d97c       0x10 /usr/lib/gcc/i686-w64-mingw32/4.8/../../../../i686-w64-mingw32/lib/../lib/libshell32.a(lib32_libshell32_a-shell32.o)
                0x000000000040d97c                CLSID_SHItemOC
 .rdata$CLSID_ScheduledTasks
                0x000000000040d98c       0x10 /usr/lib/gcc/i686-w64-mingw32/4.8/../../../../i686-w64-mingw32/lib/../lib/libuuid.a(lib32_libuuid_a-uuid.o)
                0x000000000040d98c                CLSID_ScheduledTasks
 .rdata$CLSID_SearchFolderItemFactory
                0x000000000040d99c       0x10 /usr/lib/gcc/i686-w64-mingw32/4.8/../../../../i686-w64-mingw32/lib/../lib/libuuid.a(lib32_libuuid_a-uuid.o)
                0x000000000040d99c                CLSID_SearchFolderItemFactory
 .rdata$CLSID_SharingConfigurationManager
                0x000000000040d9ac       0x10 /usr/lib/gcc/i686-w64-mingw32/4.8/../../../../i686-w64-mingw32/lib/../lib/libuuid.a(lib32_libuuid_a-uuid.o)
                0x000000000040d9ac                CLSID_SharingConfigurationManager
 .rdata$CLSID_ShellDesktop
                0x000000000040d9bc       0x10 /usr/lib/gcc/i686-w64-mingw32/4.8/../../../../i686-w64-mingw32/lib/../lib/libuuid.a(lib32_libuuid_a-uuid.o)
                0x000000000040d9bc                CLSID_ShellDesktop
 .rdata$CLSID_ShellExplorer
                0x000000000040d9cc       0x10 /usr/lib/gcc/i686-w64-mingw32/4.8/../../../../i686-w64-mingw32/lib/../lib/libshell32.a(lib32_libshell32_a-shell32.o)
                0x000000000040d9cc                CLSID_ShellExplorer
 .rdata$CLSID_ShellFSFolder
                0x000000000040d9dc       0x10 /usr/lib/gcc/i686-w64-mingw32/4.8/../../../../i686-w64-mingw32/lib/../lib/libuuid.a(lib32_libuuid_a-uuid.o)
                0x000000000040d9dc                CLSID_ShellFSFolder
 .rdata$CLSID_ShellFldSetExt
                0x000000000040d9ec       0x10 /usr/lib/gcc/i686-w64-mingw32/4.8/../../../../i686-w64-mingw32/lib/../lib/libuuid.a(lib32_libuuid_a-uuid.o)
                0x000000000040d9ec                CLSID_ShellFldSetExt
 .rdata$CLSID_ShellItem
                0x000000000040d9fc       0x10 /usr/lib/gcc/i686-w64-mingw32/4.8/../../../../i686-w64-mingw32/lib/../lib/libuuid.a(lib32_libuuid_a-uuid.o)
                0x000000000040d9fc                CLSID_ShellItem
 .rdata$CLSID_ShellLibrary
                0x000000000040da0c       0x10 /usr/lib/gcc/i686-w64-mingw32/4.8/../../../../i686-w64-mingw32/lib/../lib/libuuid.a(lib32_libuuid_a-uuid.o)
                0x000000000040da0c                CLSID_ShellLibrary
 .rdata$CLSID_ShellLink
                0x000000000040da1c       0x10 /usr/lib/gcc/i686-w64-mingw32/4.8/../../../../i686-w64-mingw32/lib/../lib/libshell32.a(lib32_libshell32_a-shell32.o)
                0x000000000040da1c                CLSID_ShellLink
 .rdata$CLSID_SizeCategorizer
                0x000000000040da2c       0x10 /usr/lib/gcc/i686-w64-mingw32/4.8/../../../../i686-w64-mingw32/lib/../lib/libuuid.a(lib32_libuuid_a-uuid.o)
                0x000000000040da2c                CLSID_SizeCategorizer
 .rdata$CLSID_StartMenuPin
                0x000000000040da3c       0x10 /usr/lib/gcc/i686-w64-mingw32/4.8/../../../../i686-w64-mingw32/lib/../lib/libuuid.a(lib32_libuuid_a-uuid.o)
                0x000000000040da3c                CLSID_StartMenuPin
 .rdata$CLSID_StaticDib
                0x000000000040da4c       0x10 /usr/lib/gcc/i686-w64-mingw32/4.8/../../../../i686-w64-mingw32/lib/../lib/libuuid.a(lib32_libuuid_a-uuid.o)
                0x000000000040da4c                CLSID_StaticDib
 .rdata$CLSID_StaticMetafile
                0x000000000040da5c       0x10 /usr/lib/gcc/i686-w64-mingw32/4.8/../../../../i686-w64-mingw32/lib/../lib/libuuid.a(lib32_libuuid_a-uuid.o)
                0x000000000040da5c                CLSID_StaticMetafile
 .rdata$CLSID_StdComponentCategoriesMgr
                0x000000000040da6c       0x10 /usr/lib/gcc/i686-w64-mingw32/4.8/../../../../i686-w64-mingw32/lib/../lib/libuuid.a(lib32_libuuid_a-uuid.o)
                0x000000000040da6c                CLSID_StdComponentCategoriesMgr
 .rdata$CLSID_StdFont
                0x000000000040da7c       0x10 /usr/lib/gcc/i686-w64-mingw32/4.8/../../../../i686-w64-mingw32/lib/../lib/libuuid.a(lib32_libuuid_a-uuid.o)
                0x000000000040da7c                CLSID_StdFont
 .rdata$CLSID_StdHlink
                0x000000000040da8c       0x10 /usr/lib/gcc/i686-w64-mingw32/4.8/../../../../i686-w64-mingw32/lib/../lib/libuuid.a(lib32_libuuid_a-uuid.o)
                0x000000000040da8c                CLSID_StdHlink
 .rdata$CLSID_StdHlinkBrowseContext
                0x000000000040da9c       0x10 /usr/lib/gcc/i686-w64-mingw32/4.8/../../../../i686-w64-mingw32/lib/../lib/libuuid.a(lib32_libuuid_a-uuid.o)
                0x000000000040da9c                CLSID_StdHlinkBrowseContext
 .rdata$CLSID_StdHyperLink
                0x000000000040daac       0x10 /usr/lib/gcc/i686-w64-mingw32/4.8/../../../../i686-w64-mingw32/lib/../lib/libshell32.a(lib32_libshell32_a-shell32.o)
                0x000000000040daac                CLSID_StdHyperLink
 .rdata$CLSID_StdMarshal
                0x000000000040dabc       0x10 /usr/lib/gcc/i686-w64-mingw32/4.8/../../../../i686-w64-mingw32/lib/../lib/libuuid.a(lib32_libuuid_a-uuid.o)
                0x000000000040dabc                CLSID_StdMarshal
 .rdata$CLSID_StdPicture
                0x000000000040dacc       0x10 /usr/lib/gcc/i686-w64-mingw32/4.8/../../../../i686-w64-mingw32/lib/../lib/libuuid.a(lib32_libuuid_a-uuid.o)
                0x000000000040dacc                CLSID_StdPicture
 .rdata$CLSID_StdURLMoniker
                0x000000000040dadc       0x10 /usr/lib/gcc/i686-w64-mingw32/4.8/../../../../i686-w64-mingw32/lib/../lib/libuuid.a(lib32_libuuid_a-uuid.o)
                0x000000000040dadc                CLSID_StdURLMoniker
 .rdata$CLSID_StdURLProtocol
                0x000000000040daec       0x10 /usr/lib/gcc/i686-w64-mingw32/4.8/../../../../i686-w64-mingw32/lib/../lib/libuuid.a(lib32_libuuid_a-uuid.o)
                0x000000000040daec                CLSID_StdURLProtocol
 .rdata$CLSID_TaskbarList
                0x000000000040dafc       0x10 /usr/lib/gcc/i686-w64-mingw32/4.8/../../../../i686-w64-mingw32/lib/../lib/libshell32.a(lib32_libshell32_a-shell32.o)
                0x000000000040dafc                CLSID_TaskbarList
 .rdata$CLSID_TimeCategorizer
                0x000000000040db0c       0x10 /usr/lib/gcc/i686-w64-mingw32/4.8/../../../../i686-w64-mingw32/lib/../lib/libuuid.a(lib32_libuuid_a-uuid.o)
                0x000000000040db0c                CLSID_TimeCategorizer
 .rdata$CLSID_ToolbarExtButtons
                0x000000000040db1c       0x10 /usr/lib/gcc/i686-w64-mingw32/4.8/../../../../i686-w64-mingw32/lib/../lib/libuuid.a(lib32_libuuid_a-uuid.o)
                0x000000000040db1c                CLSID_ToolbarExtButtons
 .rdata$CLSID_TrayBandSiteService
                0x000000000040db2c       0x10 /usr/lib/gcc/i686-w64-mingw32/4.8/../../../../i686-w64-mingw32/lib/../lib/libuuid.a(lib32_libuuid_a-uuid.o)
                0x000000000040db2c                CLSID_TrayBandSiteService
 .rdata$CLSID_TrayDeskBand
                0x000000000040db3c       0x10 /usr/lib/gcc/i686-w64-mingw32/4.8/../../../../i686-w64-mingw32/lib/../lib/libuuid.a(lib32_libuuid_a-uuid.o)
                0x000000000040db3c                CLSID_TrayDeskBand
 .rdata$CLSID_UserNotification
                0x000000000040db4c       0x10 /usr/lib/gcc/i686-w64-mingw32/4.8/../../../../i686-w64-mingw32/lib/../lib/libuuid.a(lib32_libuuid_a-uuid.o)
                0x000000000040db4c                CLSID_UserNotification
 .rdata$CLSID_WebBrowser
                0x000000000040db5c       0x10 /usr/lib/gcc/i686-w64-mingw32/4.8/../../../../i686-w64-mingw32/lib/../lib/libuuid.a(lib32_libuuid_a-uuid.o)
                0x000000000040db5c                CLSID_WebBrowser
 .rdata$CLSID_WebWizardHost
                0x000000000040db6c       0x10 /usr/lib/gcc/i686-w64-mingw32/4.8/../../../../i686-w64-mingw32/lib/../lib/libuuid.a(lib32_libuuid_a-uuid.o)
                0x000000000040db6c                CLSID_WebWizardHost
 .rdata$CPFG_CREDENTIAL_PROVIDER_LABEL
                0x000000000040db7c       0x10 /usr/lib/gcc/i686-w64-mingw32/4.8/../../../../i686-w64-mingw32/lib/../lib/libuuid.a(lib32_libuuid_a-uuid.o)
                0x000000000040db7c                CPFG_CREDENTIAL_PROVIDER_LABEL
 .rdata$CPFG_CREDENTIAL_PROVIDER_LOGO
                0x000000000040db8c       0x10 /usr/lib/gcc/i686-w64-mingw32/4.8/../../../../i686-w64-mingw32/lib/../lib/libuuid.a(lib32_libuuid_a-uuid.o)
                0x000000000040db8c                CPFG_CREDENTIAL_PROVIDER_LOGO
 .rdata$CPFG_LOGON_PASSWORD
                0x000000000040db9c       0x10 /usr/lib/gcc/i686-w64-mingw32/4.8/../../../../i686-w64-mingw32/lib/../lib/libuuid.a(lib32_libuuid_a-uuid.o)
                0x000000000040db9c                CPFG_LOGON_PASSWORD
 .rdata$CPFG_LOGON_USERNAME
                0x000000000040dbac       0x10 /usr/lib/gcc/i686-w64-mingw32/4.8/../../../../i686-w64-mingw32/lib/../lib/libuuid.a(lib32_libuuid_a-uuid.o)
                0x000000000040dbac                CPFG_LOGON_USERNAME
 .rdata$CPFG_SMARTCARD_PIN
                0x000000000040dbbc       0x10 /usr/lib/gcc/i686-w64-mingw32/4.8/../../../../i686-w64-mingw32/lib/../lib/libuuid.a(lib32_libuuid_a-uuid.o)
                0x000000000040dbbc                CPFG_SMARTCARD_PIN
 .rdata$CPFG_SMARTCARD_USERNAME
                0x000000000040dbcc       0x10 /usr/lib/gcc/i686-w64-mingw32/4.8/../../../../i686-w64-mingw32/lib/../lib/libuuid.a(lib32_libuuid_a-uuid.o)
                0x000000000040dbcc                CPFG_SMARTCARD_USERNAME
 .rdata$DIID_DExplorerEvents
                0x000000000040dbdc       0x10 /usr/lib/gcc/i686-w64-mingw32/4.8/../../../../i686-w64-mingw32/lib/../lib/libshell32.a(lib32_libshell32_a-shell32.o)
                0x000000000040dbdc                DIID_DExplorerEvents
 .rdata$DIID_DSHItemOCEvents
                0x000000000040dbec       0x10 /usr/lib/gcc/i686-w64-mingw32/4.8/../../../../i686-w64-mingw32/lib/../lib/libshell32.a(lib32_libshell32_a-shell32.o)
                0x000000000040dbec                DIID_DSHItemOCEvents
 .rdata$DIID_DShellExplorerEvents
                0x000000000040dbfc       0x10 /usr/lib/gcc/i686-w64-mingw32/4.8/../../../../i686-w64-mingw32/lib/../lib/libshell32.a(lib32_libshell32_a-shell32.o)
                0x000000000040dbfc                DIID_DShellExplorerEvents
 .rdata$DIID_DWebBrowserEvents
                0x000000000040dc0c       0x10 /usr/lib/gcc/i686-w64-mingw32/4.8/../../../../i686-w64-mingw32/lib/../lib/libuuid.a(lib32_libuuid_a-uuid.o)
                0x000000000040dc0c                DIID_DWebBrowserEvents
 .rdata$DIID_DWebBrowserEvents2
                0x000000000040dc1c       0x10 /usr/lib/gcc/i686-w64-mingw32/4.8/../../../../i686-w64-mingw32/lib/../lib/libuuid.a(lib32_libuuid_a-uuid.o)
                0x000000000040dc1c                DIID_DWebBrowserEvents2
 .rdata$EP_AdvQueryPane
                0x000000000040dc2c       0x10 /usr/lib/gcc/i686-w64-mingw32/4.8/../../../../i686-w64-mingw32/lib/../lib/libuuid.a(lib32_libuuid_a-uuid.o)
                0x000000000040dc2c                EP_AdvQueryPane
 .rdata$EP_Commands
                0x000000000040dc3c       0x10 /usr/lib/gcc/i686-w64-mingw32/4.8/../../../../i686-w64-mingw32/lib/../lib/libuuid.a(lib32_libuuid_a-uuid.o)
                0x000000000040dc3c                EP_Commands
 .rdata$EP_Commands_Organize
                0x000000000040dc4c       0x10 /usr/lib/gcc/i686-w64-mingw32/4.8/../../../../i686-w64-mingw32/lib/../lib/libuuid.a(lib32_libuuid_a-uuid.o)
                0x000000000040dc4c                EP_Commands_Organize
 .rdata$EP_Commands_View
                0x000000000040dc5c       0x10 /usr/lib/gcc/i686-w64-mingw32/4.8/../../../../i686-w64-mingw32/lib/../lib/libuuid.a(lib32_libuuid_a-uuid.o)
                0x000000000040dc5c                EP_Commands_View
 .rdata$EP_DetailsPane
                0x000000000040dc6c       0x10 /usr/lib/gcc/i686-w64-mingw32/4.8/../../../../i686-w64-mingw32/lib/../lib/libuuid.a(lib32_libuuid_a-uuid.o)
                0x000000000040dc6c                EP_DetailsPane
 .rdata$EP_NavPane
                0x000000000040dc7c       0x10 /usr/lib/gcc/i686-w64-mingw32/4.8/../../../../i686-w64-mingw32/lib/../lib/libuuid.a(lib32_libuuid_a-uuid.o)
                0x000000000040dc7c                EP_NavPane
 .rdata$EP_PreviewPane
                0x000000000040dc8c       0x10 /usr/lib/gcc/i686-w64-mingw32/4.8/../../../../i686-w64-mingw32/lib/../lib/libuuid.a(lib32_libuuid_a-uuid.o)
                0x000000000040dc8c                EP_PreviewPane
 .rdata$EP_QueryPane
                0x000000000040dc9c       0x10 /usr/lib/gcc/i686-w64-mingw32/4.8/../../../../i686-w64-mingw32/lib/../lib/libuuid.a(lib32_libuuid_a-uuid.o)
                0x000000000040dc9c                EP_QueryPane
 .rdata$EP_Ribbon
                0x000000000040dcac       0x10 /usr/lib/gcc/i686-w64-mingw32/4.8/../../../../i686-w64-mingw32/lib/../lib/libuuid.a(lib32_libuuid_a-uuid.o)
                0x000000000040dcac                EP_Ribbon
 .rdata$EP_StatusBar
                0x000000000040dcbc       0x10 /usr/lib/gcc/i686-w64-mingw32/4.8/../../../../i686-w64-mingw32/lib/../lib/libuuid.a(lib32_libuuid_a-uuid.o)
                0x000000000040dcbc                EP_StatusBar
 .rdata$FLAGID_Internet
                0x000000000040dccc       0x10 /usr/lib/gcc/i686-w64-mingw32/4.8/../../../../i686-w64-mingw32/lib/../lib/libuuid.a(lib32_libuuid_a-uuid.o)
                0x000000000040dccc                FLAGID_Internet
 .rdata$FMTID_Briefcase
                0x000000000040dcdc       0x10 /usr/lib/gcc/i686-w64-mingw32/4.8/../../../../i686-w64-mingw32/lib/../lib/libuuid.a(lib32_libuuid_a-uuid.o)
                0x000000000040dcdc                FMTID_Briefcase
 .rdata$FMTID_CustomImageProperties
                0x000000000040dcec       0x10 /usr/lib/gcc/i686-w64-mingw32/4.8/../../../../i686-w64-mingw32/lib/../lib/libuuid.a(lib32_libuuid_a-uuid.o)
                0x000000000040dcec                FMTID_CustomImageProperties
 .rdata$FMTID_DRM
                0x000000000040dcfc       0x10 /usr/lib/gcc/i686-w64-mingw32/4.8/../../../../i686-w64-mingw32/lib/../lib/libuuid.a(lib32_libuuid_a-uuid.o)
                0x000000000040dcfc                FMTID_DRM
 .rdata$FMTID_Displaced
                0x000000000040dd0c       0x10 /usr/lib/gcc/i686-w64-mingw32/4.8/../../../../i686-w64-mingw32/lib/../lib/libuuid.a(lib32_libuuid_a-uuid.o)
                0x000000000040dd0c                FMTID_Displaced
 .rdata$FMTID_DocSummaryInformation
                0x000000000040dd1c       0x10 /usr/lib/gcc/i686-w64-mingw32/4.8/../../../../i686-w64-mingw32/lib/../lib/libuuid.a(lib32_libuuid_a-uuid.o)
                0x000000000040dd1c                FMTID_DocSummaryInformation
 .rdata$FMTID_ImageProperties
                0x000000000040dd2c       0x10 /usr/lib/gcc/i686-w64-mingw32/4.8/../../../../i686-w64-mingw32/lib/../lib/libuuid.a(lib32_libuuid_a-uuid.o)
                0x000000000040dd2c                FMTID_ImageProperties
 .rdata$FMTID_InternetSite
                0x000000000040dd3c       0x10 /usr/lib/gcc/i686-w64-mingw32/4.8/../../../../i686-w64-mingw32/lib/../lib/libuuid.a(lib32_libuuid_a-uuid.o)
                0x000000000040dd3c                FMTID_InternetSite
 .rdata$FMTID_Intshcut
                0x000000000040dd4c       0x10 /usr/lib/gcc/i686-w64-mingw32/4.8/../../../../i686-w64-mingw32/lib/../lib/libuuid.a(lib32_libuuid_a-uuid.o)
                0x000000000040dd4c                FMTID_Intshcut
 .rdata$FMTID_LibraryProperties
                0x000000000040dd5c       0x10 /usr/lib/gcc/i686-w64-mingw32/4.8/../../../../i686-w64-mingw32/lib/../lib/libuuid.a(lib32_libuuid_a-uuid.o)
                0x000000000040dd5c                FMTID_LibraryProperties
 .rdata$FMTID_MUSIC
                0x000000000040dd6c       0x10 /usr/lib/gcc/i686-w64-mingw32/4.8/../../../../i686-w64-mingw32/lib/../lib/libuuid.a(lib32_libuuid_a-uuid.o)
                0x000000000040dd6c                FMTID_MUSIC
 .rdata$FMTID_Misc
                0x000000000040dd7c       0x10 /usr/lib/gcc/i686-w64-mingw32/4.8/../../../../i686-w64-mingw32/lib/../lib/libuuid.a(lib32_libuuid_a-uuid.o)
                0x000000000040dd7c                FMTID_Misc
 .rdata$FMTID_Query
                0x000000000040dd8c       0x10 /usr/lib/gcc/i686-w64-mingw32/4.8/../../../../i686-w64-mingw32/lib/../lib/libuuid.a(lib32_libuuid_a-uuid.o)
                0x000000000040dd8c                FMTID_Query
 .rdata$FMTID_ShellDetails
                0x000000000040dd9c       0x10 /usr/lib/gcc/i686-w64-mingw32/4.8/../../../../i686-w64-mingw32/lib/../lib/libuuid.a(lib32_libuuid_a-uuid.o)
                0x000000000040dd9c                FMTID_ShellDetails
 .rdata$FMTID_Storage
                0x000000000040ddac       0x10 /usr/lib/gcc/i686-w64-mingw32/4.8/../../../../i686-w64-mingw32/lib/../lib/libuuid.a(lib32_libuuid_a-uuid.o)
                0x000000000040ddac                FMTID_Storage
 .rdata$FMTID_SummaryInformation
                0x000000000040ddbc       0x10 /usr/lib/gcc/i686-w64-mingw32/4.8/../../../../i686-w64-mingw32/lib/../lib/libuuid.a(lib32_libuuid_a-uuid.o)
                0x000000000040ddbc                FMTID_SummaryInformation
 .rdata$FMTID_UserDefinedProperties
                0x000000000040ddcc       0x10 /usr/lib/gcc/i686-w64-mingw32/4.8/../../../../i686-w64-mingw32/lib/../lib/libuuid.a(lib32_libuuid_a-uuid.o)
                0x000000000040ddcc                FMTID_UserDefinedProperties
 .rdata$FMTID_Volume
                0x000000000040dddc       0x10 /usr/lib/gcc/i686-w64-mingw32/4.8/../../../../i686-w64-mingw32/lib/../lib/libuuid.a(lib32_libuuid_a-uuid.o)
                0x000000000040dddc                FMTID_Volume
 .rdata$FMTID_WebView
                0x000000000040ddec       0x10 /usr/lib/gcc/i686-w64-mingw32/4.8/../../../../i686-w64-mingw32/lib/../lib/libuuid.a(lib32_libuuid_a-uuid.o)
                0x000000000040ddec                FMTID_WebView
 .rdata$FOLDERID_AccountPictures
                0x000000000040ddfc       0x10 /usr/lib/gcc/i686-w64-mingw32/4.8/../../../../i686-w64-mingw32/lib/../lib/libuuid.a(lib32_libuuid_a-uuid.o)
                0x000000000040ddfc                FOLDERID_AccountPictures
 .rdata$FOLDERID_AddNewPrograms
                0x000000000040de0c       0x10 /usr/lib/gcc/i686-w64-mingw32/4.8/../../../../i686-w64-mingw32/lib/../lib/libuuid.a(lib32_libuuid_a-uuid.o)
                0x000000000040de0c                FOLDERID_AddNewPrograms
 .rdata$FOLDERID_AdminTools
                0x000000000040de1c       0x10 /usr/lib/gcc/i686-w64-mingw32/4.8/../../../../i686-w64-mingw32/lib/../lib/libuuid.a(lib32_libuuid_a-uuid.o)
                0x000000000040de1c                FOLDERID_AdminTools
 .rdata$FOLDERID_AppUpdates
                0x000000000040de2c       0x10 /usr/lib/gcc/i686-w64-mingw32/4.8/../../../../i686-w64-mingw32/lib/../lib/libuuid.a(lib32_libuuid_a-uuid.o)
                0x000000000040de2c                FOLDERID_AppUpdates
 .rdata$FOLDERID_ApplicationShortcuts
                0x000000000040de3c       0x10 /usr/lib/gcc/i686-w64-mingw32/4.8/../../../../i686-w64-mingw32/lib/../lib/libuuid.a(lib32_libuuid_a-uuid.o)
                0x000000000040de3c                FOLDERID_ApplicationShortcuts
 .rdata$FOLDERID_AppsFolder
                0x000000000040de4c       0x10 /usr/lib/gcc/i686-w64-mingw32/4.8/../../../../i686-w64-mingw32/lib/../lib/libuuid.a(lib32_libuuid_a-uuid.o)
                0x000000000040de4c                FOLDERID_AppsFolder
 .rdata$FOLDERID_CDBurning
                0x000000000040de5c       0x10 /usr/lib/gcc/i686-w64-mingw32/4.8/../../../../i686-w64-mingw32/lib/../lib/libuuid.a(lib32_libuuid_a-uuid.o)
                0x000000000040de5c                FOLDERID_CDBurning
 .rdata$FOLDERID_ChangeRemovePrograms
                0x000000000040de6c       0x10 /usr/lib/gcc/i686-w64-mingw32/4.8/../../../../i686-w64-mingw32/lib/../lib/libuuid.a(lib32_libuuid_a-uuid.o)
                0x000000000040de6c                FOLDERID_ChangeRemovePrograms
 .rdata$FOLDERID_CommonAdminTools
                0x000000000040de7c       0x10 /usr/lib/gcc/i686-w64-mingw32/4.8/../../../../i686-w64-mingw32/lib/../lib/libuuid.a(lib32_libuuid_a-uuid.o)
                0x000000000040de7c                FOLDERID_CommonAdminTools
 .rdata$FOLDERID_CommonOEMLinks
                0x000000000040de8c       0x10 /usr/lib/gcc/i686-w64-mingw32/4.8/../../../../i686-w64-mingw32/lib/../lib/libuuid.a(lib32_libuuid_a-uuid.o)
                0x000000000040de8c                FOLDERID_CommonOEMLinks
 .rdata$FOLDERID_CommonPrograms
                0x000000000040de9c       0x10 /usr/lib/gcc/i686-w64-mingw32/4.8/../../../../i686-w64-mingw32/lib/../lib/libuuid.a(lib32_libuuid_a-uuid.o)
                0x000000000040de9c                FOLDERID_CommonPrograms
 .rdata$FOLDERID_CommonStartMenu
                0x000000000040deac       0x10 /usr/lib/gcc/i686-w64-mingw32/4.8/../../../../i686-w64-mingw32/lib/../lib/libuuid.a(lib32_libuuid_a-uuid.o)
                0x000000000040deac                FOLDERID_CommonStartMenu
 .rdata$FOLDERID_CommonStartup
                0x000000000040debc       0x10 /usr/lib/gcc/i686-w64-mingw32/4.8/../../../../i686-w64-mingw32/lib/../lib/libuuid.a(lib32_libuuid_a-uuid.o)
                0x000000000040debc                FOLDERID_CommonStartup
 .rdata$FOLDERID_CommonTemplates
                0x000000000040decc       0x10 /usr/lib/gcc/i686-w64-mingw32/4.8/../../../../i686-w64-mingw32/lib/../lib/libuuid.a(lib32_libuuid_a-uuid.o)
                0x000000000040decc                FOLDERID_CommonTemplates
 .rdata$FOLDERID_ComputerFolder
                0x000000000040dedc       0x10 /usr/lib/gcc/i686-w64-mingw32/4.8/../../../../i686-w64-mingw32/lib/../lib/libuuid.a(lib32_libuuid_a-uuid.o)
                0x000000000040dedc                FOLDERID_ComputerFolder
 .rdata$FOLDERID_ConflictFolder
                0x000000000040deec       0x10 /usr/lib/gcc/i686-w64-mingw32/4.8/../../../../i686-w64-mingw32/lib/../lib/libuuid.a(lib32_libuuid_a-uuid.o)
                0x000000000040deec                FOLDERID_ConflictFolder
 .rdata$FOLDERID_ConnectionsFolder
                0x000000000040defc       0x10 /usr/lib/gcc/i686-w64-mingw32/4.8/../../../../i686-w64-mingw32/lib/../lib/libuuid.a(lib32_libuuid_a-uuid.o)
                0x000000000040defc                FOLDERID_ConnectionsFolder
 .rdata$FOLDERID_Contacts
                0x000000000040df0c       0x10 /usr/lib/gcc/i686-w64-mingw32/4.8/../../../../i686-w64-mingw32/lib/../lib/libuuid.a(lib32_libuuid_a-uuid.o)
                0x000000000040df0c                FOLDERID_Contacts
 .rdata$FOLDERID_ControlPanelFolder
                0x000000000040df1c       0x10 /usr/lib/gcc/i686-w64-mingw32/4.8/../../../../i686-w64-mingw32/lib/../lib/libuuid.a(lib32_libuuid_a-uuid.o)
                0x000000000040df1c                FOLDERID_ControlPanelFolder
 .rdata$FOLDERID_Cookies
                0x000000000040df2c       0x10 /usr/lib/gcc/i686-w64-mingw32/4.8/../../../../i686-w64-mingw32/lib/../lib/libuuid.a(lib32_libuuid_a-uuid.o)
                0x000000000040df2c                FOLDERID_Cookies
 .rdata$FOLDERID_Desktop
                0x000000000040df3c       0x10 /usr/lib/gcc/i686-w64-mingw32/4.8/../../../../i686-w64-mingw32/lib/../lib/libuuid.a(lib32_libuuid_a-uuid.o)
                0x000000000040df3c                FOLDERID_Desktop
 .rdata$FOLDERID_DeviceMetadataStore
                0x000000000040df4c       0x10 /usr/lib/gcc/i686-w64-mingw32/4.8/../../../../i686-w64-mingw32/lib/../lib/libuuid.a(lib32_libuuid_a-uuid.o)
                0x000000000040df4c                FOLDERID_DeviceMetadataStore
 .rdata$FOLDERID_Documents
                0x000000000040df5c       0x10 /usr/lib/gcc/i686-w64-mingw32/4.8/../../../../i686-w64-mingw32/lib/../lib/libuuid.a(lib32_libuuid_a-uuid.o)
                0x000000000040df5c                FOLDERID_Documents
 .rdata$FOLDERID_DocumentsLibrary
                0x000000000040df6c       0x10 /usr/lib/gcc/i686-w64-mingw32/4.8/../../../../i686-w64-mingw32/lib/../lib/libuuid.a(lib32_libuuid_a-uuid.o)
                0x000000000040df6c                FOLDERID_DocumentsLibrary
 .rdata$FOLDERID_Downloads
                0x000000000040df7c       0x10 /usr/lib/gcc/i686-w64-mingw32/4.8/../../../../i686-w64-mingw32/lib/../lib/libuuid.a(lib32_libuuid_a-uuid.o)
                0x000000000040df7c                FOLDERID_Downloads
 .rdata$FOLDERID_Favorites
                0x000000000040df8c       0x10 /usr/lib/gcc/i686-w64-mingw32/4.8/../../../../i686-w64-mingw32/lib/../lib/libuuid.a(lib32_libuuid_a-uuid.o)
                0x000000000040df8c                FOLDERID_Favorites
 .rdata$FOLDERID_Fonts
                0x000000000040df9c       0x10 /usr/lib/gcc/i686-w64-mingw32/4.8/../../../../i686-w64-mingw32/lib/../lib/libuuid.a(lib32_libuuid_a-uuid.o)
                0x000000000040df9c                FOLDERID_Fonts
 .rdata$FOLDERID_GameTasks
                0x000000000040dfac       0x10 /usr/lib/gcc/i686-w64-mingw32/4.8/../../../../i686-w64-mingw32/lib/../lib/libuuid.a(lib32_libuuid_a-uuid.o)
                0x000000000040dfac                FOLDERID_GameTasks
 .rdata$FOLDERID_Games
                0x000000000040dfbc       0x10 /usr/lib/gcc/i686-w64-mingw32/4.8/../../../../i686-w64-mingw32/lib/../lib/libuuid.a(lib32_libuuid_a-uuid.o)
                0x000000000040dfbc                FOLDERID_Games
 .rdata$FOLDERID_History
                0x000000000040dfcc       0x10 /usr/lib/gcc/i686-w64-mingw32/4.8/../../../../i686-w64-mingw32/lib/../lib/libuuid.a(lib32_libuuid_a-uuid.o)
                0x000000000040dfcc                FOLDERID_History
 .rdata$FOLDERID_HomeGroup
                0x000000000040dfdc       0x10 /usr/lib/gcc/i686-w64-mingw32/4.8/../../../../i686-w64-mingw32/lib/../lib/libuuid.a(lib32_libuuid_a-uuid.o)
                0x000000000040dfdc                FOLDERID_HomeGroup
 .rdata$FOLDERID_HomeGroupCurrentUser
                0x000000000040dfec       0x10 /usr/lib/gcc/i686-w64-mingw32/4.8/../../../../i686-w64-mingw32/lib/../lib/libuuid.a(lib32_libuuid_a-uuid.o)
                0x000000000040dfec                FOLDERID_HomeGroupCurrentUser
 .rdata$FOLDERID_ImplicitAppShortcuts
                0x000000000040dffc       0x10 /usr/lib/gcc/i686-w64-mingw32/4.8/../../../../i686-w64-mingw32/lib/../lib/libuuid.a(lib32_libuuid_a-uuid.o)
                0x000000000040dffc                FOLDERID_ImplicitAppShortcuts
 .rdata$FOLDERID_InternetCache
                0x000000000040e00c       0x10 /usr/lib/gcc/i686-w64-mingw32/4.8/../../../../i686-w64-mingw32/lib/../lib/libuuid.a(lib32_libuuid_a-uuid.o)
                0x000000000040e00c                FOLDERID_InternetCache
 .rdata$FOLDERID_InternetFolder
                0x000000000040e01c       0x10 /usr/lib/gcc/i686-w64-mingw32/4.8/../../../../i686-w64-mingw32/lib/../lib/libuuid.a(lib32_libuuid_a-uuid.o)
                0x000000000040e01c                FOLDERID_InternetFolder
 .rdata$FOLDERID_Libraries
                0x000000000040e02c       0x10 /usr/lib/gcc/i686-w64-mingw32/4.8/../../../../i686-w64-mingw32/lib/../lib/libuuid.a(lib32_libuuid_a-uuid.o)
                0x000000000040e02c                FOLDERID_Libraries
 .rdata$FOLDERID_Links
                0x000000000040e03c       0x10 /usr/lib/gcc/i686-w64-mingw32/4.8/../../../../i686-w64-mingw32/lib/../lib/libuuid.a(lib32_libuuid_a-uuid.o)
                0x000000000040e03c                FOLDERID_Links
 .rdata$FOLDERID_LocalAppData
                0x000000000040e04c       0x10 /usr/lib/gcc/i686-w64-mingw32/4.8/../../../../i686-w64-mingw32/lib/../lib/libuuid.a(lib32_libuuid_a-uuid.o)
                0x000000000040e04c                FOLDERID_LocalAppData
 .rdata$FOLDERID_LocalAppDataLow
                0x000000000040e05c       0x10 /usr/lib/gcc/i686-w64-mingw32/4.8/../../../../i686-w64-mingw32/lib/../lib/libuuid.a(lib32_libuuid_a-uuid.o)
                0x000000000040e05c                FOLDERID_LocalAppDataLow
 .rdata$FOLDERID_LocalizedResourcesDir
                0x000000000040e06c       0x10 /usr/lib/gcc/i686-w64-mingw32/4.8/../../../../i686-w64-mingw32/lib/../lib/libuuid.a(lib32_libuuid_a-uuid.o)
                0x000000000040e06c                FOLDERID_LocalizedResourcesDir
 .rdata$FOLDERID_Music
                0x000000000040e07c       0x10 /usr/lib/gcc/i686-w64-mingw32/4.8/../../../../i686-w64-mingw32/lib/../lib/libuuid.a(lib32_libuuid_a-uuid.o)
                0x000000000040e07c                FOLDERID_Music
 .rdata$FOLDERID_MusicLibrary
                0x000000000040e08c       0x10 /usr/lib/gcc/i686-w64-mingw32/4.8/../../../../i686-w64-mingw32/lib/../lib/libuuid.a(lib32_libuuid_a-uuid.o)
                0x000000000040e08c                FOLDERID_MusicLibrary
 .rdata$FOLDERID_NetHood
                0x000000000040e09c       0x10 /usr/lib/gcc/i686-w64-mingw32/4.8/../../../../i686-w64-mingw32/lib/../lib/libuuid.a(lib32_libuuid_a-uuid.o)
                0x000000000040e09c                FOLDERID_NetHood
 .rdata$FOLDERID_NetworkFolder
                0x000000000040e0ac       0x10 /usr/lib/gcc/i686-w64-mingw32/4.8/../../../../i686-w64-mingw32/lib/../lib/libuuid.a(lib32_libuuid_a-uuid.o)
                0x000000000040e0ac                FOLDERID_NetworkFolder
 .rdata$FOLDERID_OriginalImages
                0x000000000040e0bc       0x10 /usr/lib/gcc/i686-w64-mingw32/4.8/../../../../i686-w64-mingw32/lib/../lib/libuuid.a(lib32_libuuid_a-uuid.o)
                0x000000000040e0bc                FOLDERID_OriginalImages
 .rdata$FOLDERID_PhotoAlbums
                0x000000000040e0cc       0x10 /usr/lib/gcc/i686-w64-mingw32/4.8/../../../../i686-w64-mingw32/lib/../lib/libuuid.a(lib32_libuuid_a-uuid.o)
                0x000000000040e0cc                FOLDERID_PhotoAlbums
 .rdata$FOLDERID_Pictures
                0x000000000040e0dc       0x10 /usr/lib/gcc/i686-w64-mingw32/4.8/../../../../i686-w64-mingw32/lib/../lib/libuuid.a(lib32_libuuid_a-uuid.o)
                0x000000000040e0dc                FOLDERID_Pictures
 .rdata$FOLDERID_PicturesLibrary
                0x000000000040e0ec       0x10 /usr/lib/gcc/i686-w64-mingw32/4.8/../../../../i686-w64-mingw32/lib/../lib/libuuid.a(lib32_libuuid_a-uuid.o)
                0x000000000040e0ec                FOLDERID_PicturesLibrary
 .rdata$FOLDERID_Playlists
                0x000000000040e0fc       0x10 /usr/lib/gcc/i686-w64-mingw32/4.8/../../../../i686-w64-mingw32/lib/../lib/libuuid.a(lib32_libuuid_a-uuid.o)
                0x000000000040e0fc                FOLDERID_Playlists
 .rdata$FOLDERID_PrintHood
                0x000000000040e10c       0x10 /usr/lib/gcc/i686-w64-mingw32/4.8/../../../../i686-w64-mingw32/lib/../lib/libuuid.a(lib32_libuuid_a-uuid.o)
                0x000000000040e10c                FOLDERID_PrintHood
 .rdata$FOLDERID_PrintersFolder
                0x000000000040e11c       0x10 /usr/lib/gcc/i686-w64-mingw32/4.8/../../../../i686-w64-mingw32/lib/../lib/libuuid.a(lib32_libuuid_a-uuid.o)
                0x000000000040e11c                FOLDERID_PrintersFolder
 .rdata$FOLDERID_Profile
                0x000000000040e12c       0x10 /usr/lib/gcc/i686-w64-mingw32/4.8/../../../../i686-w64-mingw32/lib/../lib/libuuid.a(lib32_libuuid_a-uuid.o)
                0x000000000040e12c                FOLDERID_Profile
 .rdata$FOLDERID_ProgramData
                0x000000000040e13c       0x10 /usr/lib/gcc/i686-w64-mingw32/4.8/../../../../i686-w64-mingw32/lib/../lib/libuuid.a(lib32_libuuid_a-uuid.o)
                0x000000000040e13c                FOLDERID_ProgramData
 .rdata$FOLDERID_ProgramFiles
                0x000000000040e14c       0x10 /usr/lib/gcc/i686-w64-mingw32/4.8/../../../../i686-w64-mingw32/lib/../lib/libuuid.a(lib32_libuuid_a-uuid.o)
                0x000000000040e14c                FOLDERID_ProgramFiles
 .rdata$FOLDERID_ProgramFilesCommon
                0x000000000040e15c       0x10 /usr/lib/gcc/i686-w64-mingw32/4.8/../../../../i686-w64-mingw32/lib/../lib/libuuid.a(lib32_libuuid_a-uuid.o)
                0x000000000040e15c                FOLDERID_ProgramFilesCommon
 .rdata$FOLDERID_ProgramFilesCommonX64
                0x000000000040e16c       0x10 /usr/lib/gcc/i686-w64-mingw32/4.8/../../../../i686-w64-mingw32/lib/../lib/libuuid.a(lib32_libuuid_a-uuid.o)
                0x000000000040e16c                FOLDERID_ProgramFilesCommonX64
 .rdata$FOLDERID_ProgramFilesCommonX86
                0x000000000040e17c       0x10 /usr/lib/gcc/i686-w64-mingw32/4.8/../../../../i686-w64-mingw32/lib/../lib/libuuid.a(lib32_libuuid_a-uuid.o)
                0x000000000040e17c                FOLDERID_ProgramFilesCommonX86
 .rdata$FOLDERID_ProgramFilesX64
                0x000000000040e18c       0x10 /usr/lib/gcc/i686-w64-mingw32/4.8/../../../../i686-w64-mingw32/lib/../lib/libuuid.a(lib32_libuuid_a-uuid.o)
                0x000000000040e18c                FOLDERID_ProgramFilesX64
 .rdata$FOLDERID_ProgramFilesX86
                0x000000000040e19c       0x10 /usr/lib/gcc/i686-w64-mingw32/4.8/../../../../i686-w64-mingw32/lib/../lib/libuuid.a(lib32_libuuid_a-uuid.o)
                0x000000000040e19c                FOLDERID_ProgramFilesX86
 .rdata$FOLDERID_Programs
                0x000000000040e1ac       0x10 /usr/lib/gcc/i686-w64-mingw32/4.8/../../../../i686-w64-mingw32/lib/../lib/libuuid.a(lib32_libuuid_a-uuid.o)
                0x000000000040e1ac                FOLDERID_Programs
 .rdata$FOLDERID_Public
                0x000000000040e1bc       0x10 /usr/lib/gcc/i686-w64-mingw32/4.8/../../../../i686-w64-mingw32/lib/../lib/libuuid.a(lib32_libuuid_a-uuid.o)
                0x000000000040e1bc                FOLDERID_Public
 .rdata$FOLDERID_PublicDesktop
                0x000000000040e1cc       0x10 /usr/lib/gcc/i686-w64-mingw32/4.8/../../../../i686-w64-mingw32/lib/../lib/libuuid.a(lib32_libuuid_a-uuid.o)
                0x000000000040e1cc                FOLDERID_PublicDesktop
 .rdata$FOLDERID_PublicDocuments
                0x000000000040e1dc       0x10 /usr/lib/gcc/i686-w64-mingw32/4.8/../../../../i686-w64-mingw32/lib/../lib/libuuid.a(lib32_libuuid_a-uuid.o)
                0x000000000040e1dc                FOLDERID_PublicDocuments
 .rdata$FOLDERID_PublicDownloads
                0x000000000040e1ec       0x10 /usr/lib/gcc/i686-w64-mingw32/4.8/../../../../i686-w64-mingw32/lib/../lib/libuuid.a(lib32_libuuid_a-uuid.o)
                0x000000000040e1ec                FOLDERID_PublicDownloads
 .rdata$FOLDERID_PublicGameTasks
                0x000000000040e1fc       0x10 /usr/lib/gcc/i686-w64-mingw32/4.8/../../../../i686-w64-mingw32/lib/../lib/libuuid.a(lib32_libuuid_a-uuid.o)
                0x000000000040e1fc                FOLDERID_PublicGameTasks
 .rdata$FOLDERID_PublicLibraries
                0x000000000040e20c       0x10 /usr/lib/gcc/i686-w64-mingw32/4.8/../../../../i686-w64-mingw32/lib/../lib/libuuid.a(lib32_libuuid_a-uuid.o)
                0x000000000040e20c                FOLDERID_PublicLibraries
 .rdata$FOLDERID_PublicMusic
                0x000000000040e21c       0x10 /usr/lib/gcc/i686-w64-mingw32/4.8/../../../../i686-w64-mingw32/lib/../lib/libuuid.a(lib32_libuuid_a-uuid.o)
                0x000000000040e21c                FOLDERID_PublicMusic
 .rdata$FOLDERID_PublicPictures
                0x000000000040e22c       0x10 /usr/lib/gcc/i686-w64-mingw32/4.8/../../../../i686-w64-mingw32/lib/../lib/libuuid.a(lib32_libuuid_a-uuid.o)
                0x000000000040e22c                FOLDERID_PublicPictures
 .rdata$FOLDERID_PublicRingtones
                0x000000000040e23c       0x10 /usr/lib/gcc/i686-w64-mingw32/4.8/../../../../i686-w64-mingw32/lib/../lib/libuuid.a(lib32_libuuid_a-uuid.o)
                0x000000000040e23c                FOLDERID_PublicRingtones
 .rdata$FOLDERID_PublicUserTiles
                0x000000000040e24c       0x10 /usr/lib/gcc/i686-w64-mingw32/4.8/../../../../i686-w64-mingw32/lib/../lib/libuuid.a(lib32_libuuid_a-uuid.o)
                0x000000000040e24c                FOLDERID_PublicUserTiles
 .rdata$FOLDERID_PublicVideos
                0x000000000040e25c       0x10 /usr/lib/gcc/i686-w64-mingw32/4.8/../../../../i686-w64-mingw32/lib/../lib/libuuid.a(lib32_libuuid_a-uuid.o)
                0x000000000040e25c                FOLDERID_PublicVideos
 .rdata$FOLDERID_QuickLaunch
                0x000000000040e26c       0x10 /usr/lib/gcc/i686-w64-mingw32/4.8/../../../../i686-w64-mingw32/lib/../lib/libuuid.a(lib32_libuuid_a-uuid.o)
                0x000000000040e26c                FOLDERID_QuickLaunch
 .rdata$FOLDERID_Recent
                0x000000000040e27c       0x10 /usr/lib/gcc/i686-w64-mingw32/4.8/../../../../i686-w64-mingw32/lib/../lib/libuuid.a(lib32_libuuid_a-uuid.o)
                0x000000000040e27c                FOLDERID_Recent
 .rdata$FOLDERID_RecordedTVLibrary
                0x000000000040e28c       0x10 /usr/lib/gcc/i686-w64-mingw32/4.8/../../../../i686-w64-mingw32/lib/../lib/libuuid.a(lib32_libuuid_a-uuid.o)
                0x000000000040e28c                FOLDERID_RecordedTVLibrary
 .rdata$FOLDERID_RecycleBinFolder
                0x000000000040e29c       0x10 /usr/lib/gcc/i686-w64-mingw32/4.8/../../../../i686-w64-mingw32/lib/../lib/libuuid.a(lib32_libuuid_a-uuid.o)
                0x000000000040e29c                FOLDERID_RecycleBinFolder
 .rdata$FOLDERID_ResourceDir
                0x000000000040e2ac       0x10 /usr/lib/gcc/i686-w64-mingw32/4.8/../../../../i686-w64-mingw32/lib/../lib/libuuid.a(lib32_libuuid_a-uuid.o)
                0x000000000040e2ac                FOLDERID_ResourceDir
 .rdata$FOLDERID_Ringtones
                0x000000000040e2bc       0x10 /usr/lib/gcc/i686-w64-mingw32/4.8/../../../../i686-w64-mingw32/lib/../lib/libuuid.a(lib32_libuuid_a-uuid.o)
                0x000000000040e2bc                FOLDERID_Ringtones
 .rdata$FOLDERID_RoamedTileImages
                0x000000000040e2cc       0x10 /usr/lib/gcc/i686-w64-mingw32/4.8/../../../../i686-w64-mingw32/lib/../lib/libuuid.a(lib32_libuuid_a-uuid.o)
                0x000000000040e2cc                FOLDERID_RoamedTileImages
 .rdata$FOLDERID_RoamingAppData
                0x000000000040e2dc       0x10 /usr/lib/gcc/i686-w64-mingw32/4.8/../../../../i686-w64-mingw32/lib/../lib/libuuid.a(lib32_libuuid_a-uuid.o)
                0x000000000040e2dc                FOLDERID_RoamingAppData
 .rdata$FOLDERID_RoamingTiles
                0x000000000040e2ec       0x10 /usr/lib/gcc/i686-w64-mingw32/4.8/../../../../i686-w64-mingw32/lib/../lib/libuuid.a(lib32_libuuid_a-uuid.o)
                0x000000000040e2ec                FOLDERID_RoamingTiles
 .rdata$FOLDERID_SEARCH_CSC
                0x000000000040e2fc       0x10 /usr/lib/gcc/i686-w64-mingw32/4.8/../../../../i686-w64-mingw32/lib/../lib/libuuid.a(lib32_libuuid_a-uuid.o)
                0x000000000040e2fc                FOLDERID_SEARCH_CSC
 .rdata$FOLDERID_SEARCH_MAPI
                0x000000000040e30c       0x10 /usr/lib/gcc/i686-w64-mingw32/4.8/../../../../i686-w64-mingw32/lib/../lib/libuuid.a(lib32_libuuid_a-uuid.o)
                0x000000000040e30c                FOLDERID_SEARCH_MAPI
 .rdata$FOLDERID_SampleMusic
                0x000000000040e31c       0x10 /usr/lib/gcc/i686-w64-mingw32/4.8/../../../../i686-w64-mingw32/lib/../lib/libuuid.a(lib32_libuuid_a-uuid.o)
                0x000000000040e31c                FOLDERID_SampleMusic
 .rdata$FOLDERID_SamplePictures
                0x000000000040e32c       0x10 /usr/lib/gcc/i686-w64-mingw32/4.8/../../../../i686-w64-mingw32/lib/../lib/libuuid.a(lib32_libuuid_a-uuid.o)
                0x000000000040e32c                FOLDERID_SamplePictures
 .rdata$FOLDERID_SamplePlaylists
                0x000000000040e33c       0x10 /usr/lib/gcc/i686-w64-mingw32/4.8/../../../../i686-w64-mingw32/lib/../lib/libuuid.a(lib32_libuuid_a-uuid.o)
                0x000000000040e33c                FOLDERID_SamplePlaylists
 .rdata$FOLDERID_SampleVideos
                0x000000000040e34c       0x10 /usr/lib/gcc/i686-w64-mingw32/4.8/../../../../i686-w64-mingw32/lib/../lib/libuuid.a(lib32_libuuid_a-uuid.o)
                0x000000000040e34c                FOLDERID_SampleVideos
 .rdata$FOLDERID_SavedGames
                0x000000000040e35c       0x10 /usr/lib/gcc/i686-w64-mingw32/4.8/../../../../i686-w64-mingw32/lib/../lib/libuuid.a(lib32_libuuid_a-uuid.o)
                0x000000000040e35c                FOLDERID_SavedGames
 .rdata$FOLDERID_SavedSearches
                0x000000000040e36c       0x10 /usr/lib/gcc/i686-w64-mingw32/4.8/../../../../i686-w64-mingw32/lib/../lib/libuuid.a(lib32_libuuid_a-uuid.o)
                0x000000000040e36c                FOLDERID_SavedSearches
 .rdata$FOLDERID_Screenshots
                0x000000000040e37c       0x10 /usr/lib/gcc/i686-w64-mingw32/4.8/../../../../i686-w64-mingw32/lib/../lib/libuuid.a(lib32_libuuid_a-uuid.o)
                0x000000000040e37c                FOLDERID_Screenshots
 .rdata$FOLDERID_SearchHome
                0x000000000040e38c       0x10 /usr/lib/gcc/i686-w64-mingw32/4.8/../../../../i686-w64-mingw32/lib/../lib/libuuid.a(lib32_libuuid_a-uuid.o)
                0x000000000040e38c                FOLDERID_SearchHome
 .rdata$FOLDERID_SendTo
                0x000000000040e39c       0x10 /usr/lib/gcc/i686-w64-mingw32/4.8/../../../../i686-w64-mingw32/lib/../lib/libuuid.a(lib32_libuuid_a-uuid.o)
                0x000000000040e39c                FOLDERID_SendTo
 .rdata$FOLDERID_SidebarDefaultParts
                0x000000000040e3ac       0x10 /usr/lib/gcc/i686-w64-mingw32/4.8/../../../../i686-w64-mingw32/lib/../lib/libuuid.a(lib32_libuuid_a-uuid.o)
                0x000000000040e3ac                FOLDERID_SidebarDefaultParts
 .rdata$FOLDERID_SidebarParts
                0x000000000040e3bc       0x10 /usr/lib/gcc/i686-w64-mingw32/4.8/../../../../i686-w64-mingw32/lib/../lib/libuuid.a(lib32_libuuid_a-uuid.o)
                0x000000000040e3bc                FOLDERID_SidebarParts
 .rdata$FOLDERID_StartMenu
                0x000000000040e3cc       0x10 /usr/lib/gcc/i686-w64-mingw32/4.8/../../../../i686-w64-mingw32/lib/../lib/libuuid.a(lib32_libuuid_a-uuid.o)
                0x000000000040e3cc                FOLDERID_StartMenu
 .rdata$FOLDERID_Startup
                0x000000000040e3dc       0x10 /usr/lib/gcc/i686-w64-mingw32/4.8/../../../../i686-w64-mingw32/lib/../lib/libuuid.a(lib32_libuuid_a-uuid.o)
                0x000000000040e3dc                FOLDERID_Startup
 .rdata$FOLDERID_SyncManagerFolder
                0x000000000040e3ec       0x10 /usr/lib/gcc/i686-w64-mingw32/4.8/../../../../i686-w64-mingw32/lib/../lib/libuuid.a(lib32_libuuid_a-uuid.o)
                0x000000000040e3ec                FOLDERID_SyncManagerFolder
 .rdata$FOLDERID_SyncResultsFolder
                0x000000000040e3fc       0x10 /usr/lib/gcc/i686-w64-mingw32/4.8/../../../../i686-w64-mingw32/lib/../lib/libuuid.a(lib32_libuuid_a-uuid.o)
                0x000000000040e3fc                FOLDERID_SyncResultsFolder
 .rdata$FOLDERID_SyncSetupFolder
                0x000000000040e40c       0x10 /usr/lib/gcc/i686-w64-mingw32/4.8/../../../../i686-w64-mingw32/lib/../lib/libuuid.a(lib32_libuuid_a-uuid.o)
                0x000000000040e40c                FOLDERID_SyncSetupFolder
 .rdata$FOLDERID_System
                0x000000000040e41c       0x10 /usr/lib/gcc/i686-w64-mingw32/4.8/../../../../i686-w64-mingw32/lib/../lib/libuuid.a(lib32_libuuid_a-uuid.o)
                0x000000000040e41c                FOLDERID_System
 .rdata$FOLDERID_SystemX86
                0x000000000040e42c       0x10 /usr/lib/gcc/i686-w64-mingw32/4.8/../../../../i686-w64-mingw32/lib/../lib/libuuid.a(lib32_libuuid_a-uuid.o)
                0x000000000040e42c                FOLDERID_SystemX86
 .rdata$FOLDERID_Templates
                0x000000000040e43c       0x10 /usr/lib/gcc/i686-w64-mingw32/4.8/../../../../i686-w64-mingw32/lib/../lib/libuuid.a(lib32_libuuid_a-uuid.o)
                0x000000000040e43c                FOLDERID_Templates
 .rdata$FOLDERID_UserPinned
                0x000000000040e44c       0x10 /usr/lib/gcc/i686-w64-mingw32/4.8/../../../../i686-w64-mingw32/lib/../lib/libuuid.a(lib32_libuuid_a-uuid.o)
                0x000000000040e44c                FOLDERID_UserPinned
 .rdata$FOLDERID_UserProfiles
                0x000000000040e45c       0x10 /usr/lib/gcc/i686-w64-mingw32/4.8/../../../../i686-w64-mingw32/lib/../lib/libuuid.a(lib32_libuuid_a-uuid.o)
                0x000000000040e45c                FOLDERID_UserProfiles
 .rdata$FOLDERID_UserProgramFiles
                0x000000000040e46c       0x10 /usr/lib/gcc/i686-w64-mingw32/4.8/../../../../i686-w64-mingw32/lib/../lib/libuuid.a(lib32_libuuid_a-uuid.o)
                0x000000000040e46c                FOLDERID_UserProgramFiles
 .rdata$FOLDERID_UserProgramFilesCommon
                0x000000000040e47c       0x10 /usr/lib/gcc/i686-w64-mingw32/4.8/../../../../i686-w64-mingw32/lib/../lib/libuuid.a(lib32_libuuid_a-uuid.o)
                0x000000000040e47c                FOLDERID_UserProgramFilesCommon
 .rdata$FOLDERID_UsersFiles
                0x000000000040e48c       0x10 /usr/lib/gcc/i686-w64-mingw32/4.8/../../../../i686-w64-mingw32/lib/../lib/libuuid.a(lib32_libuuid_a-uuid.o)
                0x000000000040e48c                FOLDERID_UsersFiles
 .rdata$FOLDERID_UsersLibraries
                0x000000000040e49c       0x10 /usr/lib/gcc/i686-w64-mingw32/4.8/../../../../i686-w64-mingw32/lib/../lib/libuuid.a(lib32_libuuid_a-uuid.o)
                0x000000000040e49c                FOLDERID_UsersLibraries
 .rdata$FOLDERID_Videos
                0x000000000040e4ac       0x10 /usr/lib/gcc/i686-w64-mingw32/4.8/../../../../i686-w64-mingw32/lib/../lib/libuuid.a(lib32_libuuid_a-uuid.o)
                0x000000000040e4ac                FOLDERID_Videos
 .rdata$FOLDERID_VideosLibrary
                0x000000000040e4bc       0x10 /usr/lib/gcc/i686-w64-mingw32/4.8/../../../../i686-w64-mingw32/lib/../lib/libuuid.a(lib32_libuuid_a-uuid.o)
                0x000000000040e4bc                FOLDERID_VideosLibrary
 .rdata$FOLDERID_Windows
                0x000000000040e4cc       0x10 /usr/lib/gcc/i686-w64-mingw32/4.8/../../../../i686-w64-mingw32/lib/../lib/libuuid.a(lib32_libuuid_a-uuid.o)
                0x000000000040e4cc                FOLDERID_Windows
 .rdata$FOLDERTYPEID_AccountPictures
                0x000000000040e4dc       0x10 /usr/lib/gcc/i686-w64-mingw32/4.8/../../../../i686-w64-mingw32/lib/../lib/libuuid.a(lib32_libuuid_a-uuid.o)
                0x000000000040e4dc                FOLDERTYPEID_AccountPictures
 .rdata$FOLDERTYPEID_Communications
                0x000000000040e4ec       0x10 /usr/lib/gcc/i686-w64-mingw32/4.8/../../../../i686-w64-mingw32/lib/../lib/libuuid.a(lib32_libuuid_a-uuid.o)
                0x000000000040e4ec                FOLDERTYPEID_Communications
 .rdata$FOLDERTYPEID_CompressedFolder
                0x000000000040e4fc       0x10 /usr/lib/gcc/i686-w64-mingw32/4.8/../../../../i686-w64-mingw32/lib/../lib/libuuid.a(lib32_libuuid_a-uuid.o)
                0x000000000040e4fc                FOLDERTYPEID_CompressedFolder
 .rdata$FOLDERTYPEID_Contacts
                0x000000000040e50c       0x10 /usr/lib/gcc/i686-w64-mingw32/4.8/../../../../i686-w64-mingw32/lib/../lib/libuuid.a(lib32_libuuid_a-uuid.o)
                0x000000000040e50c                FOLDERTYPEID_Contacts
 .rdata$FOLDERTYPEID_ControlPanelCategory
                0x000000000040e51c       0x10 /usr/lib/gcc/i686-w64-mingw32/4.8/../../../../i686-w64-mingw32/lib/../lib/libuuid.a(lib32_libuuid_a-uuid.o)
                0x000000000040e51c                FOLDERTYPEID_ControlPanelCategory
 .rdata$FOLDERTYPEID_ControlPanelClassic
                0x000000000040e52c       0x10 /usr/lib/gcc/i686-w64-mingw32/4.8/../../../../i686-w64-mingw32/lib/../lib/libuuid.a(lib32_libuuid_a-uuid.o)
                0x000000000040e52c                FOLDERTYPEID_ControlPanelClassic
 .rdata$FOLDERTYPEID_Documents
                0x000000000040e53c       0x10 /usr/lib/gcc/i686-w64-mingw32/4.8/../../../../i686-w64-mingw32/lib/../lib/libuuid.a(lib32_libuuid_a-uuid.o)
                0x000000000040e53c                FOLDERTYPEID_Documents
 .rdata$FOLDERTYPEID_Games
                0x000000000040e54c       0x10 /usr/lib/gcc/i686-w64-mingw32/4.8/../../../../i686-w64-mingw32/lib/../lib/libuuid.a(lib32_libuuid_a-uuid.o)
                0x000000000040e54c                FOLDERTYPEID_Games
 .rdata$FOLDERTYPEID_Generic
                0x000000000040e55c       0x10 /usr/lib/gcc/i686-w64-mingw32/4.8/../../../../i686-w64-mingw32/lib/../lib/libuuid.a(lib32_libuuid_a-uuid.o)
                0x000000000040e55c                FOLDERTYPEID_Generic
 .rdata$FOLDERTYPEID_GenericLibrary
                0x000000000040e56c       0x10 /usr/lib/gcc/i686-w64-mingw32/4.8/../../../../i686-w64-mingw32/lib/../lib/libuuid.a(lib32_libuuid_a-uuid.o)
                0x000000000040e56c                FOLDERTYPEID_GenericLibrary
 .rdata$FOLDERTYPEID_GenericSearchResults
                0x000000000040e57c       0x10 /usr/lib/gcc/i686-w64-mingw32/4.8/../../../../i686-w64-mingw32/lib/../lib/libuuid.a(lib32_libuuid_a-uuid.o)
                0x000000000040e57c                FOLDERTYPEID_GenericSearchResults
 .rdata$FOLDERTYPEID_Invalid
                0x000000000040e58c       0x10 /usr/lib/gcc/i686-w64-mingw32/4.8/../../../../i686-w64-mingw32/lib/../lib/libuuid.a(lib32_libuuid_a-uuid.o)
                0x000000000040e58c                FOLDERTYPEID_Invalid
 .rdata$FOLDERTYPEID_Music
                0x000000000040e59c       0x10 /usr/lib/gcc/i686-w64-mingw32/4.8/../../../../i686-w64-mingw32/lib/../lib/libuuid.a(lib32_libuuid_a-uuid.o)
                0x000000000040e59c                FOLDERTYPEID_Music
 .rdata$FOLDERTYPEID_NetworkExplorer
                0x000000000040e5ac       0x10 /usr/lib/gcc/i686-w64-mingw32/4.8/../../../../i686-w64-mingw32/lib/../lib/libuuid.a(lib32_libuuid_a-uuid.o)
                0x000000000040e5ac                FOLDERTYPEID_NetworkExplorer
 .rdata$FOLDERTYPEID_OpenSearch
                0x000000000040e5bc       0x10 /usr/lib/gcc/i686-w64-mingw32/4.8/../../../../i686-w64-mingw32/lib/../lib/libuuid.a(lib32_libuuid_a-uuid.o)
                0x000000000040e5bc                FOLDERTYPEID_OpenSearch
 .rdata$FOLDERTYPEID_OtherUsers
                0x000000000040e5cc       0x10 /usr/lib/gcc/i686-w64-mingw32/4.8/../../../../i686-w64-mingw32/lib/../lib/libuuid.a(lib32_libuuid_a-uuid.o)
                0x000000000040e5cc                FOLDERTYPEID_OtherUsers
 .rdata$FOLDERTYPEID_Pictures
                0x000000000040e5dc       0x10 /usr/lib/gcc/i686-w64-mingw32/4.8/../../../../i686-w64-mingw32/lib/../lib/libuuid.a(lib32_libuuid_a-uuid.o)
                0x000000000040e5dc                FOLDERTYPEID_Pictures
 .rdata$FOLDERTYPEID_Printers
                0x000000000040e5ec       0x10 /usr/lib/gcc/i686-w64-mingw32/4.8/../../../../i686-w64-mingw32/lib/../lib/libuuid.a(lib32_libuuid_a-uuid.o)
                0x000000000040e5ec                FOLDERTYPEID_Printers
 .rdata$FOLDERTYPEID_PublishedItems
                0x000000000040e5fc       0x10 /usr/lib/gcc/i686-w64-mingw32/4.8/../../../../i686-w64-mingw32/lib/../lib/libuuid.a(lib32_libuuid_a-uuid.o)
                0x000000000040e5fc                FOLDERTYPEID_PublishedItems
 .rdata$FOLDERTYPEID_RecordedTV
                0x000000000040e60c       0x10 /usr/lib/gcc/i686-w64-mingw32/4.8/../../../../i686-w64-mingw32/lib/../lib/libuuid.a(lib32_libuuid_a-uuid.o)
                0x000000000040e60c                FOLDERTYPEID_RecordedTV
 .rdata$FOLDERTYPEID_RecycleBin
                0x000000000040e61c       0x10 /usr/lib/gcc/i686-w64-mingw32/4.8/../../../../i686-w64-mingw32/lib/../lib/libuuid.a(lib32_libuuid_a-uuid.o)
                0x000000000040e61c                FOLDERTYPEID_RecycleBin
 .rdata$FOLDERTYPEID_SavedGames
                0x000000000040e62c       0x10 /usr/lib/gcc/i686-w64-mingw32/4.8/../../../../i686-w64-mingw32/lib/../lib/libuuid.a(lib32_libuuid_a-uuid.o)
                0x000000000040e62c                FOLDERTYPEID_SavedGames
 .rdata$FOLDERTYPEID_SearchConnector
                0x000000000040e63c       0x10 /usr/lib/gcc/i686-w64-mingw32/4.8/../../../../i686-w64-mingw32/lib/../lib/libuuid.a(lib32_libuuid_a-uuid.o)
                0x000000000040e63c                FOLDERTYPEID_SearchConnector
 .rdata$FOLDERTYPEID_SearchHome
                0x000000000040e64c       0x10 /usr/lib/gcc/i686-w64-mingw32/4.8/../../../../i686-w64-mingw32/lib/../lib/libuuid.a(lib32_libuuid_a-uuid.o)
                0x000000000040e64c                FOLDERTYPEID_SearchHome
 .rdata$FOLDERTYPEID_Searches
                0x000000000040e65c       0x10 /usr/lib/gcc/i686-w64-mingw32/4.8/../../../../i686-w64-mingw32/lib/../lib/libuuid.a(lib32_libuuid_a-uuid.o)
                0x000000000040e65c                FOLDERTYPEID_Searches
 .rdata$FOLDERTYPEID_SoftwareExplorer
                0x000000000040e66c       0x10 /usr/lib/gcc/i686-w64-mingw32/4.8/../../../../i686-w64-mingw32/lib/../lib/libuuid.a(lib32_libuuid_a-uuid.o)
                0x000000000040e66c                FOLDERTYPEID_SoftwareExplorer
 .rdata$FOLDERTYPEID_StartMenu
                0x000000000040e67c       0x10 /usr/lib/gcc/i686-w64-mingw32/4.8/../../../../i686-w64-mingw32/lib/../lib/libuuid.a(lib32_libuuid_a-uuid.o)
                0x000000000040e67c                FOLDERTYPEID_StartMenu
 .rdata$FOLDERTYPEID_UserFiles
                0x000000000040e68c       0x10 /usr/lib/gcc/i686-w64-mingw32/4.8/../../../../i686-w64-mingw32/lib/../lib/libuuid.a(lib32_libuuid_a-uuid.o)
                0x000000000040e68c                FOLDERTYPEID_UserFiles
 .rdata$FOLDERTYPEID_UsersLibraries
                0x000000000040e69c       0x10 /usr/lib/gcc/i686-w64-mingw32/4.8/../../../../i686-w64-mingw32/lib/../lib/libuuid.a(lib32_libuuid_a-uuid.o)
                0x000000000040e69c                FOLDERTYPEID_UsersLibraries
 .rdata$FOLDERTYPEID_Videos
                0x000000000040e6ac       0x10 /usr/lib/gcc/i686-w64-mingw32/4.8/../../../../i686-w64-mingw32/lib/../lib/libuuid.a(lib32_libuuid_a-uuid.o)
                0x000000000040e6ac                FOLDERTYPEID_Videos
 .rdata$GUID_ACDC_POWER_SOURCE
                0x000000000040e6bc       0x10 /usr/lib/gcc/i686-w64-mingw32/4.8/../../../../i686-w64-mingw32/lib/../lib/libuuid.a(lib32_libuuid_a-uuid.o)
                0x000000000040e6bc                GUID_ACDC_POWER_SOURCE
 .rdata$GUID_ACTIVE_POWERSCHEME
                0x000000000040e6cc       0x10 /usr/lib/gcc/i686-w64-mingw32/4.8/../../../../i686-w64-mingw32/lib/../lib/libuuid.a(lib32_libuuid_a-uuid.o)
                0x000000000040e6cc                GUID_ACTIVE_POWERSCHEME
 .rdata$GUID_ADAPTIVE_POWER_BEHAVIOR_SUBGROUP
                0x000000000040e6dc       0x10 /usr/lib/gcc/i686-w64-mingw32/4.8/../../../../i686-w64-mingw32/lib/../lib/libuuid.a(lib32_libuuid_a-uuid.o)
                0x000000000040e6dc                GUID_ADAPTIVE_POWER_BEHAVIOR_SUBGROUP
 .rdata$GUID_ALLOW_AWAYMODE
                0x000000000040e6ec       0x10 /usr/lib/gcc/i686-w64-mingw32/4.8/../../../../i686-w64-mingw32/lib/../lib/libuuid.a(lib32_libuuid_a-uuid.o)
                0x000000000040e6ec                GUID_ALLOW_AWAYMODE
 .rdata$GUID_ALLOW_DISPLAY_REQUIRED
                0x000000000040e6fc       0x10 /usr/lib/gcc/i686-w64-mingw32/4.8/../../../../i686-w64-mingw32/lib/../lib/libuuid.a(lib32_libuuid_a-uuid.o)
                0x000000000040e6fc                GUID_ALLOW_DISPLAY_REQUIRED
 .rdata$GUID_ALLOW_RTC_WAKE
                0x000000000040e70c       0x10 /usr/lib/gcc/i686-w64-mingw32/4.8/../../../../i686-w64-mingw32/lib/../lib/libuuid.a(lib32_libuuid_a-uuid.o)
                0x000000000040e70c                GUID_ALLOW_RTC_WAKE
 .rdata$GUID_ALLOW_STANDBY_STATES
                0x000000000040e71c       0x10 /usr/lib/gcc/i686-w64-mingw32/4.8/../../../../i686-w64-mingw32/lib/../lib/libuuid.a(lib32_libuuid_a-uuid.o)
                0x000000000040e71c                GUID_ALLOW_STANDBY_STATES
 .rdata$GUID_ALLOW_SYSTEM_REQUIRED
                0x000000000040e72c       0x10 /usr/lib/gcc/i686-w64-mingw32/4.8/../../../../i686-w64-mingw32/lib/../lib/libuuid.a(lib32_libuuid_a-uuid.o)
                0x000000000040e72c                GUID_ALLOW_SYSTEM_REQUIRED
 .rdata$GUID_APPLAUNCH_BUTTON
                0x000000000040e73c       0x10 /usr/lib/gcc/i686-w64-mingw32/4.8/../../../../i686-w64-mingw32/lib/../lib/libuuid.a(lib32_libuuid_a-uuid.o)
                0x000000000040e73c                GUID_APPLAUNCH_BUTTON
 .rdata$GUID_BACKGROUND_TASK_NOTIFICATION
                0x000000000040e74c       0x10 /usr/lib/gcc/i686-w64-mingw32/4.8/../../../../i686-w64-mingw32/lib/../lib/libuuid.a(lib32_libuuid_a-uuid.o)
                0x000000000040e74c                GUID_BACKGROUND_TASK_NOTIFICATION
 .rdata$GUID_BATTERY_DISCHARGE_ACTION_0
                0x000000000040e75c       0x10 /usr/lib/gcc/i686-w64-mingw32/4.8/../../../../i686-w64-mingw32/lib/../lib/libuuid.a(lib32_libuuid_a-uuid.o)
                0x000000000040e75c                GUID_BATTERY_DISCHARGE_ACTION_0
 .rdata$GUID_BATTERY_DISCHARGE_ACTION_1
                0x000000000040e76c       0x10 /usr/lib/gcc/i686-w64-mingw32/4.8/../../../../i686-w64-mingw32/lib/../lib/libuuid.a(lib32_libuuid_a-uuid.o)
                0x000000000040e76c                GUID_BATTERY_DISCHARGE_ACTION_1
 .rdata$GUID_BATTERY_DISCHARGE_ACTION_2
                0x000000000040e77c       0x10 /usr/lib/gcc/i686-w64-mingw32/4.8/../../../../i686-w64-mingw32/lib/../lib/libuuid.a(lib32_libuuid_a-uuid.o)
                0x000000000040e77c                GUID_BATTERY_DISCHARGE_ACTION_2
 .rdata$GUID_BATTERY_DISCHARGE_ACTION_3
                0x000000000040e78c       0x10 /usr/lib/gcc/i686-w64-mingw32/4.8/../../../../i686-w64-mingw32/lib/../lib/libuuid.a(lib32_libuuid_a-uuid.o)
                0x000000000040e78c                GUID_BATTERY_DISCHARGE_ACTION_3
 .rdata$GUID_BATTERY_DISCHARGE_FLAGS_0
                0x000000000040e79c       0x10 /usr/lib/gcc/i686-w64-mingw32/4.8/../../../../i686-w64-mingw32/lib/../lib/libuuid.a(lib32_libuuid_a-uuid.o)
                0x000000000040e79c                GUID_BATTERY_DISCHARGE_FLAGS_0
 .rdata$GUID_BATTERY_DISCHARGE_FLAGS_1
                0x000000000040e7ac       0x10 /usr/lib/gcc/i686-w64-mingw32/4.8/../../../../i686-w64-mingw32/lib/../lib/libuuid.a(lib32_libuuid_a-uuid.o)
                0x000000000040e7ac                GUID_BATTERY_DISCHARGE_FLAGS_1
 .rdata$GUID_BATTERY_DISCHARGE_FLAGS_2
                0x000000000040e7bc       0x10 /usr/lib/gcc/i686-w64-mingw32/4.8/../../../../i686-w64-mingw32/lib/../lib/libuuid.a(lib32_libuuid_a-uuid.o)
                0x000000000040e7bc                GUID_BATTERY_DISCHARGE_FLAGS_2
 .rdata$GUID_BATTERY_DISCHARGE_FLAGS_3
                0x000000000040e7cc       0x10 /usr/lib/gcc/i686-w64-mingw32/4.8/../../../../i686-w64-mingw32/lib/../lib/libuuid.a(lib32_libuuid_a-uuid.o)
                0x000000000040e7cc                GUID_BATTERY_DISCHARGE_FLAGS_3
 .rdata$GUID_BATTERY_DISCHARGE_LEVEL_0
                0x000000000040e7dc       0x10 /usr/lib/gcc/i686-w64-mingw32/4.8/../../../../i686-w64-mingw32/lib/../lib/libuuid.a(lib32_libuuid_a-uuid.o)
                0x000000000040e7dc                GUID_BATTERY_DISCHARGE_LEVEL_0
 .rdata$GUID_BATTERY_DISCHARGE_LEVEL_1
                0x000000000040e7ec       0x10 /usr/lib/gcc/i686-w64-mingw32/4.8/../../../../i686-w64-mingw32/lib/../lib/libuuid.a(lib32_libuuid_a-uuid.o)
                0x000000000040e7ec                GUID_BATTERY_DISCHARGE_LEVEL_1
 .rdata$GUID_BATTERY_DISCHARGE_LEVEL_2
                0x000000000040e7fc       0x10 /usr/lib/gcc/i686-w64-mingw32/4.8/../../../../i686-w64-mingw32/lib/../lib/libuuid.a(lib32_libuuid_a-uuid.o)
                0x000000000040e7fc                GUID_BATTERY_DISCHARGE_LEVEL_2
 .rdata$GUID_BATTERY_DISCHARGE_LEVEL_3
                0x000000000040e80c       0x10 /usr/lib/gcc/i686-w64-mingw32/4.8/../../../../i686-w64-mingw32/lib/../lib/libuuid.a(lib32_libuuid_a-uuid.o)
                0x000000000040e80c                GUID_BATTERY_DISCHARGE_LEVEL_3
 .rdata$GUID_BATTERY_PERCENTAGE_REMAINING
                0x000000000040e81c       0x10 /usr/lib/gcc/i686-w64-mingw32/4.8/../../../../i686-w64-mingw32/lib/../lib/libuuid.a(lib32_libuuid_a-uuid.o)
                0x000000000040e81c                GUID_BATTERY_PERCENTAGE_REMAINING
 .rdata$GUID_BATTERY_SUBGROUP
                0x000000000040e82c       0x10 /usr/lib/gcc/i686-w64-mingw32/4.8/../../../../i686-w64-mingw32/lib/../lib/libuuid.a(lib32_libuuid_a-uuid.o)
                0x000000000040e82c                GUID_BATTERY_SUBGROUP
 .rdata$GUID_CHECKVALUEEXCLUSIVE
                0x000000000040e83c       0x10 /usr/lib/gcc/i686-w64-mingw32/4.8/../../../../i686-w64-mingw32/lib/../lib/libuuid.a(lib32_libuuid_a-uuid.o)
                0x000000000040e83c                GUID_CHECKVALUEEXCLUSIVE
 .rdata$GUID_COLOR
                0x000000000040e84c       0x10 /usr/lib/gcc/i686-w64-mingw32/4.8/../../../../i686-w64-mingw32/lib/../lib/libuuid.a(lib32_libuuid_a-uuid.o)
                0x000000000040e84c                GUID_COLOR
 .rdata$GUID_CONSOLE_DISPLAY_STATE
                0x000000000040e85c       0x10 /usr/lib/gcc/i686-w64-mingw32/4.8/../../../../i686-w64-mingw32/lib/../lib/libuuid.a(lib32_libuuid_a-uuid.o)
                0x000000000040e85c                GUID_CONSOLE_DISPLAY_STATE
 .rdata$GUID_CRITICAL_POWER_TRANSITION
                0x000000000040e86c       0x10 /usr/lib/gcc/i686-w64-mingw32/4.8/../../../../i686-w64-mingw32/lib/../lib/libuuid.a(lib32_libuuid_a-uuid.o)
                0x000000000040e86c                GUID_CRITICAL_POWER_TRANSITION
 .rdata$GUID_DEVICE_IDLE_POLICY
                0x000000000040e87c       0x10 /usr/lib/gcc/i686-w64-mingw32/4.8/../../../../i686-w64-mingw32/lib/../lib/libuuid.a(lib32_libuuid_a-uuid.o)
                0x000000000040e87c                GUID_DEVICE_IDLE_POLICY
 .rdata$GUID_DEVICE_POWER_POLICY_VIDEO_BRIGHTNESS
                0x000000000040e88c       0x10 /usr/lib/gcc/i686-w64-mingw32/4.8/../../../../i686-w64-mingw32/lib/../lib/libuuid.a(lib32_libuuid_a-uuid.o)
                0x000000000040e88c                GUID_DEVICE_POWER_POLICY_VIDEO_BRIGHTNESS
 .rdata$GUID_DEVICE_POWER_POLICY_VIDEO_DIM_BRIGHTNESS
                0x000000000040e89c       0x10 /usr/lib/gcc/i686-w64-mingw32/4.8/../../../../i686-w64-mingw32/lib/../lib/libuuid.a(lib32_libuuid_a-uuid.o)
                0x000000000040e89c                GUID_DEVICE_POWER_POLICY_VIDEO_DIM_BRIGHTNESS
 .rdata$GUID_DEVINTERFACE_CDCHANGER
                0x000000000040e8ac       0x10 /usr/lib/gcc/i686-w64-mingw32/4.8/../../../../i686-w64-mingw32/lib/../lib/libuuid.a(lib32_libuuid_a-uuid.o)
                0x000000000040e8ac                GUID_DEVINTERFACE_CDCHANGER
 .rdata$GUID_DEVINTERFACE_CDROM
                0x000000000040e8bc       0x10 /usr/lib/gcc/i686-w64-mingw32/4.8/../../../../i686-w64-mingw32/lib/../lib/libuuid.a(lib32_libuuid_a-uuid.o)
                0x000000000040e8bc                GUID_DEVINTERFACE_CDROM
 .rdata$GUID_DEVINTERFACE_COMPORT
                0x000000000040e8cc       0x10 /usr/lib/gcc/i686-w64-mingw32/4.8/../../../../i686-w64-mingw32/lib/../lib/libuuid.a(lib32_libuuid_a-uuid.o)
                0x000000000040e8cc                GUID_DEVINTERFACE_COMPORT
 .rdata$GUID_DEVINTERFACE_DISK
                0x000000000040e8dc       0x10 /usr/lib/gcc/i686-w64-mingw32/4.8/../../../../i686-w64-mingw32/lib/../lib/libuuid.a(lib32_libuuid_a-uuid.o)
                0x000000000040e8dc                GUID_DEVINTERFACE_DISK
 .rdata$GUID_DEVINTERFACE_FLOPPY
                0x000000000040e8ec       0x10 /usr/lib/gcc/i686-w64-mingw32/4.8/../../../../i686-w64-mingw32/lib/../lib/libuuid.a(lib32_libuuid_a-uuid.o)
                0x000000000040e8ec                GUID_DEVINTERFACE_FLOPPY
 .rdata$GUID_DEVINTERFACE_MEDIUMCHANGER
                0x000000000040e8fc       0x10 /usr/lib/gcc/i686-w64-mingw32/4.8/../../../../i686-w64-mingw32/lib/../lib/libuuid.a(lib32_libuuid_a-uuid.o)
                0x000000000040e8fc                GUID_DEVINTERFACE_MEDIUMCHANGER
 .rdata$GUID_DEVINTERFACE_PARTITION
                0x000000000040e90c       0x10 /usr/lib/gcc/i686-w64-mingw32/4.8/../../../../i686-w64-mingw32/lib/../lib/libuuid.a(lib32_libuuid_a-uuid.o)
                0x000000000040e90c                GUID_DEVINTERFACE_PARTITION
 .rdata$GUID_DEVINTERFACE_SERENUM_BUS_ENUMERATOR
                0x000000000040e91c       0x10 /usr/lib/gcc/i686-w64-mingw32/4.8/../../../../i686-w64-mingw32/lib/../lib/libuuid.a(lib32_libuuid_a-uuid.o)
                0x000000000040e91c                GUID_DEVINTERFACE_SERENUM_BUS_ENUMERATOR
 .rdata$GUID_DEVINTERFACE_STORAGEPORT
                0x000000000040e92c       0x10 /usr/lib/gcc/i686-w64-mingw32/4.8/../../../../i686-w64-mingw32/lib/../lib/libuuid.a(lib32_libuuid_a-uuid.o)
                0x000000000040e92c                GUID_DEVINTERFACE_STORAGEPORT
 .rdata$GUID_DEVINTERFACE_TAPE
                0x000000000040e93c       0x10 /usr/lib/gcc/i686-w64-mingw32/4.8/../../../../i686-w64-mingw32/lib/../lib/libuuid.a(lib32_libuuid_a-uuid.o)
                0x000000000040e93c                GUID_DEVINTERFACE_TAPE
 .rdata$GUID_DEVINTERFACE_VOLUME
                0x000000000040e94c       0x10 /usr/lib/gcc/i686-w64-mingw32/4.8/../../../../i686-w64-mingw32/lib/../lib/libuuid.a(lib32_libuuid_a-uuid.o)
                0x000000000040e94c                GUID_DEVINTERFACE_VOLUME
 .rdata$GUID_DEVINTERFACE_WRITEONCEDISK
                0x000000000040e95c       0x10 /usr/lib/gcc/i686-w64-mingw32/4.8/../../../../i686-w64-mingw32/lib/../lib/libuuid.a(lib32_libuuid_a-uuid.o)
                0x000000000040e95c                GUID_DEVINTERFACE_WRITEONCEDISK
 .rdata$GUID_DISK_ADAPTIVE_POWERDOWN
                0x000000000040e96c       0x10 /usr/lib/gcc/i686-w64-mingw32/4.8/../../../../i686-w64-mingw32/lib/../lib/libuuid.a(lib32_libuuid_a-uuid.o)
                0x000000000040e96c                GUID_DISK_ADAPTIVE_POWERDOWN
 .rdata$GUID_DISK_BURST_IGNORE_THRESHOLD
                0x000000000040e97c       0x10 /usr/lib/gcc/i686-w64-mingw32/4.8/../../../../i686-w64-mingw32/lib/../lib/libuuid.a(lib32_libuuid_a-uuid.o)
                0x000000000040e97c                GUID_DISK_BURST_IGNORE_THRESHOLD
 .rdata$GUID_DISK_COALESCING_POWERDOWN_TIMEOUT
                0x000000000040e98c       0x10 /usr/lib/gcc/i686-w64-mingw32/4.8/../../../../i686-w64-mingw32/lib/../lib/libuuid.a(lib32_libuuid_a-uuid.o)
                0x000000000040e98c                GUID_DISK_COALESCING_POWERDOWN_TIMEOUT
 .rdata$GUID_DISK_IDLE_TIMEOUT
                0x000000000040e99c       0x10 /usr/lib/gcc/i686-w64-mingw32/4.8/../../../../i686-w64-mingw32/lib/../lib/libuuid.a(lib32_libuuid_a-uuid.o)
                0x000000000040e99c                GUID_DISK_IDLE_TIMEOUT
 .rdata$GUID_DISK_POWERDOWN_TIMEOUT
                0x000000000040e9ac       0x10 /usr/lib/gcc/i686-w64-mingw32/4.8/../../../../i686-w64-mingw32/lib/../lib/libuuid.a(lib32_libuuid_a-uuid.o)
                0x000000000040e9ac                GUID_DISK_POWERDOWN_TIMEOUT
 .rdata$GUID_DISK_SUBGROUP
                0x000000000040e9bc       0x10 /usr/lib/gcc/i686-w64-mingw32/4.8/../../../../i686-w64-mingw32/lib/../lib/libuuid.a(lib32_libuuid_a-uuid.o)
                0x000000000040e9bc                GUID_DISK_SUBGROUP
 .rdata$GUID_ENABLE_SWITCH_FORCED_SHUTDOWN
                0x000000000040e9cc       0x10 /usr/lib/gcc/i686-w64-mingw32/4.8/../../../../i686-w64-mingw32/lib/../lib/libuuid.a(lib32_libuuid_a-uuid.o)
                0x000000000040e9cc                GUID_ENABLE_SWITCH_FORCED_SHUTDOWN
 .rdata$GUID_EXECUTION_REQUIRED_REQUEST_TIMEOUT
                0x000000000040e9dc       0x10 /usr/lib/gcc/i686-w64-mingw32/4.8/../../../../i686-w64-mingw32/lib/../lib/libuuid.a(lib32_libuuid_a-uuid.o)
                0x000000000040e9dc                GUID_EXECUTION_REQUIRED_REQUEST_TIMEOUT
 .rdata$GUID_FONTBOLD
                0x000000000040e9ec       0x10 /usr/lib/gcc/i686-w64-mingw32/4.8/../../../../i686-w64-mingw32/lib/../lib/libuuid.a(lib32_libuuid_a-uuid.o)
                0x000000000040e9ec                GUID_FONTBOLD
 .rdata$GUID_FONTITALIC
                0x000000000040e9fc       0x10 /usr/lib/gcc/i686-w64-mingw32/4.8/../../../../i686-w64-mingw32/lib/../lib/libuuid.a(lib32_libuuid_a-uuid.o)
                0x000000000040e9fc                GUID_FONTITALIC
 .rdata$GUID_FONTNAME
                0x000000000040ea0c       0x10 /usr/lib/gcc/i686-w64-mingw32/4.8/../../../../i686-w64-mingw32/lib/../lib/libuuid.a(lib32_libuuid_a-uuid.o)
                0x000000000040ea0c                GUID_FONTNAME
 .rdata$GUID_FONTSIZE
                0x000000000040ea1c       0x10 /usr/lib/gcc/i686-w64-mingw32/4.8/../../../../i686-w64-mingw32/lib/../lib/libuuid.a(lib32_libuuid_a-uuid.o)
                0x000000000040ea1c                GUID_FONTSIZE
 .rdata$GUID_FONTSTRIKETHROUGH
                0x000000000040ea2c       0x10 /usr/lib/gcc/i686-w64-mingw32/4.8/../../../../i686-w64-mingw32/lib/../lib/libuuid.a(lib32_libuuid_a-uuid.o)
                0x000000000040ea2c                GUID_FONTSTRIKETHROUGH
 .rdata$GUID_FONTUNDERSCORE
                0x000000000040ea3c       0x10 /usr/lib/gcc/i686-w64-mingw32/4.8/../../../../i686-w64-mingw32/lib/../lib/libuuid.a(lib32_libuuid_a-uuid.o)
                0x000000000040ea3c                GUID_FONTUNDERSCORE
 .rdata$GUID_GLOBAL_USER_PRESENCE
                0x000000000040ea4c       0x10 /usr/lib/gcc/i686-w64-mingw32/4.8/../../../../i686-w64-mingw32/lib/../lib/libuuid.a(lib32_libuuid_a-uuid.o)
                0x000000000040ea4c                GUID_GLOBAL_USER_PRESENCE
 .rdata$GUID_HANDLE
                0x000000000040ea5c       0x10 /usr/lib/gcc/i686-w64-mingw32/4.8/../../../../i686-w64-mingw32/lib/../lib/libuuid.a(lib32_libuuid_a-uuid.o)
                0x000000000040ea5c                GUID_HANDLE
 .rdata$GUID_HIBERNATE_FASTS4_POLICY
                0x000000000040ea6c       0x10 /usr/lib/gcc/i686-w64-mingw32/4.8/../../../../i686-w64-mingw32/lib/../lib/libuuid.a(lib32_libuuid_a-uuid.o)
                0x000000000040ea6c                GUID_HIBERNATE_FASTS4_POLICY
 .rdata$GUID_HIBERNATE_TIMEOUT
                0x000000000040ea7c       0x10 /usr/lib/gcc/i686-w64-mingw32/4.8/../../../../i686-w64-mingw32/lib/../lib/libuuid.a(lib32_libuuid_a-uuid.o)
                0x000000000040ea7c                GUID_HIBERNATE_TIMEOUT
 .rdata$GUID_HIMETRIC
                0x000000000040ea8c       0x10 /usr/lib/gcc/i686-w64-mingw32/4.8/../../../../i686-w64-mingw32/lib/../lib/libuuid.a(lib32_libuuid_a-uuid.o)
                0x000000000040ea8c                GUID_HIMETRIC
 .rdata$GUID_HasPathProperties
                0x000000000040ea9c       0x10 /usr/lib/gcc/i686-w64-mingw32/4.8/../../../../i686-w64-mingw32/lib/../lib/libuuid.a(lib32_libuuid_a-uuid.o)
                0x000000000040ea9c                GUID_HasPathProperties
 .rdata$GUID_IDLE_BACKGROUND_TASK
                0x000000000040eaac       0x10 /usr/lib/gcc/i686-w64-mingw32/4.8/../../../../i686-w64-mingw32/lib/../lib/libuuid.a(lib32_libuuid_a-uuid.o)
                0x000000000040eaac                GUID_IDLE_BACKGROUND_TASK
 .rdata$GUID_IDLE_RESILIENCY_PERIOD
                0x000000000040eabc       0x10 /usr/lib/gcc/i686-w64-mingw32/4.8/../../../../i686-w64-mingw32/lib/../lib/libuuid.a(lib32_libuuid_a-uuid.o)
                0x000000000040eabc                GUID_IDLE_RESILIENCY_PERIOD
 .rdata$GUID_IDLE_RESILIENCY_SUBGROUP
                0x000000000040eacc       0x10 /usr/lib/gcc/i686-w64-mingw32/4.8/../../../../i686-w64-mingw32/lib/../lib/libuuid.a(lib32_libuuid_a-uuid.o)
                0x000000000040eacc                GUID_IDLE_RESILIENCY_SUBGROUP
 .rdata$GUID_LIDCLOSE_ACTION
                0x000000000040eadc       0x10 /usr/lib/gcc/i686-w64-mingw32/4.8/../../../../i686-w64-mingw32/lib/../lib/libuuid.a(lib32_libuuid_a-uuid.o)
                0x000000000040eadc                GUID_LIDCLOSE_ACTION
 .rdata$GUID_LIDOPEN_POWERSTATE
                0x000000000040eaec       0x10 /usr/lib/gcc/i686-w64-mingw32/4.8/../../../../i686-w64-mingw32/lib/../lib/libuuid.a(lib32_libuuid_a-uuid.o)
                0x000000000040eaec                GUID_LIDOPEN_POWERSTATE
 .rdata$GUID_LIDSWITCH_STATE_CHANGE
                0x000000000040eafc       0x10 /usr/lib/gcc/i686-w64-mingw32/4.8/../../../../i686-w64-mingw32/lib/../lib/libuuid.a(lib32_libuuid_a-uuid.o)
                0x000000000040eafc                GUID_LIDSWITCH_STATE_CHANGE
 .rdata$GUID_LOCK_CONSOLE_ON_WAKE
                0x000000000040eb0c       0x10 /usr/lib/gcc/i686-w64-mingw32/4.8/../../../../i686-w64-mingw32/lib/../lib/libuuid.a(lib32_libuuid_a-uuid.o)
                0x000000000040eb0c                GUID_LOCK_CONSOLE_ON_WAKE
 .rdata$GUID_MAX_POWER_SAVINGS
                0x000000000040eb1c       0x10 /usr/lib/gcc/i686-w64-mingw32/4.8/../../../../i686-w64-mingw32/lib/../lib/libuuid.a(lib32_libuuid_a-uuid.o)
                0x000000000040eb1c                GUID_MAX_POWER_SAVINGS
 .rdata$GUID_MIN_POWER_SAVINGS
                0x000000000040eb2c       0x10 /usr/lib/gcc/i686-w64-mingw32/4.8/../../../../i686-w64-mingw32/lib/../lib/libuuid.a(lib32_libuuid_a-uuid.o)
                0x000000000040eb2c                GUID_MIN_POWER_SAVINGS
 .rdata$GUID_MONITOR_POWER_ON
                0x000000000040eb3c       0x10 /usr/lib/gcc/i686-w64-mingw32/4.8/../../../../i686-w64-mingw32/lib/../lib/libuuid.a(lib32_libuuid_a-uuid.o)
                0x000000000040eb3c                GUID_MONITOR_POWER_ON
 .rdata$GUID_NON_ADAPTIVE_INPUT_TIMEOUT
                0x000000000040eb4c       0x10 /usr/lib/gcc/i686-w64-mingw32/4.8/../../../../i686-w64-mingw32/lib/../lib/libuuid.a(lib32_libuuid_a-uuid.o)
                0x000000000040eb4c                GUID_NON_ADAPTIVE_INPUT_TIMEOUT
 .rdata$GUID_OPTIONVALUEEXCLUSIVE
                0x000000000040eb5c       0x10 /usr/lib/gcc/i686-w64-mingw32/4.8/../../../../i686-w64-mingw32/lib/../lib/libuuid.a(lib32_libuuid_a-uuid.o)
                0x000000000040eb5c                GUID_OPTIONVALUEEXCLUSIVE
 .rdata$GUID_PCIEXPRESS_ASPM_POLICY
                0x000000000040eb6c       0x10 /usr/lib/gcc/i686-w64-mingw32/4.8/../../../../i686-w64-mingw32/lib/../lib/libuuid.a(lib32_libuuid_a-uuid.o)
                0x000000000040eb6c                GUID_PCIEXPRESS_ASPM_POLICY
 .rdata$GUID_PCIEXPRESS_SETTINGS_SUBGROUP
                0x000000000040eb7c       0x10 /usr/lib/gcc/i686-w64-mingw32/4.8/../../../../i686-w64-mingw32/lib/../lib/libuuid.a(lib32_libuuid_a-uuid.o)
                0x000000000040eb7c                GUID_PCIEXPRESS_SETTINGS_SUBGROUP
 .rdata$GUID_POWERBUTTON_ACTION
                0x000000000040eb8c       0x10 /usr/lib/gcc/i686-w64-mingw32/4.8/../../../../i686-w64-mingw32/lib/../lib/libuuid.a(lib32_libuuid_a-uuid.o)
                0x000000000040eb8c                GUID_POWERBUTTON_ACTION
 .rdata$GUID_POWERSCHEME_PERSONALITY
                0x000000000040eb9c       0x10 /usr/lib/gcc/i686-w64-mingw32/4.8/../../../../i686-w64-mingw32/lib/../lib/libuuid.a(lib32_libuuid_a-uuid.o)
                0x000000000040eb9c                GUID_POWERSCHEME_PERSONALITY
 .rdata$GUID_PROCESSOR_ALLOW_THROTTLING
                0x000000000040ebac       0x10 /usr/lib/gcc/i686-w64-mingw32/4.8/../../../../i686-w64-mingw32/lib/../lib/libuuid.a(lib32_libuuid_a-uuid.o)
                0x000000000040ebac                GUID_PROCESSOR_ALLOW_THROTTLING
 .rdata$GUID_PROCESSOR_CORE_PARKING_AFFINITY_HISTORY_DECREASE_FACTOR
                0x000000000040ebbc       0x10 /usr/lib/gcc/i686-w64-mingw32/4.8/../../../../i686-w64-mingw32/lib/../lib/libuuid.a(lib32_libuuid_a-uuid.o)
                0x000000000040ebbc                GUID_PROCESSOR_CORE_PARKING_AFFINITY_HISTORY_DECREASE_FACTOR
 .rdata$GUID_PROCESSOR_CORE_PARKING_AFFINITY_HISTORY_THRESHOLD
                0x000000000040ebcc       0x10 /usr/lib/gcc/i686-w64-mingw32/4.8/../../../../i686-w64-mingw32/lib/../lib/libuuid.a(lib32_libuuid_a-uuid.o)
                0x000000000040ebcc                GUID_PROCESSOR_CORE_PARKING_AFFINITY_HISTORY_THRESHOLD
 .rdata$GUID_PROCESSOR_CORE_PARKING_AFFINITY_WEIGHTING
                0x000000000040ebdc       0x10 /usr/lib/gcc/i686-w64-mingw32/4.8/../../../../i686-w64-mingw32/lib/../lib/libuuid.a(lib32_libuuid_a-uuid.o)
                0x000000000040ebdc                GUID_PROCESSOR_CORE_PARKING_AFFINITY_WEIGHTING
 .rdata$GUID_PROCESSOR_CORE_PARKING_DECREASE_POLICY
                0x000000000040ebec       0x10 /usr/lib/gcc/i686-w64-mingw32/4.8/../../../../i686-w64-mingw32/lib/../lib/libuuid.a(lib32_libuuid_a-uuid.o)
                0x000000000040ebec                GUID_PROCESSOR_CORE_PARKING_DECREASE_POLICY
 .rdata$GUID_PROCESSOR_CORE_PARKING_DECREASE_THRESHOLD
                0x000000000040ebfc       0x10 /usr/lib/gcc/i686-w64-mingw32/4.8/../../../../i686-w64-mingw32/lib/../lib/libuuid.a(lib32_libuuid_a-uuid.o)
                0x000000000040ebfc                GUID_PROCESSOR_CORE_PARKING_DECREASE_THRESHOLD
 .rdata$GUID_PROCESSOR_CORE_PARKING_DECREASE_TIME
                0x000000000040ec0c       0x10 /usr/lib/gcc/i686-w64-mingw32/4.8/../../../../i686-w64-mingw32/lib/../lib/libuuid.a(lib32_libuuid_a-uuid.o)
                0x000000000040ec0c                GUID_PROCESSOR_CORE_PARKING_DECREASE_TIME
 .rdata$GUID_PROCESSOR_CORE_PARKING_INCREASE_POLICY
                0x000000000040ec1c       0x10 /usr/lib/gcc/i686-w64-mingw32/4.8/../../../../i686-w64-mingw32/lib/../lib/libuuid.a(lib32_libuuid_a-uuid.o)
                0x000000000040ec1c                GUID_PROCESSOR_CORE_PARKING_INCREASE_POLICY
 .rdata$GUID_PROCESSOR_CORE_PARKING_INCREASE_THRESHOLD
                0x000000000040ec2c       0x10 /usr/lib/gcc/i686-w64-mingw32/4.8/../../../../i686-w64-mingw32/lib/../lib/libuuid.a(lib32_libuuid_a-uuid.o)
                0x000000000040ec2c                GUID_PROCESSOR_CORE_PARKING_INCREASE_THRESHOLD
 .rdata$GUID_PROCESSOR_CORE_PARKING_INCREASE_TIME
                0x000000000040ec3c       0x10 /usr/lib/gcc/i686-w64-mingw32/4.8/../../../../i686-w64-mingw32/lib/../lib/libuuid.a(lib32_libuuid_a-uuid.o)
                0x000000000040ec3c                GUID_PROCESSOR_CORE_PARKING_INCREASE_TIME
 .rdata$GUID_PROCESSOR_CORE_PARKING_MAX_CORES
                0x000000000040ec4c       0x10 /usr/lib/gcc/i686-w64-mingw32/4.8/../../../../i686-w64-mingw32/lib/../lib/libuuid.a(lib32_libuuid_a-uuid.o)
                0x000000000040ec4c                GUID_PROCESSOR_CORE_PARKING_MAX_CORES
 .rdata$GUID_PROCESSOR_CORE_PARKING_MIN_CORES
                0x000000000040ec5c       0x10 /usr/lib/gcc/i686-w64-mingw32/4.8/../../../../i686-w64-mingw32/lib/../lib/libuuid.a(lib32_libuuid_a-uuid.o)
                0x000000000040ec5c                GUID_PROCESSOR_CORE_PARKING_MIN_CORES
 .rdata$GUID_PROCESSOR_CORE_PARKING_OVER_UTILIZATION_HISTORY_DECREASE_FACTOR
                0x000000000040ec6c       0x10 /usr/lib/gcc/i686-w64-mingw32/4.8/../../../../i686-w64-mingw32/lib/../lib/libuuid.a(lib32_libuuid_a-uuid.o)
                0x000000000040ec6c                GUID_PROCESSOR_CORE_PARKING_OVER_UTILIZATION_HISTORY_DECREASE_FACTOR
 .rdata$GUID_PROCESSOR_CORE_PARKING_OVER_UTILIZATION_HISTORY_THRESHOLD
                0x000000000040ec7c       0x10 /usr/lib/gcc/i686-w64-mingw32/4.8/../../../../i686-w64-mingw32/lib/../lib/libuuid.a(lib32_libuuid_a-uuid.o)
                0x000000000040ec7c                GUID_PROCESSOR_CORE_PARKING_OVER_UTILIZATION_HISTORY_THRESHOLD
 .rdata$GUID_PROCESSOR_CORE_PARKING_OVER_UTILIZATION_THRESHOLD
                0x000000000040ec8c       0x10 /usr/lib/gcc/i686-w64-mingw32/4.8/../../../../i686-w64-mingw32/lib/../lib/libuuid.a(lib32_libuuid_a-uuid.o)
                0x000000000040ec8c                GUID_PROCESSOR_CORE_PARKING_OVER_UTILIZATION_THRESHOLD
 .rdata$GUID_PROCESSOR_CORE_PARKING_OVER_UTILIZATION_WEIGHTING
                0x000000000040ec9c       0x10 /usr/lib/gcc/i686-w64-mingw32/4.8/../../../../i686-w64-mingw32/lib/../lib/libuuid.a(lib32_libuuid_a-uuid.o)
                0x000000000040ec9c                GUID_PROCESSOR_CORE_PARKING_OVER_UTILIZATION_WEIGHTING
 .rdata$GUID_PROCESSOR_DISTRIBUTE_UTILITY
                0x000000000040ecac       0x10 /usr/lib/gcc/i686-w64-mingw32/4.8/../../../../i686-w64-mingw32/lib/../lib/libuuid.a(lib32_libuuid_a-uuid.o)
                0x000000000040ecac                GUID_PROCESSOR_DISTRIBUTE_UTILITY
 .rdata$GUID_PROCESSOR_IDLESTATE_POLICY
                0x000000000040ecbc       0x10 /usr/lib/gcc/i686-w64-mingw32/4.8/../../../../i686-w64-mingw32/lib/../lib/libuuid.a(lib32_libuuid_a-uuid.o)
                0x000000000040ecbc                GUID_PROCESSOR_IDLESTATE_POLICY
 .rdata$GUID_PROCESSOR_IDLE_ALLOW_SCALING
                0x000000000040eccc       0x10 /usr/lib/gcc/i686-w64-mingw32/4.8/../../../../i686-w64-mingw32/lib/../lib/libuuid.a(lib32_libuuid_a-uuid.o)
                0x000000000040eccc                GUID_PROCESSOR_IDLE_ALLOW_SCALING
 .rdata$GUID_PROCESSOR_IDLE_DEMOTE_THRESHOLD
                0x000000000040ecdc       0x10 /usr/lib/gcc/i686-w64-mingw32/4.8/../../../../i686-w64-mingw32/lib/../lib/libuuid.a(lib32_libuuid_a-uuid.o)
                0x000000000040ecdc                GUID_PROCESSOR_IDLE_DEMOTE_THRESHOLD
 .rdata$GUID_PROCESSOR_IDLE_DISABLE
                0x000000000040ecec       0x10 /usr/lib/gcc/i686-w64-mingw32/4.8/../../../../i686-w64-mingw32/lib/../lib/libuuid.a(lib32_libuuid_a-uuid.o)
                0x000000000040ecec                GUID_PROCESSOR_IDLE_DISABLE
 .rdata$GUID_PROCESSOR_IDLE_PROMOTE_THRESHOLD
                0x000000000040ecfc       0x10 /usr/lib/gcc/i686-w64-mingw32/4.8/../../../../i686-w64-mingw32/lib/../lib/libuuid.a(lib32_libuuid_a-uuid.o)
                0x000000000040ecfc                GUID_PROCESSOR_IDLE_PROMOTE_THRESHOLD
 .rdata$GUID_PROCESSOR_IDLE_STATE_MAXIMUM
                0x000000000040ed0c       0x10 /usr/lib/gcc/i686-w64-mingw32/4.8/../../../../i686-w64-mingw32/lib/../lib/libuuid.a(lib32_libuuid_a-uuid.o)
                0x000000000040ed0c                GUID_PROCESSOR_IDLE_STATE_MAXIMUM
 .rdata$GUID_PROCESSOR_IDLE_TIME_CHECK
                0x000000000040ed1c       0x10 /usr/lib/gcc/i686-w64-mingw32/4.8/../../../../i686-w64-mingw32/lib/../lib/libuuid.a(lib32_libuuid_a-uuid.o)
                0x000000000040ed1c                GUID_PROCESSOR_IDLE_TIME_CHECK
 .rdata$GUID_PROCESSOR_PARKING_CONCURRENCY_THRESHOLD
                0x000000000040ed2c       0x10 /usr/lib/gcc/i686-w64-mingw32/4.8/../../../../i686-w64-mingw32/lib/../lib/libuuid.a(lib32_libuuid_a-uuid.o)
                0x000000000040ed2c                GUID_PROCESSOR_PARKING_CONCURRENCY_THRESHOLD
 .rdata$GUID_PROCESSOR_PARKING_CORE_OVERRIDE
                0x000000000040ed3c       0x10 /usr/lib/gcc/i686-w64-mingw32/4.8/../../../../i686-w64-mingw32/lib/../lib/libuuid.a(lib32_libuuid_a-uuid.o)
                0x000000000040ed3c                GUID_PROCESSOR_PARKING_CORE_OVERRIDE
 .rdata$GUID_PROCESSOR_PARKING_HEADROOM_THRESHOLD
                0x000000000040ed4c       0x10 /usr/lib/gcc/i686-w64-mingw32/4.8/../../../../i686-w64-mingw32/lib/../lib/libuuid.a(lib32_libuuid_a-uuid.o)
                0x000000000040ed4c                GUID_PROCESSOR_PARKING_HEADROOM_THRESHOLD
 .rdata$GUID_PROCESSOR_PARKING_PERF_STATE
                0x000000000040ed5c       0x10 /usr/lib/gcc/i686-w64-mingw32/4.8/../../../../i686-w64-mingw32/lib/../lib/libuuid.a(lib32_libuuid_a-uuid.o)
                0x000000000040ed5c                GUID_PROCESSOR_PARKING_PERF_STATE
 .rdata$GUID_PROCESSOR_PERFSTATE_POLICY
                0x000000000040ed6c       0x10 /usr/lib/gcc/i686-w64-mingw32/4.8/../../../../i686-w64-mingw32/lib/../lib/libuuid.a(lib32_libuuid_a-uuid.o)
                0x000000000040ed6c                GUID_PROCESSOR_PERFSTATE_POLICY
 .rdata$GUID_PROCESSOR_PERF_BOOST_MODE
                0x000000000040ed7c       0x10 /usr/lib/gcc/i686-w64-mingw32/4.8/../../../../i686-w64-mingw32/lib/../lib/libuuid.a(lib32_libuuid_a-uuid.o)
                0x000000000040ed7c                GUID_PROCESSOR_PERF_BOOST_MODE
 .rdata$GUID_PROCESSOR_PERF_BOOST_POLICY
                0x000000000040ed8c       0x10 /usr/lib/gcc/i686-w64-mingw32/4.8/../../../../i686-w64-mingw32/lib/../lib/libuuid.a(lib32_libuuid_a-uuid.o)
                0x000000000040ed8c                GUID_PROCESSOR_PERF_BOOST_POLICY
 .rdata$GUID_PROCESSOR_PERF_DECREASE_POLICY
                0x000000000040ed9c       0x10 /usr/lib/gcc/i686-w64-mingw32/4.8/../../../../i686-w64-mingw32/lib/../lib/libuuid.a(lib32_libuuid_a-uuid.o)
                0x000000000040ed9c                GUID_PROCESSOR_PERF_DECREASE_POLICY
 .rdata$GUID_PROCESSOR_PERF_DECREASE_THRESHOLD
                0x000000000040edac       0x10 /usr/lib/gcc/i686-w64-mingw32/4.8/../../../../i686-w64-mingw32/lib/../lib/libuuid.a(lib32_libuuid_a-uuid.o)
                0x000000000040edac                GUID_PROCESSOR_PERF_DECREASE_THRESHOLD
 .rdata$GUID_PROCESSOR_PERF_DECREASE_TIME
                0x000000000040edbc       0x10 /usr/lib/gcc/i686-w64-mingw32/4.8/../../../../i686-w64-mingw32/lib/../lib/libuuid.a(lib32_libuuid_a-uuid.o)
                0x000000000040edbc                GUID_PROCESSOR_PERF_DECREASE_TIME
 .rdata$GUID_PROCESSOR_PERF_HISTORY
                0x000000000040edcc       0x10 /usr/lib/gcc/i686-w64-mingw32/4.8/../../../../i686-w64-mingw32/lib/../lib/libuuid.a(lib32_libuuid_a-uuid.o)
                0x000000000040edcc                GUID_PROCESSOR_PERF_HISTORY
 .rdata$GUID_PROCESSOR_PERF_INCREASE_POLICY
                0x000000000040eddc       0x10 /usr/lib/gcc/i686-w64-mingw32/4.8/../../../../i686-w64-mingw32/lib/../lib/libuuid.a(lib32_libuuid_a-uuid.o)
                0x000000000040eddc                GUID_PROCESSOR_PERF_INCREASE_POLICY
 .rdata$GUID_PROCESSOR_PERF_INCREASE_THRESHOLD
                0x000000000040edec       0x10 /usr/lib/gcc/i686-w64-mingw32/4.8/../../../../i686-w64-mingw32/lib/../lib/libuuid.a(lib32_libuuid_a-uuid.o)
                0x000000000040edec                GUID_PROCESSOR_PERF_INCREASE_THRESHOLD
 .rdata$GUID_PROCESSOR_PERF_INCREASE_TIME
                0x000000000040edfc       0x10 /usr/lib/gcc/i686-w64-mingw32/4.8/../../../../i686-w64-mingw32/lib/../lib/libuuid.a(lib32_libuuid_a-uuid.o)
                0x000000000040edfc                GUID_PROCESSOR_PERF_INCREASE_TIME
 .rdata$GUID_PROCESSOR_PERF_LATENCY_HINT
                0x000000000040ee0c       0x10 /usr/lib/gcc/i686-w64-mingw32/4.8/../../../../i686-w64-mingw32/lib/../lib/libuuid.a(lib32_libuuid_a-uuid.o)
                0x000000000040ee0c                GUID_PROCESSOR_PERF_LATENCY_HINT
 .rdata$GUID_PROCESSOR_PERF_TIME_CHECK
                0x000000000040ee1c       0x10 /usr/lib/gcc/i686-w64-mingw32/4.8/../../../../i686-w64-mingw32/lib/../lib/libuuid.a(lib32_libuuid_a-uuid.o)
                0x000000000040ee1c                GUID_PROCESSOR_PERF_TIME_CHECK
 .rdata$GUID_PROCESSOR_SETTINGS_SUBGROUP
                0x000000000040ee2c       0x10 /usr/lib/gcc/i686-w64-mingw32/4.8/../../../../i686-w64-mingw32/lib/../lib/libuuid.a(lib32_libuuid_a-uuid.o)
                0x000000000040ee2c                GUID_PROCESSOR_SETTINGS_SUBGROUP
 .rdata$GUID_PROCESSOR_THROTTLE_MAXIMUM
                0x000000000040ee3c       0x10 /usr/lib/gcc/i686-w64-mingw32/4.8/../../../../i686-w64-mingw32/lib/../lib/libuuid.a(lib32_libuuid_a-uuid.o)
                0x000000000040ee3c                GUID_PROCESSOR_THROTTLE_MAXIMUM
 .rdata$GUID_PROCESSOR_THROTTLE_MINIMUM
                0x000000000040ee4c       0x10 /usr/lib/gcc/i686-w64-mingw32/4.8/../../../../i686-w64-mingw32/lib/../lib/libuuid.a(lib32_libuuid_a-uuid.o)
                0x000000000040ee4c                GUID_PROCESSOR_THROTTLE_MINIMUM
 .rdata$GUID_PROCESSOR_THROTTLE_POLICY
                0x000000000040ee5c       0x10 /usr/lib/gcc/i686-w64-mingw32/4.8/../../../../i686-w64-mingw32/lib/../lib/libuuid.a(lib32_libuuid_a-uuid.o)
                0x000000000040ee5c                GUID_PROCESSOR_THROTTLE_POLICY
 .rdata$GUID_PathProperty
                0x000000000040ee6c       0x10 /usr/lib/gcc/i686-w64-mingw32/4.8/../../../../i686-w64-mingw32/lib/../lib/libuuid.a(lib32_libuuid_a-uuid.o)
                0x000000000040ee6c                GUID_PathProperty
 .rdata$GUID_SESSION_DISPLAY_STATUS
                0x000000000040ee7c       0x10 /usr/lib/gcc/i686-w64-mingw32/4.8/../../../../i686-w64-mingw32/lib/../lib/libuuid.a(lib32_libuuid_a-uuid.o)
                0x000000000040ee7c                GUID_SESSION_DISPLAY_STATUS
 .rdata$GUID_SESSION_USER_PRESENCE
                0x000000000040ee8c       0x10 /usr/lib/gcc/i686-w64-mingw32/4.8/../../../../i686-w64-mingw32/lib/../lib/libuuid.a(lib32_libuuid_a-uuid.o)
                0x000000000040ee8c                GUID_SESSION_USER_PRESENCE
 .rdata$GUID_SLEEPBUTTON_ACTION
                0x000000000040ee9c       0x10 /usr/lib/gcc/i686-w64-mingw32/4.8/../../../../i686-w64-mingw32/lib/../lib/libuuid.a(lib32_libuuid_a-uuid.o)
                0x000000000040ee9c                GUID_SLEEPBUTTON_ACTION
 .rdata$GUID_SLEEP_IDLE_THRESHOLD
                0x000000000040eeac       0x10 /usr/lib/gcc/i686-w64-mingw32/4.8/../../../../i686-w64-mingw32/lib/../lib/libuuid.a(lib32_libuuid_a-uuid.o)
                0x000000000040eeac                GUID_SLEEP_IDLE_THRESHOLD
 .rdata$GUID_SLEEP_SUBGROUP
                0x000000000040eebc       0x10 /usr/lib/gcc/i686-w64-mingw32/4.8/../../../../i686-w64-mingw32/lib/../lib/libuuid.a(lib32_libuuid_a-uuid.o)
                0x000000000040eebc                GUID_SLEEP_SUBGROUP
 .rdata$GUID_STANDBY_TIMEOUT
                0x000000000040eecc       0x10 /usr/lib/gcc/i686-w64-mingw32/4.8/../../../../i686-w64-mingw32/lib/../lib/libuuid.a(lib32_libuuid_a-uuid.o)
                0x000000000040eecc                GUID_STANDBY_TIMEOUT
 .rdata$GUID_SYSTEM_AWAYMODE
                0x000000000040eedc       0x10 /usr/lib/gcc/i686-w64-mingw32/4.8/../../../../i686-w64-mingw32/lib/../lib/libuuid.a(lib32_libuuid_a-uuid.o)
                0x000000000040eedc                GUID_SYSTEM_AWAYMODE
 .rdata$GUID_SYSTEM_BUTTON_SUBGROUP
                0x000000000040eeec       0x10 /usr/lib/gcc/i686-w64-mingw32/4.8/../../../../i686-w64-mingw32/lib/../lib/libuuid.a(lib32_libuuid_a-uuid.o)
                0x000000000040eeec                GUID_SYSTEM_BUTTON_SUBGROUP
 .rdata$GUID_SYSTEM_COOLING_POLICY
                0x000000000040eefc       0x10 /usr/lib/gcc/i686-w64-mingw32/4.8/../../../../i686-w64-mingw32/lib/../lib/libuuid.a(lib32_libuuid_a-uuid.o)
                0x000000000040eefc                GUID_SYSTEM_COOLING_POLICY
 .rdata$GUID_TRISTATE
                0x000000000040ef0c       0x10 /usr/lib/gcc/i686-w64-mingw32/4.8/../../../../i686-w64-mingw32/lib/../lib/libuuid.a(lib32_libuuid_a-uuid.o)
                0x000000000040ef0c                GUID_TRISTATE
 .rdata$GUID_TYPICAL_POWER_SAVINGS
                0x000000000040ef1c       0x10 /usr/lib/gcc/i686-w64-mingw32/4.8/../../../../i686-w64-mingw32/lib/../lib/libuuid.a(lib32_libuuid_a-uuid.o)
                0x000000000040ef1c                GUID_TYPICAL_POWER_SAVINGS
 .rdata$GUID_UNATTEND_SLEEP_TIMEOUT
                0x000000000040ef2c       0x10 /usr/lib/gcc/i686-w64-mingw32/4.8/../../../../i686-w64-mingw32/lib/../lib/libuuid.a(lib32_libuuid_a-uuid.o)
                0x000000000040ef2c                GUID_UNATTEND_SLEEP_TIMEOUT
 .rdata$GUID_USERINTERFACEBUTTON_ACTION
                0x000000000040ef3c       0x10 /usr/lib/gcc/i686-w64-mingw32/4.8/../../../../i686-w64-mingw32/lib/../lib/libuuid.a(lib32_libuuid_a-uuid.o)
                0x000000000040ef3c                GUID_USERINTERFACEBUTTON_ACTION
 .rdata$GUID_VIDEO_ADAPTIVE_DISPLAY_BRIGHTNESS
                0x000000000040ef4c       0x10 /usr/lib/gcc/i686-w64-mingw32/4.8/../../../../i686-w64-mingw32/lib/../lib/libuuid.a(lib32_libuuid_a-uuid.o)
                0x000000000040ef4c                GUID_VIDEO_ADAPTIVE_DISPLAY_BRIGHTNESS
 .rdata$GUID_VIDEO_ADAPTIVE_PERCENT_INCREASE
                0x000000000040ef5c       0x10 /usr/lib/gcc/i686-w64-mingw32/4.8/../../../../i686-w64-mingw32/lib/../lib/libuuid.a(lib32_libuuid_a-uuid.o)
                0x000000000040ef5c                GUID_VIDEO_ADAPTIVE_PERCENT_INCREASE
 .rdata$GUID_VIDEO_ADAPTIVE_POWERDOWN
                0x000000000040ef6c       0x10 /usr/lib/gcc/i686-w64-mingw32/4.8/../../../../i686-w64-mingw32/lib/../lib/libuuid.a(lib32_libuuid_a-uuid.o)
                0x000000000040ef6c                GUID_VIDEO_ADAPTIVE_POWERDOWN
 .rdata$GUID_VIDEO_ANNOYANCE_TIMEOUT
                0x000000000040ef7c       0x10 /usr/lib/gcc/i686-w64-mingw32/4.8/../../../../i686-w64-mingw32/lib/../lib/libuuid.a(lib32_libuuid_a-uuid.o)
                0x000000000040ef7c                GUID_VIDEO_ANNOYANCE_TIMEOUT
 .rdata$GUID_VIDEO_CONSOLE_LOCK_TIMEOUT
                0x000000000040ef8c       0x10 /usr/lib/gcc/i686-w64-mingw32/4.8/../../../../i686-w64-mingw32/lib/../lib/libuuid.a(lib32_libuuid_a-uuid.o)
                0x000000000040ef8c                GUID_VIDEO_CONSOLE_LOCK_TIMEOUT
 .rdata$GUID_VIDEO_CURRENT_MONITOR_BRIGHTNESS
                0x000000000040ef9c       0x10 /usr/lib/gcc/i686-w64-mingw32/4.8/../../../../i686-w64-mingw32/lib/../lib/libuuid.a(lib32_libuuid_a-uuid.o)
                0x000000000040ef9c                GUID_VIDEO_CURRENT_MONITOR_BRIGHTNESS
 .rdata$GUID_VIDEO_DIM_TIMEOUT
                0x000000000040efac       0x10 /usr/lib/gcc/i686-w64-mingw32/4.8/../../../../i686-w64-mingw32/lib/../lib/libuuid.a(lib32_libuuid_a-uuid.o)
                0x000000000040efac                GUID_VIDEO_DIM_TIMEOUT
 .rdata$GUID_VIDEO_POWERDOWN_TIMEOUT
                0x000000000040efbc       0x10 /usr/lib/gcc/i686-w64-mingw32/4.8/../../../../i686-w64-mingw32/lib/../lib/libuuid.a(lib32_libuuid_a-uuid.o)
                0x000000000040efbc                GUID_VIDEO_POWERDOWN_TIMEOUT
 .rdata$GUID_VIDEO_SUBGROUP
                0x000000000040efcc       0x10 /usr/lib/gcc/i686-w64-mingw32/4.8/../../../../i686-w64-mingw32/lib/../lib/libuuid.a(lib32_libuuid_a-uuid.o)
                0x000000000040efcc                GUID_VIDEO_SUBGROUP
 .rdata$GUID_XPOS
                0x000000000040efdc       0x10 /usr/lib/gcc/i686-w64-mingw32/4.8/../../../../i686-w64-mingw32/lib/../lib/libuuid.a(lib32_libuuid_a-uuid.o)
                0x000000000040efdc                GUID_XPOS
 .rdata$GUID_XPOSPIXEL
                0x000000000040efec       0x10 /usr/lib/gcc/i686-w64-mingw32/4.8/../../../../i686-w64-mingw32/lib/../lib/libuuid.a(lib32_libuuid_a-uuid.o)
                0x000000000040efec                GUID_XPOSPIXEL
 .rdata$GUID_XSIZE
                0x000000000040effc       0x10 /usr/lib/gcc/i686-w64-mingw32/4.8/../../../../i686-w64-mingw32/lib/../lib/libuuid.a(lib32_libuuid_a-uuid.o)
                0x000000000040effc                GUID_XSIZE
 .rdata$GUID_XSIZEPIXEL
                0x000000000040f00c       0x10 /usr/lib/gcc/i686-w64-mingw32/4.8/../../../../i686-w64-mingw32/lib/../lib/libuuid.a(lib32_libuuid_a-uuid.o)
                0x000000000040f00c                GUID_XSIZEPIXEL
 .rdata$GUID_YPOS
                0x000000000040f01c       0x10 /usr/lib/gcc/i686-w64-mingw32/4.8/../../../../i686-w64-mingw32/lib/../lib/libuuid.a(lib32_libuuid_a-uuid.o)
                0x000000000040f01c                GUID_YPOS
 .rdata$GUID_YPOSPIXEL
                0x000000000040f02c       0x10 /usr/lib/gcc/i686-w64-mingw32/4.8/../../../../i686-w64-mingw32/lib/../lib/libuuid.a(lib32_libuuid_a-uuid.o)
                0x000000000040f02c                GUID_YPOSPIXEL
 .rdata$GUID_YSIZE
                0x000000000040f03c       0x10 /usr/lib/gcc/i686-w64-mingw32/4.8/../../../../i686-w64-mingw32/lib/../lib/libuuid.a(lib32_libuuid_a-uuid.o)
                0x000000000040f03c                GUID_YSIZE
 .rdata$GUID_YSIZEPIXEL
                0x000000000040f04c       0x10 /usr/lib/gcc/i686-w64-mingw32/4.8/../../../../i686-w64-mingw32/lib/../lib/libuuid.a(lib32_libuuid_a-uuid.o)
                0x000000000040f04c                GUID_YSIZEPIXEL
 .rdata$IID_AsyncIAdviseSink
                0x000000000040f05c       0x10 /usr/lib/gcc/i686-w64-mingw32/4.8/../../../../i686-w64-mingw32/lib/../lib/libuuid.a(lib32_libuuid_a-uuid.o)
                0x000000000040f05c                IID_AsyncIAdviseSink
 .rdata$IID_AsyncIAdviseSink2
                0x000000000040f06c       0x10 /usr/lib/gcc/i686-w64-mingw32/4.8/../../../../i686-w64-mingw32/lib/../lib/libuuid.a(lib32_libuuid_a-uuid.o)
                0x000000000040f06c                IID_AsyncIAdviseSink2
 .rdata$IID_AsyncIMultiQI
                0x000000000040f07c       0x10 /usr/lib/gcc/i686-w64-mingw32/4.8/../../../../i686-w64-mingw32/lib/../lib/libuuid.a(lib32_libuuid_a-uuid.o)
                0x000000000040f07c                IID_AsyncIMultiQI
 .rdata$IID_AsyncIUnknown
                0x000000000040f08c       0x10 /usr/lib/gcc/i686-w64-mingw32/4.8/../../../../i686-w64-mingw32/lib/../lib/libuuid.a(lib32_libuuid_a-uuid.o)
                0x000000000040f08c                IID_AsyncIUnknown
 .rdata$IID_CDefView
                0x000000000040f09c       0x10 /usr/lib/gcc/i686-w64-mingw32/4.8/../../../../i686-w64-mingw32/lib/../lib/libuuid.a(lib32_libuuid_a-uuid.o)
                0x000000000040f09c                IID_CDefView
 .rdata$IID_DHyperLink
                0x000000000040f0ac       0x10 /usr/lib/gcc/i686-w64-mingw32/4.8/../../../../i686-w64-mingw32/lib/../lib/libshell32.a(lib32_libshell32_a-shell32.o)
                0x000000000040f0ac                IID_DHyperLink
 .rdata$IID_DIExplorer
                0x000000000040f0bc       0x10 /usr/lib/gcc/i686-w64-mingw32/4.8/../../../../i686-w64-mingw32/lib/../lib/libshell32.a(lib32_libshell32_a-shell32.o)
                0x000000000040f0bc                IID_DIExplorer
 .rdata$IID_IACList
                0x000000000040f0cc       0x10 /usr/lib/gcc/i686-w64-mingw32/4.8/../../../../i686-w64-mingw32/lib/../lib/libuuid.a(lib32_libuuid_a-uuid.o)
                0x000000000040f0cc                IID_IACList
 .rdata$IID_IACList2
                0x000000000040f0dc       0x10 /usr/lib/gcc/i686-w64-mingw32/4.8/../../../../i686-w64-mingw32/lib/../lib/libuuid.a(lib32_libuuid_a-uuid.o)
                0x000000000040f0dc                IID_IACList2
 .rdata$IID_IADesktopP2
                0x000000000040f0ec       0x10 /usr/lib/gcc/i686-w64-mingw32/4.8/../../../../i686-w64-mingw32/lib/../lib/libuuid.a(lib32_libuuid_a-uuid.o)
                0x000000000040f0ec                IID_IADesktopP2
 .rdata$IID_IAccIdentity
                0x000000000040f0fc       0x10 /usr/lib/gcc/i686-w64-mingw32/4.8/../../../../i686-w64-mingw32/lib/../lib/libuuid.a(lib32_libuuid_a-uuid.o)
                0x000000000040f0fc                IID_IAccIdentity
 .rdata$IID_IAccPropMgrInternal
                0x000000000040f10c       0x10 /usr/lib/gcc/i686-w64-mingw32/4.8/../../../../i686-w64-mingw32/lib/../lib/libuuid.a(lib32_libuuid_a-uuid.o)
                0x000000000040f10c                IID_IAccPropMgrInternal
 .rdata$IID_IAccPropServer
                0x000000000040f11c       0x10 /usr/lib/gcc/i686-w64-mingw32/4.8/../../../../i686-w64-mingw32/lib/../lib/libuuid.a(lib32_libuuid_a-uuid.o)
                0x000000000040f11c                IID_IAccPropServer
 .rdata$IID_IAccPropServices
                0x000000000040f12c       0x10 /usr/lib/gcc/i686-w64-mingw32/4.8/../../../../i686-w64-mingw32/lib/../lib/libuuid.a(lib32_libuuid_a-uuid.o)
                0x000000000040f12c                IID_IAccPropServices
 .rdata$IID_IAccessibilityDockingService
                0x000000000040f13c       0x10 /usr/lib/gcc/i686-w64-mingw32/4.8/../../../../i686-w64-mingw32/lib/../lib/libuuid.a(lib32_libuuid_a-uuid.o)
                0x000000000040f13c                IID_IAccessibilityDockingService
 .rdata$IID_IAccessibilityDockingServiceCallback
                0x000000000040f14c       0x10 /usr/lib/gcc/i686-w64-mingw32/4.8/../../../../i686-w64-mingw32/lib/../lib/libuuid.a(lib32_libuuid_a-uuid.o)
                0x000000000040f14c                IID_IAccessibilityDockingServiceCallback
 .rdata$IID_IAccessible
                0x000000000040f15c       0x10 /usr/lib/gcc/i686-w64-mingw32/4.8/../../../../i686-w64-mingw32/lib/../lib/libuuid.a(lib32_libuuid_a-uuid.o)
                0x000000000040f15c                IID_IAccessible
 .rdata$IID_IAccessibleEx
                0x000000000040f16c       0x10 /usr/lib/gcc/i686-w64-mingw32/4.8/../../../../i686-w64-mingw32/lib/../lib/libuuid.a(lib32_libuuid_a-uuid.o)
                0x000000000040f16c                IID_IAccessibleEx
 .rdata$IID_IAccessibleHandler
                0x000000000040f17c       0x10 /usr/lib/gcc/i686-w64-mingw32/4.8/../../../../i686-w64-mingw32/lib/../lib/libuuid.a(lib32_libuuid_a-uuid.o)
                0x000000000040f17c                IID_IAccessibleHandler
 .rdata$IID_IAccessibleObject
                0x000000000040f18c       0x10 /usr/lib/gcc/i686-w64-mingw32/4.8/../../../../i686-w64-mingw32/lib/../lib/libuuid.a(lib32_libuuid_a-uuid.o)
                0x000000000040f18c                IID_IAccessibleObject
 .rdata$IID_IActionProgress
                0x000000000040f19c       0x10 /usr/lib/gcc/i686-w64-mingw32/4.8/../../../../i686-w64-mingw32/lib/../lib/libuuid.a(lib32_libuuid_a-uuid.o)
                0x000000000040f19c                IID_IActionProgress
 .rdata$IID_IActionProgressDialog
                0x000000000040f1ac       0x10 /usr/lib/gcc/i686-w64-mingw32/4.8/../../../../i686-w64-mingw32/lib/../lib/libuuid.a(lib32_libuuid_a-uuid.o)
                0x000000000040f1ac                IID_IActionProgressDialog
 .rdata$IID_IActiveDesktop
                0x000000000040f1bc       0x10 /usr/lib/gcc/i686-w64-mingw32/4.8/../../../../i686-w64-mingw32/lib/../lib/libuuid.a(lib32_libuuid_a-uuid.o)
                0x000000000040f1bc                IID_IActiveDesktop
 .rdata$IID_IActiveDesktopP
                0x000000000040f1cc       0x10 /usr/lib/gcc/i686-w64-mingw32/4.8/../../../../i686-w64-mingw32/lib/../lib/libuuid.a(lib32_libuuid_a-uuid.o)
                0x000000000040f1cc                IID_IActiveDesktopP
 .rdata$IID_IAddrExclusionControl
                0x000000000040f1dc       0x10 /usr/lib/gcc/i686-w64-mingw32/4.8/../../../../i686-w64-mingw32/lib/../lib/libuuid.a(lib32_libuuid_a-uuid.o)
                0x000000000040f1dc                IID_IAddrExclusionControl
 .rdata$IID_IAddrTrackingControl
                0x000000000040f1ec       0x10 /usr/lib/gcc/i686-w64-mingw32/4.8/../../../../i686-w64-mingw32/lib/../lib/libuuid.a(lib32_libuuid_a-uuid.o)
                0x000000000040f1ec                IID_IAddrTrackingControl
 .rdata$IID_IAdviseSink
                0x000000000040f1fc       0x10 /usr/lib/gcc/i686-w64-mingw32/4.8/../../../../i686-w64-mingw32/lib/../lib/libuuid.a(lib32_libuuid_a-uuid.o)
                0x000000000040f1fc                IID_IAdviseSink
 .rdata$IID_IAdviseSink2
                0x000000000040f20c       0x10 /usr/lib/gcc/i686-w64-mingw32/4.8/../../../../i686-w64-mingw32/lib/../lib/libuuid.a(lib32_libuuid_a-uuid.o)
                0x000000000040f20c                IID_IAdviseSink2
 .rdata$IID_IAdviseSinkEx
                0x000000000040f21c       0x10 /usr/lib/gcc/i686-w64-mingw32/4.8/../../../../i686-w64-mingw32/lib/../lib/libuuid.a(lib32_libuuid_a-uuid.o)
                0x000000000040f21c                IID_IAdviseSinkEx
 .rdata$IID_IAgileObject
                0x000000000040f22c       0x10 /usr/lib/gcc/i686-w64-mingw32/4.8/../../../../i686-w64-mingw32/lib/../lib/libuuid.a(lib32_libuuid_a-uuid.o)
                0x000000000040f22c                IID_IAgileObject
 .rdata$IID_IApartmentShutdown
                0x000000000040f23c       0x10 /usr/lib/gcc/i686-w64-mingw32/4.8/../../../../i686-w64-mingw32/lib/../lib/libuuid.a(lib32_libuuid_a-uuid.o)
                0x000000000040f23c                IID_IApartmentShutdown
 .rdata$IID_IAppVisibility
                0x000000000040f24c       0x10 /usr/lib/gcc/i686-w64-mingw32/4.8/../../../../i686-w64-mingw32/lib/../lib/libuuid.a(lib32_libuuid_a-uuid.o)
                0x000000000040f24c                IID_IAppVisibility
 .rdata$IID_IAppVisibilityEvents
                0x000000000040f25c       0x10 /usr/lib/gcc/i686-w64-mingw32/4.8/../../../../i686-w64-mingw32/lib/../lib/libuuid.a(lib32_libuuid_a-uuid.o)
                0x000000000040f25c                IID_IAppVisibilityEvents
 .rdata$IID_IApplicationActivationManager
                0x000000000040f26c       0x10 /usr/lib/gcc/i686-w64-mingw32/4.8/../../../../i686-w64-mingw32/lib/../lib/libuuid.a(lib32_libuuid_a-uuid.o)
                0x000000000040f26c                IID_IApplicationActivationManager
 .rdata$IID_IApplicationAssociationRegistration
                0x000000000040f27c       0x10 /usr/lib/gcc/i686-w64-mingw32/4.8/../../../../i686-w64-mingw32/lib/../lib/libuuid.a(lib32_libuuid_a-uuid.o)
                0x000000000040f27c                IID_IApplicationAssociationRegistration
 .rdata$IID_IApplicationAssociationRegistrationUI
                0x000000000040f28c       0x10 /usr/lib/gcc/i686-w64-mingw32/4.8/../../../../i686-w64-mingw32/lib/../lib/libshell32.a(lib32_libshell32_a-shell32.o)
                0x000000000040f28c                IID_IApplicationAssociationRegistrationUI
 .rdata$IID_IApplicationDesignModeSettings
                0x000000000040f29c       0x10 /usr/lib/gcc/i686-w64-mingw32/4.8/../../../../i686-w64-mingw32/lib/../lib/libuuid.a(lib32_libuuid_a-uuid.o)
                0x000000000040f29c                IID_IApplicationDesignModeSettings
 .rdata$IID_IApplicationDestinations
                0x000000000040f2ac       0x10 /usr/lib/gcc/i686-w64-mingw32/4.8/../../../../i686-w64-mingw32/lib/../lib/libuuid.a(lib32_libuuid_a-uuid.o)
                0x000000000040f2ac                IID_IApplicationDestinations
 .rdata$IID_IApplicationDocumentLists
                0x000000000040f2bc       0x10 /usr/lib/gcc/i686-w64-mingw32/4.8/../../../../i686-w64-mingw32/lib/../lib/libuuid.a(lib32_libuuid_a-uuid.o)
                0x000000000040f2bc                IID_IApplicationDocumentLists
 .rdata$IID_IAssocHandler
                0x000000000040f2cc       0x10 /usr/lib/gcc/i686-w64-mingw32/4.8/../../../../i686-w64-mingw32/lib/../lib/libuuid.a(lib32_libuuid_a-uuid.o)
                0x000000000040f2cc                IID_IAssocHandler
 .rdata$IID_IAssocHandlerInvoker
                0x000000000040f2dc       0x10 /usr/lib/gcc/i686-w64-mingw32/4.8/../../../../i686-w64-mingw32/lib/../lib/libuuid.a(lib32_libuuid_a-uuid.o)
                0x000000000040f2dc                IID_IAssocHandlerInvoker
 .rdata$IID_IAsyncManager
                0x000000000040f2ec       0x10 /usr/lib/gcc/i686-w64-mingw32/4.8/../../../../i686-w64-mingw32/lib/../lib/libuuid.a(lib32_libuuid_a-uuid.o)
                0x000000000040f2ec                IID_IAsyncManager
 .rdata$IID_IAsyncMoniker
                0x000000000040f2fc       0x10 /usr/lib/gcc/i686-w64-mingw32/4.8/../../../../i686-w64-mingw32/lib/../lib/libuuid.a(lib32_libuuid_a-uuid.o)
                0x000000000040f2fc                IID_IAsyncMoniker
 .rdata$IID_IAsyncOperation
                0x000000000040f30c       0x10 /usr/lib/gcc/i686-w64-mingw32/4.8/../../../../i686-w64-mingw32/lib/../lib/libuuid.a(lib32_libuuid_a-uuid.o)
                0x000000000040f30c                IID_IAsyncOperation
 .rdata$IID_IAsyncRpcChannelBuffer
                0x000000000040f31c       0x10 /usr/lib/gcc/i686-w64-mingw32/4.8/../../../../i686-w64-mingw32/lib/../lib/libuuid.a(lib32_libuuid_a-uuid.o)
                0x000000000040f31c                IID_IAsyncRpcChannelBuffer
 .rdata$IID_IAttachmentExecute
                0x000000000040f32c       0x10 /usr/lib/gcc/i686-w64-mingw32/4.8/../../../../i686-w64-mingw32/lib/../lib/libuuid.a(lib32_libuuid_a-uuid.o)
                0x000000000040f32c                IID_IAttachmentExecute
 .rdata$IID_IAuthenticate
                0x000000000040f33c       0x10 /usr/lib/gcc/i686-w64-mingw32/4.8/../../../../i686-w64-mingw32/lib/../lib/libuuid.a(lib32_libuuid_a-uuid.o)
                0x000000000040f33c                IID_IAuthenticate
 .rdata$IID_IAuthenticateEx
                0x000000000040f34c       0x10 /usr/lib/gcc/i686-w64-mingw32/4.8/../../../../i686-w64-mingw32/lib/../lib/libuuid.a(lib32_libuuid_a-uuid.o)
                0x000000000040f34c                IID_IAuthenticateEx
 .rdata$IID_IAutoComplete
                0x000000000040f35c       0x10 /usr/lib/gcc/i686-w64-mingw32/4.8/../../../../i686-w64-mingw32/lib/../lib/libshell32.a(lib32_libshell32_a-shell32.o)
                0x000000000040f35c                IID_IAutoComplete
 .rdata$IID_IAutoComplete2
                0x000000000040f36c       0x10 /usr/lib/gcc/i686-w64-mingw32/4.8/../../../../i686-w64-mingw32/lib/../lib/libshell32.a(lib32_libshell32_a-shell32.o)
                0x000000000040f36c                IID_IAutoComplete2
 .rdata$IID_IAutoCompleteDropDown
                0x000000000040f37c       0x10 /usr/lib/gcc/i686-w64-mingw32/4.8/../../../../i686-w64-mingw32/lib/../lib/libuuid.a(lib32_libuuid_a-uuid.o)
                0x000000000040f37c                IID_IAutoCompleteDropDown
 .rdata$IID_IBandHost
                0x000000000040f38c       0x10 /usr/lib/gcc/i686-w64-mingw32/4.8/../../../../i686-w64-mingw32/lib/../lib/libuuid.a(lib32_libuuid_a-uuid.o)
                0x000000000040f38c                IID_IBandHost
 .rdata$IID_IBandSite
                0x000000000040f39c       0x10 /usr/lib/gcc/i686-w64-mingw32/4.8/../../../../i686-w64-mingw32/lib/../lib/libuuid.a(lib32_libuuid_a-uuid.o)
                0x000000000040f39c                IID_IBandSite
 .rdata$IID_IBanneredBar
                0x000000000040f3ac       0x10 /usr/lib/gcc/i686-w64-mingw32/4.8/../../../../i686-w64-mingw32/lib/../lib/libuuid.a(lib32_libuuid_a-uuid.o)
                0x000000000040f3ac                IID_IBanneredBar
 .rdata$IID_IBindCallbackRedirect
                0x000000000040f3bc       0x10 /usr/lib/gcc/i686-w64-mingw32/4.8/../../../../i686-w64-mingw32/lib/../lib/libuuid.a(lib32_libuuid_a-uuid.o)
                0x000000000040f3bc                IID_IBindCallbackRedirect
 .rdata$IID_IBindCtx
                0x000000000040f3cc       0x10 /usr/lib/gcc/i686-w64-mingw32/4.8/../../../../i686-w64-mingw32/lib/../lib/libuuid.a(lib32_libuuid_a-uuid.o)
                0x000000000040f3cc                IID_IBindCtx
 .rdata$IID_IBindHost
                0x000000000040f3dc       0x10 /usr/lib/gcc/i686-w64-mingw32/4.8/../../../../i686-w64-mingw32/lib/../lib/libuuid.a(lib32_libuuid_a-uuid.o)
                0x000000000040f3dc                IID_IBindHost
 .rdata$IID_IBindProtocol
                0x000000000040f3ec       0x10 /usr/lib/gcc/i686-w64-mingw32/4.8/../../../../i686-w64-mingw32/lib/../lib/libuuid.a(lib32_libuuid_a-uuid.o)
                0x000000000040f3ec                IID_IBindProtocol
 .rdata$IID_IBindStatusCallback
                0x000000000040f3fc       0x10 /usr/lib/gcc/i686-w64-mingw32/4.8/../../../../i686-w64-mingw32/lib/../lib/libuuid.a(lib32_libuuid_a-uuid.o)
                0x000000000040f3fc                IID_IBindStatusCallback
 .rdata$IID_IBindStatusCallbackEx
                0x000000000040f40c       0x10 /usr/lib/gcc/i686-w64-mingw32/4.8/../../../../i686-w64-mingw32/lib/../lib/libuuid.a(lib32_libuuid_a-uuid.o)
                0x000000000040f40c                IID_IBindStatusCallbackEx
 .rdata$IID_IBindStatusCallbackMsg
                0x000000000040f41c       0x10 /usr/lib/gcc/i686-w64-mingw32/4.8/../../../../i686-w64-mingw32/lib/../lib/libuuid.a(lib32_libuuid_a-uuid.o)
                0x000000000040f41c                IID_IBindStatusCallbackMsg
 .rdata$IID_IBinding
                0x000000000040f42c       0x10 /usr/lib/gcc/i686-w64-mingw32/4.8/../../../../i686-w64-mingw32/lib/../lib/libuuid.a(lib32_libuuid_a-uuid.o)
                0x000000000040f42c                IID_IBinding
 .rdata$IID_IBlockingLock
                0x000000000040f43c       0x10 /usr/lib/gcc/i686-w64-mingw32/4.8/../../../../i686-w64-mingw32/lib/../lib/libuuid.a(lib32_libuuid_a-uuid.o)
                0x000000000040f43c                IID_IBlockingLock
 .rdata$IID_IBriefcaseStg
                0x000000000040f44c       0x10 /usr/lib/gcc/i686-w64-mingw32/4.8/../../../../i686-w64-mingw32/lib/../lib/libuuid.a(lib32_libuuid_a-uuid.o)
                0x000000000040f44c                IID_IBriefcaseStg
 .rdata$IID_IBrowserFrameOptions
                0x000000000040f45c       0x10 /usr/lib/gcc/i686-w64-mingw32/4.8/../../../../i686-w64-mingw32/lib/../lib/libuuid.a(lib32_libuuid_a-uuid.o)
                0x000000000040f45c                IID_IBrowserFrameOptions
 .rdata$IID_ICDBurn
                0x000000000040f46c       0x10 /usr/lib/gcc/i686-w64-mingw32/4.8/../../../../i686-w64-mingw32/lib/../lib/libuuid.a(lib32_libuuid_a-uuid.o)
                0x000000000040f46c                IID_ICDBurn
 .rdata$IID_ICDBurnExt
                0x000000000040f47c       0x10 /usr/lib/gcc/i686-w64-mingw32/4.8/../../../../i686-w64-mingw32/lib/../lib/libuuid.a(lib32_libuuid_a-uuid.o)
                0x000000000040f47c                IID_ICDBurnExt
 .rdata$IID_ICallFactory
                0x000000000040f48c       0x10 /usr/lib/gcc/i686-w64-mingw32/4.8/../../../../i686-w64-mingw32/lib/../lib/libuuid.a(lib32_libuuid_a-uuid.o)
                0x000000000040f48c                IID_ICallFactory
 .rdata$IID_ICancelMethodCalls
                0x000000000040f49c       0x10 /usr/lib/gcc/i686-w64-mingw32/4.8/../../../../i686-w64-mingw32/lib/../lib/libuuid.a(lib32_libuuid_a-uuid.o)
                0x000000000040f49c                IID_ICancelMethodCalls
 .rdata$IID_ICatInformation
                0x000000000040f4ac       0x10 /usr/lib/gcc/i686-w64-mingw32/4.8/../../../../i686-w64-mingw32/lib/../lib/libuuid.a(lib32_libuuid_a-uuid.o)
                0x000000000040f4ac                IID_ICatInformation
 .rdata$IID_ICatRegister
                0x000000000040f4bc       0x10 /usr/lib/gcc/i686-w64-mingw32/4.8/../../../../i686-w64-mingw32/lib/../lib/libuuid.a(lib32_libuuid_a-uuid.o)
                0x000000000040f4bc                IID_ICatRegister
 .rdata$IID_ICatalogFileInfo
                0x000000000040f4cc       0x10 /usr/lib/gcc/i686-w64-mingw32/4.8/../../../../i686-w64-mingw32/lib/../lib/libuuid.a(lib32_libuuid_a-uuid.o)
                0x000000000040f4cc                IID_ICatalogFileInfo
 .rdata$IID_ICategorizer
                0x000000000040f4dc       0x10 /usr/lib/gcc/i686-w64-mingw32/4.8/../../../../i686-w64-mingw32/lib/../lib/libuuid.a(lib32_libuuid_a-uuid.o)
                0x000000000040f4dc                IID_ICategorizer
 .rdata$IID_ICategoryProvider
                0x000000000040f4ec       0x10 /usr/lib/gcc/i686-w64-mingw32/4.8/../../../../i686-w64-mingw32/lib/../lib/libuuid.a(lib32_libuuid_a-uuid.o)
                0x000000000040f4ec                IID_ICategoryProvider
 .rdata$IID_IChannelHook
                0x000000000040f4fc       0x10 /usr/lib/gcc/i686-w64-mingw32/4.8/../../../../i686-w64-mingw32/lib/../lib/libuuid.a(lib32_libuuid_a-uuid.o)
                0x000000000040f4fc                IID_IChannelHook
 .rdata$IID_IClassActivator
                0x000000000040f50c       0x10 /usr/lib/gcc/i686-w64-mingw32/4.8/../../../../i686-w64-mingw32/lib/../lib/libuuid.a(lib32_libuuid_a-uuid.o)
                0x000000000040f50c                IID_IClassActivator
 .rdata$IID_IClassFactory
                0x000000000040f51c       0x10 /usr/lib/gcc/i686-w64-mingw32/4.8/../../../../i686-w64-mingw32/lib/../lib/libuuid.a(lib32_libuuid_a-uuid.o)
                0x000000000040f51c                IID_IClassFactory
 .rdata$IID_IClassFactory2
                0x000000000040f52c       0x10 /usr/lib/gcc/i686-w64-mingw32/4.8/../../../../i686-w64-mingw32/lib/../lib/libuuid.a(lib32_libuuid_a-uuid.o)
                0x000000000040f52c                IID_IClassFactory2
 .rdata$IID_IClientSecurity
                0x000000000040f53c       0x10 /usr/lib/gcc/i686-w64-mingw32/4.8/../../../../i686-w64-mingw32/lib/../lib/libuuid.a(lib32_libuuid_a-uuid.o)
                0x000000000040f53c                IID_IClientSecurity
 .rdata$IID_IClientSiteHandler
                0x000000000040f54c       0x10 /usr/lib/gcc/i686-w64-mingw32/4.8/../../../../i686-w64-mingw32/lib/../lib/libuuid.a(lib32_libuuid_a-uuid.o)
                0x000000000040f54c                IID_IClientSiteHandler
 .rdata$IID_ICodeInstall
                0x000000000040f55c       0x10 /usr/lib/gcc/i686-w64-mingw32/4.8/../../../../i686-w64-mingw32/lib/../lib/libuuid.a(lib32_libuuid_a-uuid.o)
                0x000000000040f55c                IID_ICodeInstall
 .rdata$IID_IColumnManager
                0x000000000040f56c       0x10 /usr/lib/gcc/i686-w64-mingw32/4.8/../../../../i686-w64-mingw32/lib/../lib/libuuid.a(lib32_libuuid_a-uuid.o)
                0x000000000040f56c                IID_IColumnManager
 .rdata$IID_IColumnProvider
                0x000000000040f57c       0x10 /usr/lib/gcc/i686-w64-mingw32/4.8/../../../../i686-w64-mingw32/lib/../lib/libuuid.a(lib32_libuuid_a-uuid.o)
                0x000000000040f57c                IID_IColumnProvider
 .rdata$IID_IComThreadingInfo
                0x000000000040f58c       0x10 /usr/lib/gcc/i686-w64-mingw32/4.8/../../../../i686-w64-mingw32/lib/../lib/libuuid.a(lib32_libuuid_a-uuid.o)
                0x000000000040f58c                IID_IComThreadingInfo
 .rdata$IID_ICommDlgBrowser
                0x000000000040f59c       0x10 /usr/lib/gcc/i686-w64-mingw32/4.8/../../../../i686-w64-mingw32/lib/../lib/libuuid.a(lib32_libuuid_a-uuid.o)
                0x000000000040f59c                IID_ICommDlgBrowser
 .rdata$IID_ICommDlgBrowser2
                0x000000000040f5ac       0x10 /usr/lib/gcc/i686-w64-mingw32/4.8/../../../../i686-w64-mingw32/lib/../lib/libuuid.a(lib32_libuuid_a-uuid.o)
                0x000000000040f5ac                IID_ICommDlgBrowser2
 .rdata$IID_ICommDlgBrowser3
                0x000000000040f5bc       0x10 /usr/lib/gcc/i686-w64-mingw32/4.8/../../../../i686-w64-mingw32/lib/../lib/libuuid.a(lib32_libuuid_a-uuid.o)
                0x000000000040f5bc                IID_ICommDlgBrowser3
 .rdata$IID_IComputerInfoChangeNotify
                0x000000000040f5cc       0x10 /usr/lib/gcc/i686-w64-mingw32/4.8/../../../../i686-w64-mingw32/lib/../lib/libuuid.a(lib32_libuuid_a-uuid.o)
                0x000000000040f5cc                IID_IComputerInfoChangeNotify
 .rdata$IID_ICondition
                0x000000000040f5dc       0x10 /usr/lib/gcc/i686-w64-mingw32/4.8/../../../../i686-w64-mingw32/lib/../lib/libuuid.a(lib32_libuuid_a-uuid.o)
                0x000000000040f5dc                IID_ICondition
 .rdata$IID_ICondition2
                0x000000000040f5ec       0x10 /usr/lib/gcc/i686-w64-mingw32/4.8/../../../../i686-w64-mingw32/lib/../lib/libuuid.a(lib32_libuuid_a-uuid.o)
                0x000000000040f5ec                IID_ICondition2
 .rdata$IID_IConnectionPoint
                0x000000000040f5fc       0x10 /usr/lib/gcc/i686-w64-mingw32/4.8/../../../../i686-w64-mingw32/lib/../lib/libuuid.a(lib32_libuuid_a-uuid.o)
                0x000000000040f5fc                IID_IConnectionPoint
 .rdata$IID_IConnectionPointContainer
                0x000000000040f60c       0x10 /usr/lib/gcc/i686-w64-mingw32/4.8/../../../../i686-w64-mingw32/lib/../lib/libuuid.a(lib32_libuuid_a-uuid.o)
                0x000000000040f60c                IID_IConnectionPointContainer
 .rdata$IID_IContextMenu
                0x000000000040f61c       0x10 /usr/lib/gcc/i686-w64-mingw32/4.8/../../../../i686-w64-mingw32/lib/../lib/libuuid.a(lib32_libuuid_a-uuid.o)
                0x000000000040f61c                IID_IContextMenu
 .rdata$IID_IContextMenu2
                0x000000000040f62c       0x10 /usr/lib/gcc/i686-w64-mingw32/4.8/../../../../i686-w64-mingw32/lib/../lib/libuuid.a(lib32_libuuid_a-uuid.o)
                0x000000000040f62c                IID_IContextMenu2
 .rdata$IID_IContextMenu3
                0x000000000040f63c       0x10 /usr/lib/gcc/i686-w64-mingw32/4.8/../../../../i686-w64-mingw32/lib/../lib/libuuid.a(lib32_libuuid_a-uuid.o)
                0x000000000040f63c                IID_IContextMenu3
 .rdata$IID_IContextMenuCB
                0x000000000040f64c       0x10 /usr/lib/gcc/i686-w64-mingw32/4.8/../../../../i686-w64-mingw32/lib/../lib/libuuid.a(lib32_libuuid_a-uuid.o)
                0x000000000040f64c                IID_IContextMenuCB
 .rdata$IID_IContextMenuSite
                0x000000000040f65c       0x10 /usr/lib/gcc/i686-w64-mingw32/4.8/../../../../i686-w64-mingw32/lib/../lib/libuuid.a(lib32_libuuid_a-uuid.o)
                0x000000000040f65c                IID_IContextMenuSite
 .rdata$IID_IContinue
                0x000000000040f66c       0x10 /usr/lib/gcc/i686-w64-mingw32/4.8/../../../../i686-w64-mingw32/lib/../lib/libuuid.a(lib32_libuuid_a-uuid.o)
                0x000000000040f66c                IID_IContinue
 .rdata$IID_IContinueCallback
                0x000000000040f67c       0x10 /usr/lib/gcc/i686-w64-mingw32/4.8/../../../../i686-w64-mingw32/lib/../lib/libuuid.a(lib32_libuuid_a-uuid.o)
                0x000000000040f67c                IID_IContinueCallback
 .rdata$IID_ICopyHookA
                0x000000000040f68c       0x10 /usr/lib/gcc/i686-w64-mingw32/4.8/../../../../i686-w64-mingw32/lib/../lib/libuuid.a(lib32_libuuid_a-uuid.o)
                0x000000000040f68c                IID_ICopyHookA
 .rdata$IID_ICopyHookW
                0x000000000040f69c       0x10 /usr/lib/gcc/i686-w64-mingw32/4.8/../../../../i686-w64-mingw32/lib/../lib/libuuid.a(lib32_libuuid_a-uuid.o)
                0x000000000040f69c                IID_ICopyHookW
 .rdata$IID_ICreateErrorInfo
                0x000000000040f6ac       0x10 /usr/lib/gcc/i686-w64-mingw32/4.8/../../../../i686-w64-mingw32/lib/../lib/libuuid.a(lib32_libuuid_a-uuid.o)
                0x000000000040f6ac                IID_ICreateErrorInfo
 .rdata$IID_ICreateObject
                0x000000000040f6bc       0x10 /usr/lib/gcc/i686-w64-mingw32/4.8/../../../../i686-w64-mingw32/lib/../lib/libuuid.a(lib32_libuuid_a-uuid.o)
                0x000000000040f6bc                IID_ICreateObject
 .rdata$IID_ICreateTypeInfo
                0x000000000040f6cc       0x10 /usr/lib/gcc/i686-w64-mingw32/4.8/../../../../i686-w64-mingw32/lib/../lib/libuuid.a(lib32_libuuid_a-uuid.o)
                0x000000000040f6cc                IID_ICreateTypeInfo
 .rdata$IID_ICreateTypeInfo2
                0x000000000040f6dc       0x10 /usr/lib/gcc/i686-w64-mingw32/4.8/../../../../i686-w64-mingw32/lib/../lib/libuuid.a(lib32_libuuid_a-uuid.o)
                0x000000000040f6dc                IID_ICreateTypeInfo2
 .rdata$IID_ICreateTypeLib
                0x000000000040f6ec       0x10 /usr/lib/gcc/i686-w64-mingw32/4.8/../../../../i686-w64-mingw32/lib/../lib/libuuid.a(lib32_libuuid_a-uuid.o)
                0x000000000040f6ec                IID_ICreateTypeLib
 .rdata$IID_ICreateTypeLib2
                0x000000000040f6fc       0x10 /usr/lib/gcc/i686-w64-mingw32/4.8/../../../../i686-w64-mingw32/lib/../lib/libuuid.a(lib32_libuuid_a-uuid.o)
                0x000000000040f6fc                IID_ICreateTypeLib2
 .rdata$IID_ICurrentItem
                0x000000000040f70c       0x10 /usr/lib/gcc/i686-w64-mingw32/4.8/../../../../i686-w64-mingw32/lib/../lib/libuuid.a(lib32_libuuid_a-uuid.o)
                0x000000000040f70c                IID_ICurrentItem
 .rdata$IID_ICurrentWorkingDirectory
                0x000000000040f71c       0x10 /usr/lib/gcc/i686-w64-mingw32/4.8/../../../../i686-w64-mingw32/lib/../lib/libuuid.a(lib32_libuuid_a-uuid.o)
                0x000000000040f71c                IID_ICurrentWorkingDirectory
 .rdata$IID_ICustomDestinationList
                0x000000000040f72c       0x10 /usr/lib/gcc/i686-w64-mingw32/4.8/../../../../i686-w64-mingw32/lib/../lib/libuuid.a(lib32_libuuid_a-uuid.o)
                0x000000000040f72c                IID_ICustomDestinationList
 .rdata$IID_IDataAdviseHolder
                0x000000000040f73c       0x10 /usr/lib/gcc/i686-w64-mingw32/4.8/../../../../i686-w64-mingw32/lib/../lib/libuuid.a(lib32_libuuid_a-uuid.o)
                0x000000000040f73c                IID_IDataAdviseHolder
 .rdata$IID_IDataFilter
                0x000000000040f74c       0x10 /usr/lib/gcc/i686-w64-mingw32/4.8/../../../../i686-w64-mingw32/lib/../lib/libuuid.a(lib32_libuuid_a-uuid.o)
                0x000000000040f74c                IID_IDataFilter
 .rdata$IID_IDataObject
                0x000000000040f75c       0x10 /usr/lib/gcc/i686-w64-mingw32/4.8/../../../../i686-w64-mingw32/lib/../lib/libuuid.a(lib32_libuuid_a-uuid.o)
                0x000000000040f75c                IID_IDataObject
 .rdata$IID_IDataObjectProvider
                0x000000000040f76c       0x10 /usr/lib/gcc/i686-w64-mingw32/4.8/../../../../i686-w64-mingw32/lib/../lib/libuuid.a(lib32_libuuid_a-uuid.o)
                0x000000000040f76c                IID_IDataObjectProvider
 .rdata$IID_IDataTransferManagerInterop
                0x000000000040f77c       0x10 /usr/lib/gcc/i686-w64-mingw32/4.8/../../../../i686-w64-mingw32/lib/../lib/libuuid.a(lib32_libuuid_a-uuid.o)
                0x000000000040f77c                IID_IDataTransferManagerInterop
 .rdata$IID_IDebug
                0x000000000040f78c       0x10 /usr/lib/gcc/i686-w64-mingw32/4.8/../../../../i686-w64-mingw32/lib/../lib/libuuid.a(lib32_libuuid_a-uuid.o)
                0x000000000040f78c                IID_IDebug
 .rdata$IID_IDebugStream
                0x000000000040f79c       0x10 /usr/lib/gcc/i686-w64-mingw32/4.8/../../../../i686-w64-mingw32/lib/../lib/libuuid.a(lib32_libuuid_a-uuid.o)
                0x000000000040f79c                IID_IDebugStream
 .rdata$IID_IDefViewFrame
                0x000000000040f7ac       0x10 /usr/lib/gcc/i686-w64-mingw32/4.8/../../../../i686-w64-mingw32/lib/../lib/libuuid.a(lib32_libuuid_a-uuid.o)
                0x000000000040f7ac                IID_IDefViewFrame
 .rdata$IID_IDefViewID
                0x000000000040f7bc       0x10 /usr/lib/gcc/i686-w64-mingw32/4.8/../../../../i686-w64-mingw32/lib/../lib/libuuid.a(lib32_libuuid_a-uuid.o)
                0x000000000040f7bc                IID_IDefViewID
 .rdata$IID_IDefaultExtractIconInit
                0x000000000040f7cc       0x10 /usr/lib/gcc/i686-w64-mingw32/4.8/../../../../i686-w64-mingw32/lib/../lib/libuuid.a(lib32_libuuid_a-uuid.o)
                0x000000000040f7cc                IID_IDefaultExtractIconInit
 .rdata$IID_IDefaultFolderMenuInitialize
                0x000000000040f7dc       0x10 /usr/lib/gcc/i686-w64-mingw32/4.8/../../../../i686-w64-mingw32/lib/../lib/libuuid.a(lib32_libuuid_a-uuid.o)
                0x000000000040f7dc                IID_IDefaultFolderMenuInitialize
 .rdata$IID_IDelayedPropertyStoreFactory
                0x000000000040f7ec       0x10 /usr/lib/gcc/i686-w64-mingw32/4.8/../../../../i686-w64-mingw32/lib/../lib/libuuid.a(lib32_libuuid_a-uuid.o)
                0x000000000040f7ec                IID_IDelayedPropertyStoreFactory
 .rdata$IID_IDelegateFolder
                0x000000000040f7fc       0x10 /usr/lib/gcc/i686-w64-mingw32/4.8/../../../../i686-w64-mingw32/lib/../lib/libuuid.a(lib32_libuuid_a-uuid.o)
                0x000000000040f7fc                IID_IDelegateFolder
 .rdata$IID_IDelegateItem
                0x000000000040f80c       0x10 /usr/lib/gcc/i686-w64-mingw32/4.8/../../../../i686-w64-mingw32/lib/../lib/libuuid.a(lib32_libuuid_a-uuid.o)
                0x000000000040f80c                IID_IDelegateItem
 .rdata$IID_IDeskBand
                0x000000000040f81c       0x10 /usr/lib/gcc/i686-w64-mingw32/4.8/../../../../i686-w64-mingw32/lib/../lib/libuuid.a(lib32_libuuid_a-uuid.o)
                0x000000000040f81c                IID_IDeskBand
 .rdata$IID_IDeskBand2
                0x000000000040f82c       0x10 /usr/lib/gcc/i686-w64-mingw32/4.8/../../../../i686-w64-mingw32/lib/../lib/libuuid.a(lib32_libuuid_a-uuid.o)
                0x000000000040f82c                IID_IDeskBand2
 .rdata$IID_IDeskBandInfo
                0x000000000040f83c       0x10 /usr/lib/gcc/i686-w64-mingw32/4.8/../../../../i686-w64-mingw32/lib/../lib/libuuid.a(lib32_libuuid_a-uuid.o)
                0x000000000040f83c                IID_IDeskBandInfo
 .rdata$IID_IDeskBar
                0x000000000040f84c       0x10 /usr/lib/gcc/i686-w64-mingw32/4.8/../../../../i686-w64-mingw32/lib/../lib/libuuid.a(lib32_libuuid_a-uuid.o)
                0x000000000040f84c                IID_IDeskBar
 .rdata$IID_IDesktopGadget
                0x000000000040f85c       0x10 /usr/lib/gcc/i686-w64-mingw32/4.8/../../../../i686-w64-mingw32/lib/../lib/libuuid.a(lib32_libuuid_a-uuid.o)
                0x000000000040f85c                IID_IDesktopGadget
 .rdata$IID_IDesktopWallpaper
                0x000000000040f86c       0x10 /usr/lib/gcc/i686-w64-mingw32/4.8/../../../../i686-w64-mingw32/lib/../lib/libuuid.a(lib32_libuuid_a-uuid.o)
                0x000000000040f86c                IID_IDesktopWallpaper
 .rdata$IID_IDestinationStreamFactory
                0x000000000040f87c       0x10 /usr/lib/gcc/i686-w64-mingw32/4.8/../../../../i686-w64-mingw32/lib/../lib/libuuid.a(lib32_libuuid_a-uuid.o)
                0x000000000040f87c                IID_IDestinationStreamFactory
 .rdata$IID_IDfReserved1
                0x000000000040f88c       0x10 /usr/lib/gcc/i686-w64-mingw32/4.8/../../../../i686-w64-mingw32/lib/../lib/libuuid.a(lib32_libuuid_a-uuid.o)
                0x000000000040f88c                IID_IDfReserved1
 .rdata$IID_IDfReserved2
                0x000000000040f89c       0x10 /usr/lib/gcc/i686-w64-mingw32/4.8/../../../../i686-w64-mingw32/lib/../lib/libuuid.a(lib32_libuuid_a-uuid.o)
                0x000000000040f89c                IID_IDfReserved2
 .rdata$IID_IDfReserved3
                0x000000000040f8ac       0x10 /usr/lib/gcc/i686-w64-mingw32/4.8/../../../../i686-w64-mingw32/lib/../lib/libuuid.a(lib32_libuuid_a-uuid.o)
                0x000000000040f8ac                IID_IDfReserved3
 .rdata$IID_IDirectWriterLock
                0x000000000040f8bc       0x10 /usr/lib/gcc/i686-w64-mingw32/4.8/../../../../i686-w64-mingw32/lib/../lib/libuuid.a(lib32_libuuid_a-uuid.o)
                0x000000000040f8bc                IID_IDirectWriterLock
 .rdata$IID_IDiscardableBrowserProperty
                0x000000000040f8cc       0x10 /usr/lib/gcc/i686-w64-mingw32/4.8/../../../../i686-w64-mingw32/lib/../lib/libuuid.a(lib32_libuuid_a-uuid.o)
                0x000000000040f8cc                IID_IDiscardableBrowserProperty
 .rdata$IID_IDispatch
                0x000000000040f8dc       0x10 /usr/lib/gcc/i686-w64-mingw32/4.8/../../../../i686-w64-mingw32/lib/../lib/libuuid.a(lib32_libuuid_a-uuid.o)
                0x000000000040f8dc                IID_IDispatch
 .rdata$IID_IDisplayItem
                0x000000000040f8ec       0x10 /usr/lib/gcc/i686-w64-mingw32/4.8/../../../../i686-w64-mingw32/lib/../lib/libuuid.a(lib32_libuuid_a-uuid.o)
                0x000000000040f8ec                IID_IDisplayItem
 .rdata$IID_IDocViewSite
                0x000000000040f8fc       0x10 /usr/lib/gcc/i686-w64-mingw32/4.8/../../../../i686-w64-mingw32/lib/../lib/libuuid.a(lib32_libuuid_a-uuid.o)
                0x000000000040f8fc                IID_IDocViewSite
 .rdata$IID_IDockingWindow
                0x000000000040f90c       0x10 /usr/lib/gcc/i686-w64-mingw32/4.8/../../../../i686-w64-mingw32/lib/../lib/libuuid.a(lib32_libuuid_a-uuid.o)
                0x000000000040f90c                IID_IDockingWindow
 .rdata$IID_IDockingWindowFrame
                0x000000000040f91c       0x10 /usr/lib/gcc/i686-w64-mingw32/4.8/../../../../i686-w64-mingw32/lib/../lib/libuuid.a(lib32_libuuid_a-uuid.o)
                0x000000000040f91c                IID_IDockingWindowFrame
 .rdata$IID_IDockingWindowSite
                0x000000000040f92c       0x10 /usr/lib/gcc/i686-w64-mingw32/4.8/../../../../i686-w64-mingw32/lib/../lib/libuuid.a(lib32_libuuid_a-uuid.o)
                0x000000000040f92c                IID_IDockingWindowSite
 .rdata$IID_IDragSourceHelper
                0x000000000040f93c       0x10 /usr/lib/gcc/i686-w64-mingw32/4.8/../../../../i686-w64-mingw32/lib/../lib/libuuid.a(lib32_libuuid_a-uuid.o)
                0x000000000040f93c                IID_IDragSourceHelper
 .rdata$IID_IDragSourceHelper2
                0x000000000040f94c       0x10 /usr/lib/gcc/i686-w64-mingw32/4.8/../../../../i686-w64-mingw32/lib/../lib/libuuid.a(lib32_libuuid_a-uuid.o)
                0x000000000040f94c                IID_IDragSourceHelper2
 .rdata$IID_IDropSource
                0x000000000040f95c       0x10 /usr/lib/gcc/i686-w64-mingw32/4.8/../../../../i686-w64-mingw32/lib/../lib/libuuid.a(lib32_libuuid_a-uuid.o)
                0x000000000040f95c                IID_IDropSource
 .rdata$IID_IDropSourceNotify
                0x000000000040f96c       0x10 /usr/lib/gcc/i686-w64-mingw32/4.8/../../../../i686-w64-mingw32/lib/../lib/libuuid.a(lib32_libuuid_a-uuid.o)
                0x000000000040f96c                IID_IDropSourceNotify
 .rdata$IID_IDropTarget
                0x000000000040f97c       0x10 /usr/lib/gcc/i686-w64-mingw32/4.8/../../../../i686-w64-mingw32/lib/../lib/libuuid.a(lib32_libuuid_a-uuid.o)
                0x000000000040f97c                IID_IDropTarget
 .rdata$IID_IDropTargetHelper
                0x000000000040f98c       0x10 /usr/lib/gcc/i686-w64-mingw32/4.8/../../../../i686-w64-mingw32/lib/../lib/libuuid.a(lib32_libuuid_a-uuid.o)
                0x000000000040f98c                IID_IDropTargetHelper
 .rdata$IID_IDummyHICONIncluder
                0x000000000040f99c       0x10 /usr/lib/gcc/i686-w64-mingw32/4.8/../../../../i686-w64-mingw32/lib/../lib/libuuid.a(lib32_libuuid_a-uuid.o)
                0x000000000040f99c                IID_IDummyHICONIncluder
 .rdata$IID_IDynamicHWHandler
                0x000000000040f9ac       0x10 /usr/lib/gcc/i686-w64-mingw32/4.8/../../../../i686-w64-mingw32/lib/../lib/libuuid.a(lib32_libuuid_a-uuid.o)
                0x000000000040f9ac                IID_IDynamicHWHandler
 .rdata$IID_IEncodingFilterFactory
                0x000000000040f9bc       0x10 /usr/lib/gcc/i686-w64-mingw32/4.8/../../../../i686-w64-mingw32/lib/../lib/libuuid.a(lib32_libuuid_a-uuid.o)
                0x000000000040f9bc                IID_IEncodingFilterFactory
 .rdata$IID_IEnumAssocHandlers
                0x000000000040f9cc       0x10 /usr/lib/gcc/i686-w64-mingw32/4.8/../../../../i686-w64-mingw32/lib/../lib/libuuid.a(lib32_libuuid_a-uuid.o)
                0x000000000040f9cc                IID_IEnumAssocHandlers
 .rdata$IID_IEnumCATEGORYINFO
                0x000000000040f9dc       0x10 /usr/lib/gcc/i686-w64-mingw32/4.8/../../../../i686-w64-mingw32/lib/../lib/libuuid.a(lib32_libuuid_a-uuid.o)
                0x000000000040f9dc                IID_IEnumCATEGORYINFO
 .rdata$IID_IEnumCallback
                0x000000000040f9ec       0x10 /usr/lib/gcc/i686-w64-mingw32/4.8/../../../../i686-w64-mingw32/lib/../lib/libuuid.a(lib32_libuuid_a-uuid.o)
                0x000000000040f9ec                IID_IEnumCallback
 .rdata$IID_IEnumConnectionPoints
                0x000000000040f9fc       0x10 /usr/lib/gcc/i686-w64-mingw32/4.8/../../../../i686-w64-mingw32/lib/../lib/libuuid.a(lib32_libuuid_a-uuid.o)
                0x000000000040f9fc                IID_IEnumConnectionPoints
 .rdata$IID_IEnumConnections
                0x000000000040fa0c       0x10 /usr/lib/gcc/i686-w64-mingw32/4.8/../../../../i686-w64-mingw32/lib/../lib/libuuid.a(lib32_libuuid_a-uuid.o)
                0x000000000040fa0c                IID_IEnumConnections
 .rdata$IID_IEnumExplorerCommand
                0x000000000040fa1c       0x10 /usr/lib/gcc/i686-w64-mingw32/4.8/../../../../i686-w64-mingw32/lib/../lib/libuuid.a(lib32_libuuid_a-uuid.o)
                0x000000000040fa1c                IID_IEnumExplorerCommand
 .rdata$IID_IEnumExtraSearch
                0x000000000040fa2c       0x10 /usr/lib/gcc/i686-w64-mingw32/4.8/../../../../i686-w64-mingw32/lib/../lib/libuuid.a(lib32_libuuid_a-uuid.o)
                0x000000000040fa2c                IID_IEnumExtraSearch
 .rdata$IID_IEnumFORMATETC
                0x000000000040fa3c       0x10 /usr/lib/gcc/i686-w64-mingw32/4.8/../../../../i686-w64-mingw32/lib/../lib/libuuid.a(lib32_libuuid_a-uuid.o)
                0x000000000040fa3c                IID_IEnumFORMATETC
 .rdata$IID_IEnumFullIDList
                0x000000000040fa4c       0x10 /usr/lib/gcc/i686-w64-mingw32/4.8/../../../../i686-w64-mingw32/lib/../lib/libuuid.a(lib32_libuuid_a-uuid.o)
                0x000000000040fa4c                IID_IEnumFullIDList
 .rdata$IID_IEnumGUID
                0x000000000040fa5c       0x10 /usr/lib/gcc/i686-w64-mingw32/4.8/../../../../i686-w64-mingw32/lib/../lib/libuuid.a(lib32_libuuid_a-uuid.o)
                0x000000000040fa5c                IID_IEnumGUID
 .rdata$IID_IEnumGeneric
                0x000000000040fa6c       0x10 /usr/lib/gcc/i686-w64-mingw32/4.8/../../../../i686-w64-mingw32/lib/../lib/libuuid.a(lib32_libuuid_a-uuid.o)
                0x000000000040fa6c                IID_IEnumGeneric
 .rdata$IID_IEnumHLITEM
                0x000000000040fa7c       0x10 /usr/lib/gcc/i686-w64-mingw32/4.8/../../../../i686-w64-mingw32/lib/../lib/libuuid.a(lib32_libuuid_a-uuid.o)
                0x000000000040fa7c                IID_IEnumHLITEM
 .rdata$IID_IEnumHolder
                0x000000000040fa8c       0x10 /usr/lib/gcc/i686-w64-mingw32/4.8/../../../../i686-w64-mingw32/lib/../lib/libuuid.a(lib32_libuuid_a-uuid.o)
                0x000000000040fa8c                IID_IEnumHolder
 .rdata$IID_IEnumIDList
                0x000000000040fa9c       0x10 /usr/lib/gcc/i686-w64-mingw32/4.8/../../../../i686-w64-mingw32/lib/../lib/libuuid.a(lib32_libuuid_a-uuid.o)
                0x000000000040fa9c                IID_IEnumIDList
 .rdata$IID_IEnumMoniker
                0x000000000040faac       0x10 /usr/lib/gcc/i686-w64-mingw32/4.8/../../../../i686-w64-mingw32/lib/../lib/libuuid.a(lib32_libuuid_a-uuid.o)
                0x000000000040faac                IID_IEnumMoniker
 .rdata$IID_IEnumOLEVERB
                0x000000000040fabc       0x10 /usr/lib/gcc/i686-w64-mingw32/4.8/../../../../i686-w64-mingw32/lib/../lib/libuuid.a(lib32_libuuid_a-uuid.o)
                0x000000000040fabc                IID_IEnumOLEVERB
 .rdata$IID_IEnumObjects
                0x000000000040facc       0x10 /usr/lib/gcc/i686-w64-mingw32/4.8/../../../../i686-w64-mingw32/lib/../lib/libuuid.a(lib32_libuuid_a-uuid.o)
                0x000000000040facc                IID_IEnumObjects
 .rdata$IID_IEnumOleDocumentViews
                0x000000000040fadc       0x10 /usr/lib/gcc/i686-w64-mingw32/4.8/../../../../i686-w64-mingw32/lib/../lib/libuuid.a(lib32_libuuid_a-uuid.o)
                0x000000000040fadc                IID_IEnumOleDocumentViews
 .rdata$IID_IEnumOleUndoUnits
                0x000000000040faec       0x10 /usr/lib/gcc/i686-w64-mingw32/4.8/../../../../i686-w64-mingw32/lib/../lib/libuuid.a(lib32_libuuid_a-uuid.o)
                0x000000000040faec                IID_IEnumOleUndoUnits
 .rdata$IID_IEnumReadyCallback
                0x000000000040fafc       0x10 /usr/lib/gcc/i686-w64-mingw32/4.8/../../../../i686-w64-mingw32/lib/../lib/libuuid.a(lib32_libuuid_a-uuid.o)
                0x000000000040fafc                IID_IEnumReadyCallback
 .rdata$IID_IEnumResources
                0x000000000040fb0c       0x10 /usr/lib/gcc/i686-w64-mingw32/4.8/../../../../i686-w64-mingw32/lib/../lib/libuuid.a(lib32_libuuid_a-uuid.o)
                0x000000000040fb0c                IID_IEnumResources
 .rdata$IID_IEnumSTATDATA
                0x000000000040fb1c       0x10 /usr/lib/gcc/i686-w64-mingw32/4.8/../../../../i686-w64-mingw32/lib/../lib/libuuid.a(lib32_libuuid_a-uuid.o)
                0x000000000040fb1c                IID_IEnumSTATDATA
 .rdata$IID_IEnumSTATPROPSETSTG
                0x000000000040fb2c       0x10 /usr/lib/gcc/i686-w64-mingw32/4.8/../../../../i686-w64-mingw32/lib/../lib/libuuid.a(lib32_libuuid_a-uuid.o)
                0x000000000040fb2c                IID_IEnumSTATPROPSETSTG
 .rdata$IID_IEnumSTATPROPSTG
                0x000000000040fb3c       0x10 /usr/lib/gcc/i686-w64-mingw32/4.8/../../../../i686-w64-mingw32/lib/../lib/libuuid.a(lib32_libuuid_a-uuid.o)
                0x000000000040fb3c                IID_IEnumSTATPROPSTG
 .rdata$IID_IEnumSTATSTG
                0x000000000040fb4c       0x10 /usr/lib/gcc/i686-w64-mingw32/4.8/../../../../i686-w64-mingw32/lib/../lib/libuuid.a(lib32_libuuid_a-uuid.o)
                0x000000000040fb4c                IID_IEnumSTATSTG
 .rdata$IID_IEnumSTATURL
                0x000000000040fb5c       0x10 /usr/lib/gcc/i686-w64-mingw32/4.8/../../../../i686-w64-mingw32/lib/../lib/libuuid.a(lib32_libuuid_a-uuid.o)
                0x000000000040fb5c                IID_IEnumSTATURL
 .rdata$IID_IEnumShellItems
                0x000000000040fb6c       0x10 /usr/lib/gcc/i686-w64-mingw32/4.8/../../../../i686-w64-mingw32/lib/../lib/libuuid.a(lib32_libuuid_a-uuid.o)
                0x000000000040fb6c                IID_IEnumShellItems
 .rdata$IID_IEnumString
                0x000000000040fb7c       0x10 /usr/lib/gcc/i686-w64-mingw32/4.8/../../../../i686-w64-mingw32/lib/../lib/libuuid.a(lib32_libuuid_a-uuid.o)
                0x000000000040fb7c                IID_IEnumString
 .rdata$IID_IEnumUnknown
                0x000000000040fb8c       0x10 /usr/lib/gcc/i686-w64-mingw32/4.8/../../../../i686-w64-mingw32/lib/../lib/libuuid.a(lib32_libuuid_a-uuid.o)
                0x000000000040fb8c                IID_IEnumUnknown
 .rdata$IID_IEnumVARIANT
                0x000000000040fb9c       0x10 /usr/lib/gcc/i686-w64-mingw32/4.8/../../../../i686-w64-mingw32/lib/../lib/libuuid.a(lib32_libuuid_a-uuid.o)
                0x000000000040fb9c                IID_IEnumVARIANT
 .rdata$IID_IEnumerableView
                0x000000000040fbac       0x10 /usr/lib/gcc/i686-w64-mingw32/4.8/../../../../i686-w64-mingw32/lib/../lib/libuuid.a(lib32_libuuid_a-uuid.o)
                0x000000000040fbac                IID_IEnumerableView
 .rdata$IID_IErrorInfo
                0x000000000040fbbc       0x10 /usr/lib/gcc/i686-w64-mingw32/4.8/../../../../i686-w64-mingw32/lib/../lib/libuuid.a(lib32_libuuid_a-uuid.o)
                0x000000000040fbbc                IID_IErrorInfo
 .rdata$IID_IErrorLog
                0x000000000040fbcc       0x10 /usr/lib/gcc/i686-w64-mingw32/4.8/../../../../i686-w64-mingw32/lib/../lib/libuuid.a(lib32_libuuid_a-uuid.o)
                0x000000000040fbcc                IID_IErrorLog
 .rdata$IID_IExecuteCommand
                0x000000000040fbdc       0x10 /usr/lib/gcc/i686-w64-mingw32/4.8/../../../../i686-w64-mingw32/lib/../lib/libuuid.a(lib32_libuuid_a-uuid.o)
                0x000000000040fbdc                IID_IExecuteCommand
 .rdata$IID_IExecuteCommandApplicationHostEnvironment
                0x000000000040fbec       0x10 /usr/lib/gcc/i686-w64-mingw32/4.8/../../../../i686-w64-mingw32/lib/../lib/libuuid.a(lib32_libuuid_a-uuid.o)
                0x000000000040fbec                IID_IExecuteCommandApplicationHostEnvironment
 .rdata$IID_IExecuteCommandHost
                0x000000000040fbfc       0x10 /usr/lib/gcc/i686-w64-mingw32/4.8/../../../../i686-w64-mingw32/lib/../lib/libuuid.a(lib32_libuuid_a-uuid.o)
                0x000000000040fbfc                IID_IExecuteCommandHost
 .rdata$IID_IExplorerBrowser
                0x000000000040fc0c       0x10 /usr/lib/gcc/i686-w64-mingw32/4.8/../../../../i686-w64-mingw32/lib/../lib/libuuid.a(lib32_libuuid_a-uuid.o)
                0x000000000040fc0c                IID_IExplorerBrowser
 .rdata$IID_IExplorerBrowserEvents
                0x000000000040fc1c       0x10 /usr/lib/gcc/i686-w64-mingw32/4.8/../../../../i686-w64-mingw32/lib/../lib/libuuid.a(lib32_libuuid_a-uuid.o)
                0x000000000040fc1c                IID_IExplorerBrowserEvents
 .rdata$IID_IExplorerCommand
                0x000000000040fc2c       0x10 /usr/lib/gcc/i686-w64-mingw32/4.8/../../../../i686-w64-mingw32/lib/../lib/libuuid.a(lib32_libuuid_a-uuid.o)
                0x000000000040fc2c                IID_IExplorerCommand
 .rdata$IID_IExplorerCommandProvider
                0x000000000040fc3c       0x10 /usr/lib/gcc/i686-w64-mingw32/4.8/../../../../i686-w64-mingw32/lib/../lib/libuuid.a(lib32_libuuid_a-uuid.o)
                0x000000000040fc3c                IID_IExplorerCommandProvider
 .rdata$IID_IExplorerCommandState
                0x000000000040fc4c       0x10 /usr/lib/gcc/i686-w64-mingw32/4.8/../../../../i686-w64-mingw32/lib/../lib/libuuid.a(lib32_libuuid_a-uuid.o)
                0x000000000040fc4c                IID_IExplorerCommandState
 .rdata$IID_IExplorerPaneVisibility
                0x000000000040fc5c       0x10 /usr/lib/gcc/i686-w64-mingw32/4.8/../../../../i686-w64-mingw32/lib/../lib/libuuid.a(lib32_libuuid_a-uuid.o)
                0x000000000040fc5c                IID_IExplorerPaneVisibility
 .rdata$IID_IExternalConnection
                0x000000000040fc6c       0x10 /usr/lib/gcc/i686-w64-mingw32/4.8/../../../../i686-w64-mingw32/lib/../lib/libuuid.a(lib32_libuuid_a-uuid.o)
                0x000000000040fc6c                IID_IExternalConnection
 .rdata$IID_IExtractIconA
                0x000000000040fc7c       0x10 /usr/lib/gcc/i686-w64-mingw32/4.8/../../../../i686-w64-mingw32/lib/../lib/libuuid.a(lib32_libuuid_a-uuid.o)
                0x000000000040fc7c                IID_IExtractIconA
 .rdata$IID_IExtractIconW
                0x000000000040fc8c       0x10 /usr/lib/gcc/i686-w64-mingw32/4.8/../../../../i686-w64-mingw32/lib/../lib/libuuid.a(lib32_libuuid_a-uuid.o)
                0x000000000040fc8c                IID_IExtractIconW
 .rdata$IID_IExtractImage
                0x000000000040fc9c       0x10 /usr/lib/gcc/i686-w64-mingw32/4.8/../../../../i686-w64-mingw32/lib/../lib/libuuid.a(lib32_libuuid_a-uuid.o)
                0x000000000040fc9c                IID_IExtractImage
 .rdata$IID_IExtractImage2
                0x000000000040fcac       0x10 /usr/lib/gcc/i686-w64-mingw32/4.8/../../../../i686-w64-mingw32/lib/../lib/libuuid.a(lib32_libuuid_a-uuid.o)
                0x000000000040fcac                IID_IExtractImage2
 .rdata$IID_IFastRundown
                0x000000000040fcbc       0x10 /usr/lib/gcc/i686-w64-mingw32/4.8/../../../../i686-w64-mingw32/lib/../lib/libuuid.a(lib32_libuuid_a-uuid.o)
                0x000000000040fcbc                IID_IFastRundown
 .rdata$IID_IFileDialog
                0x000000000040fccc       0x10 /usr/lib/gcc/i686-w64-mingw32/4.8/../../../../i686-w64-mingw32/lib/../lib/libuuid.a(lib32_libuuid_a-uuid.o)
                0x000000000040fccc                IID_IFileDialog
 .rdata$IID_IFileDialog2
                0x000000000040fcdc       0x10 /usr/lib/gcc/i686-w64-mingw32/4.8/../../../../i686-w64-mingw32/lib/../lib/libuuid.a(lib32_libuuid_a-uuid.o)
                0x000000000040fcdc                IID_IFileDialog2
 .rdata$IID_IFileDialogControlEvents
                0x000000000040fcec       0x10 /usr/lib/gcc/i686-w64-mingw32/4.8/../../../../i686-w64-mingw32/lib/../lib/libuuid.a(lib32_libuuid_a-uuid.o)
                0x000000000040fcec                IID_IFileDialogControlEvents
 .rdata$IID_IFileDialogCustomize
                0x000000000040fcfc       0x10 /usr/lib/gcc/i686-w64-mingw32/4.8/../../../../i686-w64-mingw32/lib/../lib/libuuid.a(lib32_libuuid_a-uuid.o)
                0x000000000040fcfc                IID_IFileDialogCustomize
 .rdata$IID_IFileDialogEvents
                0x000000000040fd0c       0x10 /usr/lib/gcc/i686-w64-mingw32/4.8/../../../../i686-w64-mingw32/lib/../lib/libuuid.a(lib32_libuuid_a-uuid.o)
                0x000000000040fd0c                IID_IFileDialogEvents
 .rdata$IID_IFileIsInUse
                0x000000000040fd1c       0x10 /usr/lib/gcc/i686-w64-mingw32/4.8/../../../../i686-w64-mingw32/lib/../lib/libuuid.a(lib32_libuuid_a-uuid.o)
                0x000000000040fd1c                IID_IFileIsInUse
 .rdata$IID_IFileOpenDialog
                0x000000000040fd2c       0x10 /usr/lib/gcc/i686-w64-mingw32/4.8/../../../../i686-w64-mingw32/lib/../lib/libuuid.a(lib32_libuuid_a-uuid.o)
                0x000000000040fd2c                IID_IFileOpenDialog
 .rdata$IID_IFileOperation
                0x000000000040fd3c       0x10 /usr/lib/gcc/i686-w64-mingw32/4.8/../../../../i686-w64-mingw32/lib/../lib/libuuid.a(lib32_libuuid_a-uuid.o)
                0x000000000040fd3c                IID_IFileOperation
 .rdata$IID_IFileOperationProgressSink
                0x000000000040fd4c       0x10 /usr/lib/gcc/i686-w64-mingw32/4.8/../../../../i686-w64-mingw32/lib/../lib/libuuid.a(lib32_libuuid_a-uuid.o)
                0x000000000040fd4c                IID_IFileOperationProgressSink
 .rdata$IID_IFileSaveDialog
                0x000000000040fd5c       0x10 /usr/lib/gcc/i686-w64-mingw32/4.8/../../../../i686-w64-mingw32/lib/../lib/libuuid.a(lib32_libuuid_a-uuid.o)
                0x000000000040fd5c                IID_IFileSaveDialog
 .rdata$IID_IFileSystemBindData
                0x000000000040fd6c       0x10 /usr/lib/gcc/i686-w64-mingw32/4.8/../../../../i686-w64-mingw32/lib/../lib/libuuid.a(lib32_libuuid_a-uuid.o)
                0x000000000040fd6c                IID_IFileSystemBindData
 .rdata$IID_IFileSystemBindData2
                0x000000000040fd7c       0x10 /usr/lib/gcc/i686-w64-mingw32/4.8/../../../../i686-w64-mingw32/lib/../lib/libuuid.a(lib32_libuuid_a-uuid.o)
                0x000000000040fd7c                IID_IFileSystemBindData2
 .rdata$IID_IFileViewerA
                0x000000000040fd8c       0x10 /usr/lib/gcc/i686-w64-mingw32/4.8/../../../../i686-w64-mingw32/lib/../lib/libuuid.a(lib32_libuuid_a-uuid.o)
                0x000000000040fd8c                IID_IFileViewerA
 .rdata$IID_IFileViewerSite
                0x000000000040fd9c       0x10 /usr/lib/gcc/i686-w64-mingw32/4.8/../../../../i686-w64-mingw32/lib/../lib/libuuid.a(lib32_libuuid_a-uuid.o)
                0x000000000040fd9c                IID_IFileViewerSite
 .rdata$IID_IFileViewerW
                0x000000000040fdac       0x10 /usr/lib/gcc/i686-w64-mingw32/4.8/../../../../i686-w64-mingw32/lib/../lib/libuuid.a(lib32_libuuid_a-uuid.o)
                0x000000000040fdac                IID_IFileViewerW
 .rdata$IID_IFillLockBytes
                0x000000000040fdbc       0x10 /usr/lib/gcc/i686-w64-mingw32/4.8/../../../../i686-w64-mingw32/lib/../lib/libuuid.a(lib32_libuuid_a-uuid.o)
                0x000000000040fdbc                IID_IFillLockBytes
 .rdata$IID_IFilter
                0x000000000040fdcc       0x10 /usr/lib/gcc/i686-w64-mingw32/4.8/../../../../i686-w64-mingw32/lib/../lib/libuuid.a(lib32_libuuid_a-uuid.o)
                0x000000000040fdcc                IID_IFilter
 .rdata$IID_IFolderBandPriv
                0x000000000040fddc       0x10 /usr/lib/gcc/i686-w64-mingw32/4.8/../../../../i686-w64-mingw32/lib/../lib/libuuid.a(lib32_libuuid_a-uuid.o)
                0x000000000040fddc                IID_IFolderBandPriv
 .rdata$IID_IFolderFilter
                0x000000000040fdec       0x10 /usr/lib/gcc/i686-w64-mingw32/4.8/../../../../i686-w64-mingw32/lib/../lib/libuuid.a(lib32_libuuid_a-uuid.o)
                0x000000000040fdec                IID_IFolderFilter
 .rdata$IID_IFolderFilterSite
                0x000000000040fdfc       0x10 /usr/lib/gcc/i686-w64-mingw32/4.8/../../../../i686-w64-mingw32/lib/../lib/libuuid.a(lib32_libuuid_a-uuid.o)
                0x000000000040fdfc                IID_IFolderFilterSite
 .rdata$IID_IFolderView
                0x000000000040fe0c       0x10 /usr/lib/gcc/i686-w64-mingw32/4.8/../../../../i686-w64-mingw32/lib/../lib/libuuid.a(lib32_libuuid_a-uuid.o)
                0x000000000040fe0c                IID_IFolderView
 .rdata$IID_IFolderView2
                0x000000000040fe1c       0x10 /usr/lib/gcc/i686-w64-mingw32/4.8/../../../../i686-w64-mingw32/lib/../lib/libuuid.a(lib32_libuuid_a-uuid.o)
                0x000000000040fe1c                IID_IFolderView2
 .rdata$IID_IFolderViewHost
                0x000000000040fe2c       0x10 /usr/lib/gcc/i686-w64-mingw32/4.8/../../../../i686-w64-mingw32/lib/../lib/libuuid.a(lib32_libuuid_a-uuid.o)
                0x000000000040fe2c                IID_IFolderViewHost
 .rdata$IID_IFolderViewOptions
                0x000000000040fe3c       0x10 /usr/lib/gcc/i686-w64-mingw32/4.8/../../../../i686-w64-mingw32/lib/../lib/libuuid.a(lib32_libuuid_a-uuid.o)
                0x000000000040fe3c                IID_IFolderViewOptions
 .rdata$IID_IFolderViewSettings
                0x000000000040fe4c       0x10 /usr/lib/gcc/i686-w64-mingw32/4.8/../../../../i686-w64-mingw32/lib/../lib/libuuid.a(lib32_libuuid_a-uuid.o)
                0x000000000040fe4c                IID_IFolderViewSettings
 .rdata$IID_IFont
                0x000000000040fe5c       0x10 /usr/lib/gcc/i686-w64-mingw32/4.8/../../../../i686-w64-mingw32/lib/../lib/libuuid.a(lib32_libuuid_a-uuid.o)
                0x000000000040fe5c                IID_IFont
 .rdata$IID_IFontDisp
                0x000000000040fe6c       0x10 /usr/lib/gcc/i686-w64-mingw32/4.8/../../../../i686-w64-mingw32/lib/../lib/libuuid.a(lib32_libuuid_a-uuid.o)
                0x000000000040fe6c                IID_IFontDisp
 .rdata$IID_IFontEventsDisp
                0x000000000040fe7c       0x10 /usr/lib/gcc/i686-w64-mingw32/4.8/../../../../i686-w64-mingw32/lib/../lib/libuuid.a(lib32_libuuid_a-uuid.o)
                0x000000000040fe7c                IID_IFontEventsDisp
 .rdata$IID_IForegroundTransfer
                0x000000000040fe8c       0x10 /usr/lib/gcc/i686-w64-mingw32/4.8/../../../../i686-w64-mingw32/lib/../lib/libuuid.a(lib32_libuuid_a-uuid.o)
                0x000000000040fe8c                IID_IForegroundTransfer
 .rdata$IID_IFrameworkInputPane
                0x000000000040fe9c       0x10 /usr/lib/gcc/i686-w64-mingw32/4.8/../../../../i686-w64-mingw32/lib/../lib/libuuid.a(lib32_libuuid_a-uuid.o)
                0x000000000040fe9c                IID_IFrameworkInputPane
 .rdata$IID_IFrameworkInputPaneHandler
                0x000000000040feac       0x10 /usr/lib/gcc/i686-w64-mingw32/4.8/../../../../i686-w64-mingw32/lib/../lib/libuuid.a(lib32_libuuid_a-uuid.o)
                0x000000000040feac                IID_IFrameworkInputPaneHandler
 .rdata$IID_IGetBindHandle
                0x000000000040febc       0x10 /usr/lib/gcc/i686-w64-mingw32/4.8/../../../../i686-w64-mingw32/lib/../lib/libuuid.a(lib32_libuuid_a-uuid.o)
                0x000000000040febc                IID_IGetBindHandle
 .rdata$IID_IGlobalInterfaceTable
                0x000000000040fecc       0x10 /usr/lib/gcc/i686-w64-mingw32/4.8/../../../../i686-w64-mingw32/lib/../lib/libuuid.a(lib32_libuuid_a-uuid.o)
                0x000000000040fecc                IID_IGlobalInterfaceTable
 .rdata$IID_IGlobalOptions
                0x000000000040fedc       0x10 /usr/lib/gcc/i686-w64-mingw32/4.8/../../../../i686-w64-mingw32/lib/../lib/libuuid.a(lib32_libuuid_a-uuid.o)
                0x000000000040fedc                IID_IGlobalOptions
 .rdata$IID_IHWEventHandler
                0x000000000040feec       0x10 /usr/lib/gcc/i686-w64-mingw32/4.8/../../../../i686-w64-mingw32/lib/../lib/libuuid.a(lib32_libuuid_a-uuid.o)
                0x000000000040feec                IID_IHWEventHandler
 .rdata$IID_IHWEventHandler2
                0x000000000040fefc       0x10 /usr/lib/gcc/i686-w64-mingw32/4.8/../../../../i686-w64-mingw32/lib/../lib/libuuid.a(lib32_libuuid_a-uuid.o)
                0x000000000040fefc                IID_IHWEventHandler2
 .rdata$IID_IHandlerActivationHost
                0x000000000040ff0c       0x10 /usr/lib/gcc/i686-w64-mingw32/4.8/../../../../i686-w64-mingw32/lib/../lib/libuuid.a(lib32_libuuid_a-uuid.o)
                0x000000000040ff0c                IID_IHandlerActivationHost
 .rdata$IID_IHandlerInfo
                0x000000000040ff1c       0x10 /usr/lib/gcc/i686-w64-mingw32/4.8/../../../../i686-w64-mingw32/lib/../lib/libuuid.a(lib32_libuuid_a-uuid.o)
                0x000000000040ff1c                IID_IHandlerInfo
 .rdata$IID_IHlink
                0x000000000040ff2c       0x10 /usr/lib/gcc/i686-w64-mingw32/4.8/../../../../i686-w64-mingw32/lib/../lib/libuuid.a(lib32_libuuid_a-uuid.o)
                0x000000000040ff2c                IID_IHlink
 .rdata$IID_IHlinkBrowseContext
                0x000000000040ff3c       0x10 /usr/lib/gcc/i686-w64-mingw32/4.8/../../../../i686-w64-mingw32/lib/../lib/libuuid.a(lib32_libuuid_a-uuid.o)
                0x000000000040ff3c                IID_IHlinkBrowseContext
 .rdata$IID_IHlinkFrame
                0x000000000040ff4c       0x10 /usr/lib/gcc/i686-w64-mingw32/4.8/../../../../i686-w64-mingw32/lib/../lib/libuuid.a(lib32_libuuid_a-uuid.o)
                0x000000000040ff4c                IID_IHlinkFrame
 .rdata$IID_IHlinkSite
                0x000000000040ff5c       0x10 /usr/lib/gcc/i686-w64-mingw32/4.8/../../../../i686-w64-mingw32/lib/../lib/libuuid.a(lib32_libuuid_a-uuid.o)
                0x000000000040ff5c                IID_IHlinkSite
 .rdata$IID_IHlinkTarget
                0x000000000040ff6c       0x10 /usr/lib/gcc/i686-w64-mingw32/4.8/../../../../i686-w64-mingw32/lib/../lib/libuuid.a(lib32_libuuid_a-uuid.o)
                0x000000000040ff6c                IID_IHlinkTarget
 .rdata$IID_IHomeGroup
                0x000000000040ff7c       0x10 /usr/lib/gcc/i686-w64-mingw32/4.8/../../../../i686-w64-mingw32/lib/../lib/libuuid.a(lib32_libuuid_a-uuid.o)
                0x000000000040ff7c                IID_IHomeGroup
 .rdata$IID_IHttpNegotiate
                0x000000000040ff8c       0x10 /usr/lib/gcc/i686-w64-mingw32/4.8/../../../../i686-w64-mingw32/lib/../lib/libuuid.a(lib32_libuuid_a-uuid.o)
                0x000000000040ff8c                IID_IHttpNegotiate
 .rdata$IID_IHttpNegotiate2
                0x000000000040ff9c       0x10 /usr/lib/gcc/i686-w64-mingw32/4.8/../../../../i686-w64-mingw32/lib/../lib/libuuid.a(lib32_libuuid_a-uuid.o)
                0x000000000040ff9c                IID_IHttpNegotiate2
 .rdata$IID_IHttpNegotiate3
                0x000000000040ffac       0x10 /usr/lib/gcc/i686-w64-mingw32/4.8/../../../../i686-w64-mingw32/lib/../lib/libuuid.a(lib32_libuuid_a-uuid.o)
                0x000000000040ffac                IID_IHttpNegotiate3
 .rdata$IID_IHttpSecurity
                0x000000000040ffbc       0x10 /usr/lib/gcc/i686-w64-mingw32/4.8/../../../../i686-w64-mingw32/lib/../lib/libuuid.a(lib32_libuuid_a-uuid.o)
                0x000000000040ffbc                IID_IHttpSecurity
 .rdata$IID_IIOCancelInformation
                0x000000000040ffcc       0x10 /usr/lib/gcc/i686-w64-mingw32/4.8/../../../../i686-w64-mingw32/lib/../lib/libuuid.a(lib32_libuuid_a-uuid.o)
                0x000000000040ffcc                IID_IIOCancelInformation
 .rdata$IID_IIdentityName
                0x000000000040ffdc       0x10 /usr/lib/gcc/i686-w64-mingw32/4.8/../../../../i686-w64-mingw32/lib/../lib/libuuid.a(lib32_libuuid_a-uuid.o)
                0x000000000040ffdc                IID_IIdentityName
 .rdata$IID_IImageRecompress
                0x000000000040ffec       0x10 /usr/lib/gcc/i686-w64-mingw32/4.8/../../../../i686-w64-mingw32/lib/../lib/libuuid.a(lib32_libuuid_a-uuid.o)
                0x000000000040ffec                IID_IImageRecompress
 .rdata$IID_IInitializeCommand
                0x000000000040fffc       0x10 /usr/lib/gcc/i686-w64-mingw32/4.8/../../../../i686-w64-mingw32/lib/../lib/libuuid.a(lib32_libuuid_a-uuid.o)
                0x000000000040fffc                IID_IInitializeCommand
 .rdata$IID_IInitializeNetworkFolder
                0x000000000041000c       0x10 /usr/lib/gcc/i686-w64-mingw32/4.8/../../../../i686-w64-mingw32/lib/../lib/libuuid.a(lib32_libuuid_a-uuid.o)
                0x000000000041000c                IID_IInitializeNetworkFolder
 .rdata$IID_IInitializeSpy
                0x000000000041001c       0x10 /usr/lib/gcc/i686-w64-mingw32/4.8/../../../../i686-w64-mingw32/lib/../lib/libuuid.a(lib32_libuuid_a-uuid.o)
                0x000000000041001c                IID_IInitializeSpy
 .rdata$IID_IInitializeWithBindCtx
                0x000000000041002c       0x10 /usr/lib/gcc/i686-w64-mingw32/4.8/../../../../i686-w64-mingw32/lib/../lib/libuuid.a(lib32_libuuid_a-uuid.o)
                0x000000000041002c                IID_IInitializeWithBindCtx
 .rdata$IID_IInitializeWithFile
                0x000000000041003c       0x10 /usr/lib/gcc/i686-w64-mingw32/4.8/../../../../i686-w64-mingw32/lib/../lib/libuuid.a(lib32_libuuid_a-uuid.o)
                0x000000000041003c                IID_IInitializeWithFile
 .rdata$IID_IInitializeWithItem
                0x000000000041004c       0x10 /usr/lib/gcc/i686-w64-mingw32/4.8/../../../../i686-w64-mingw32/lib/../lib/libuuid.a(lib32_libuuid_a-uuid.o)
                0x000000000041004c                IID_IInitializeWithItem
 .rdata$IID_IInitializeWithPropertyStore
                0x000000000041005c       0x10 /usr/lib/gcc/i686-w64-mingw32/4.8/../../../../i686-w64-mingw32/lib/../lib/libuuid.a(lib32_libuuid_a-uuid.o)
                0x000000000041005c                IID_IInitializeWithPropertyStore
 .rdata$IID_IInitializeWithStream
                0x000000000041006c       0x10 /usr/lib/gcc/i686-w64-mingw32/4.8/../../../../i686-w64-mingw32/lib/../lib/libuuid.a(lib32_libuuid_a-uuid.o)
                0x000000000041006c                IID_IInitializeWithStream
 .rdata$IID_IInitializeWithWindow
                0x000000000041007c       0x10 /usr/lib/gcc/i686-w64-mingw32/4.8/../../../../i686-w64-mingw32/lib/../lib/libuuid.a(lib32_libuuid_a-uuid.o)
                0x000000000041007c                IID_IInitializeWithWindow
 .rdata$IID_IInputObject
                0x000000000041008c       0x10 /usr/lib/gcc/i686-w64-mingw32/4.8/../../../../i686-w64-mingw32/lib/../lib/libuuid.a(lib32_libuuid_a-uuid.o)
                0x000000000041008c                IID_IInputObject
 .rdata$IID_IInputObject2
                0x000000000041009c       0x10 /usr/lib/gcc/i686-w64-mingw32/4.8/../../../../i686-w64-mingw32/lib/../lib/libuuid.a(lib32_libuuid_a-uuid.o)
                0x000000000041009c                IID_IInputObject2
 .rdata$IID_IInputObjectSite
                0x00000000004100ac       0x10 /usr/lib/gcc/i686-w64-mingw32/4.8/../../../../i686-w64-mingw32/lib/../lib/libuuid.a(lib32_libuuid_a-uuid.o)
                0x00000000004100ac                IID_IInputObjectSite
 .rdata$IID_IInsertItem
                0x00000000004100bc       0x10 /usr/lib/gcc/i686-w64-mingw32/4.8/../../../../i686-w64-mingw32/lib/../lib/libuuid.a(lib32_libuuid_a-uuid.o)
                0x00000000004100bc                IID_IInsertItem
 .rdata$IID_IInternalMoniker
                0x00000000004100cc       0x10 /usr/lib/gcc/i686-w64-mingw32/4.8/../../../../i686-w64-mingw32/lib/../lib/libuuid.a(lib32_libuuid_a-uuid.o)
                0x00000000004100cc                IID_IInternalMoniker
 .rdata$IID_IInternalUnknown
                0x00000000004100dc       0x10 /usr/lib/gcc/i686-w64-mingw32/4.8/../../../../i686-w64-mingw32/lib/../lib/libuuid.a(lib32_libuuid_a-uuid.o)
                0x00000000004100dc                IID_IInternalUnknown
 .rdata$IID_IInternet
                0x00000000004100ec       0x10 /usr/lib/gcc/i686-w64-mingw32/4.8/../../../../i686-w64-mingw32/lib/../lib/libuuid.a(lib32_libuuid_a-uuid.o)
                0x00000000004100ec                IID_IInternet
 .rdata$IID_IInternetBindInfo
                0x00000000004100fc       0x10 /usr/lib/gcc/i686-w64-mingw32/4.8/../../../../i686-w64-mingw32/lib/../lib/libuuid.a(lib32_libuuid_a-uuid.o)
                0x00000000004100fc                IID_IInternetBindInfo
 .rdata$IID_IInternetBindInfoEx
                0x000000000041010c       0x10 /usr/lib/gcc/i686-w64-mingw32/4.8/../../../../i686-w64-mingw32/lib/../lib/libuuid.a(lib32_libuuid_a-uuid.o)
                0x000000000041010c                IID_IInternetBindInfoEx
 .rdata$IID_IInternetHostSecurityManager
                0x000000000041011c       0x10 /usr/lib/gcc/i686-w64-mingw32/4.8/../../../../i686-w64-mingw32/lib/../lib/libuuid.a(lib32_libuuid_a-uuid.o)
                0x000000000041011c                IID_IInternetHostSecurityManager
 .rdata$IID_IInternetPriority
                0x000000000041012c       0x10 /usr/lib/gcc/i686-w64-mingw32/4.8/../../../../i686-w64-mingw32/lib/../lib/libuuid.a(lib32_libuuid_a-uuid.o)
                0x000000000041012c                IID_IInternetPriority
 .rdata$IID_IInternetProtocol
                0x000000000041013c       0x10 /usr/lib/gcc/i686-w64-mingw32/4.8/../../../../i686-w64-mingw32/lib/../lib/libuuid.a(lib32_libuuid_a-uuid.o)
                0x000000000041013c                IID_IInternetProtocol
 .rdata$IID_IInternetProtocolEx
                0x000000000041014c       0x10 /usr/lib/gcc/i686-w64-mingw32/4.8/../../../../i686-w64-mingw32/lib/../lib/libuuid.a(lib32_libuuid_a-uuid.o)
                0x000000000041014c                IID_IInternetProtocolEx
 .rdata$IID_IInternetProtocolInfo
                0x000000000041015c       0x10 /usr/lib/gcc/i686-w64-mingw32/4.8/../../../../i686-w64-mingw32/lib/../lib/libuuid.a(lib32_libuuid_a-uuid.o)
                0x000000000041015c                IID_IInternetProtocolInfo
 .rdata$IID_IInternetProtocolRoot
                0x000000000041016c       0x10 /usr/lib/gcc/i686-w64-mingw32/4.8/../../../../i686-w64-mingw32/lib/../lib/libuuid.a(lib32_libuuid_a-uuid.o)
                0x000000000041016c                IID_IInternetProtocolRoot
 .rdata$IID_IInternetProtocolSink
                0x000000000041017c       0x10 /usr/lib/gcc/i686-w64-mingw32/4.8/../../../../i686-w64-mingw32/lib/../lib/libuuid.a(lib32_libuuid_a-uuid.o)
                0x000000000041017c                IID_IInternetProtocolSink
 .rdata$IID_IInternetProtocolSinkStackable
                0x000000000041018c       0x10 /usr/lib/gcc/i686-w64-mingw32/4.8/../../../../i686-w64-mingw32/lib/../lib/libuuid.a(lib32_libuuid_a-uuid.o)
                0x000000000041018c                IID_IInternetProtocolSinkStackable
 .rdata$IID_IInternetSecurityManager
                0x000000000041019c       0x10 /usr/lib/gcc/i686-w64-mingw32/4.8/../../../../i686-w64-mingw32/lib/../lib/libuuid.a(lib32_libuuid_a-uuid.o)
                0x000000000041019c                IID_IInternetSecurityManager
 .rdata$IID_IInternetSecurityManagerEx
                0x00000000004101ac       0x10 /usr/lib/gcc/i686-w64-mingw32/4.8/../../../../i686-w64-mingw32/lib/../lib/libuuid.a(lib32_libuuid_a-uuid.o)
                0x00000000004101ac                IID_IInternetSecurityManagerEx
 .rdata$IID_IInternetSecurityManagerEx2
                0x00000000004101bc       0x10 /usr/lib/gcc/i686-w64-mingw32/4.8/../../../../i686-w64-mingw32/lib/../lib/libuuid.a(lib32_libuuid_a-uuid.o)
                0x00000000004101bc                IID_IInternetSecurityManagerEx2
 .rdata$IID_IInternetSecurityMgrSite
                0x00000000004101cc       0x10 /usr/lib/gcc/i686-w64-mingw32/4.8/../../../../i686-w64-mingw32/lib/../lib/libuuid.a(lib32_libuuid_a-uuid.o)
                0x00000000004101cc                IID_IInternetSecurityMgrSite
 .rdata$IID_IInternetSession
                0x00000000004101dc       0x10 /usr/lib/gcc/i686-w64-mingw32/4.8/../../../../i686-w64-mingw32/lib/../lib/libuuid.a(lib32_libuuid_a-uuid.o)
                0x00000000004101dc                IID_IInternetSession
 .rdata$IID_IInternetThreadSwitch
                0x00000000004101ec       0x10 /usr/lib/gcc/i686-w64-mingw32/4.8/../../../../i686-w64-mingw32/lib/../lib/libuuid.a(lib32_libuuid_a-uuid.o)
                0x00000000004101ec                IID_IInternetThreadSwitch
 .rdata$IID_IInternetZoneManager
                0x00000000004101fc       0x10 /usr/lib/gcc/i686-w64-mingw32/4.8/../../../../i686-w64-mingw32/lib/../lib/libuuid.a(lib32_libuuid_a-uuid.o)
                0x00000000004101fc                IID_IInternetZoneManager
 .rdata$IID_IInternetZoneManagerEx
                0x000000000041020c       0x10 /usr/lib/gcc/i686-w64-mingw32/4.8/../../../../i686-w64-mingw32/lib/../lib/libuuid.a(lib32_libuuid_a-uuid.o)
                0x000000000041020c                IID_IInternetZoneManagerEx
 .rdata$IID_IInternetZoneManagerEx2
                0x000000000041021c       0x10 /usr/lib/gcc/i686-w64-mingw32/4.8/../../../../i686-w64-mingw32/lib/../lib/libuuid.a(lib32_libuuid_a-uuid.o)
                0x000000000041021c                IID_IInternetZoneManagerEx2
 .rdata$IID_IItemNameLimits
                0x000000000041022c       0x10 /usr/lib/gcc/i686-w64-mingw32/4.8/../../../../i686-w64-mingw32/lib/../lib/libuuid.a(lib32_libuuid_a-uuid.o)
                0x000000000041022c                IID_IItemNameLimits
 .rdata$IID_IKnownFolder
                0x000000000041023c       0x10 /usr/lib/gcc/i686-w64-mingw32/4.8/../../../../i686-w64-mingw32/lib/../lib/libuuid.a(lib32_libuuid_a-uuid.o)
                0x000000000041023c                IID_IKnownFolder
 .rdata$IID_IKnownFolderManager
                0x000000000041024c       0x10 /usr/lib/gcc/i686-w64-mingw32/4.8/../../../../i686-w64-mingw32/lib/../lib/libuuid.a(lib32_libuuid_a-uuid.o)
                0x000000000041024c                IID_IKnownFolderManager
 .rdata$IID_ILayoutStorage
                0x000000000041025c       0x10 /usr/lib/gcc/i686-w64-mingw32/4.8/../../../../i686-w64-mingw32/lib/../lib/libuuid.a(lib32_libuuid_a-uuid.o)
                0x000000000041025c                IID_ILayoutStorage
 .rdata$IID_ILockBytes
                0x000000000041026c       0x10 /usr/lib/gcc/i686-w64-mingw32/4.8/../../../../i686-w64-mingw32/lib/../lib/libuuid.a(lib32_libuuid_a-uuid.o)
                0x000000000041026c                IID_ILockBytes
 .rdata$IID_IMalloc
                0x000000000041027c       0x10 /usr/lib/gcc/i686-w64-mingw32/4.8/../../../../i686-w64-mingw32/lib/../lib/libuuid.a(lib32_libuuid_a-uuid.o)
                0x000000000041027c                IID_IMalloc
 .rdata$IID_IMallocSpy
                0x000000000041028c       0x10 /usr/lib/gcc/i686-w64-mingw32/4.8/../../../../i686-w64-mingw32/lib/../lib/libuuid.a(lib32_libuuid_a-uuid.o)
                0x000000000041028c                IID_IMallocSpy
 .rdata$IID_IMarshal
                0x000000000041029c       0x10 /usr/lib/gcc/i686-w64-mingw32/4.8/../../../../i686-w64-mingw32/lib/../lib/libuuid.a(lib32_libuuid_a-uuid.o)
                0x000000000041029c                IID_IMarshal
 .rdata$IID_IMarshal2
                0x00000000004102ac       0x10 /usr/lib/gcc/i686-w64-mingw32/4.8/../../../../i686-w64-mingw32/lib/../lib/libuuid.a(lib32_libuuid_a-uuid.o)
                0x00000000004102ac                IID_IMarshal2
 .rdata$IID_IMarshalingStream
                0x00000000004102bc       0x10 /usr/lib/gcc/i686-w64-mingw32/4.8/../../../../i686-w64-mingw32/lib/../lib/libuuid.a(lib32_libuuid_a-uuid.o)
                0x00000000004102bc                IID_IMarshalingStream
 .rdata$IID_IMenuBand
                0x00000000004102cc       0x10 /usr/lib/gcc/i686-w64-mingw32/4.8/../../../../i686-w64-mingw32/lib/../lib/libuuid.a(lib32_libuuid_a-uuid.o)
                0x00000000004102cc                IID_IMenuBand
 .rdata$IID_IMenuPopup
                0x00000000004102dc       0x10 /usr/lib/gcc/i686-w64-mingw32/4.8/../../../../i686-w64-mingw32/lib/../lib/libuuid.a(lib32_libuuid_a-uuid.o)
                0x00000000004102dc                IID_IMenuPopup
 .rdata$IID_IMessageFilter
                0x00000000004102ec       0x10 /usr/lib/gcc/i686-w64-mingw32/4.8/../../../../i686-w64-mingw32/lib/../lib/libuuid.a(lib32_libuuid_a-uuid.o)
                0x00000000004102ec                IID_IMessageFilter
 .rdata$IID_IMimeInfo
                0x00000000004102fc       0x10 /usr/lib/gcc/i686-w64-mingw32/4.8/../../../../i686-w64-mingw32/lib/../lib/libuuid.a(lib32_libuuid_a-uuid.o)
                0x00000000004102fc                IID_IMimeInfo
 .rdata$IID_IModalWindow
                0x000000000041030c       0x10 /usr/lib/gcc/i686-w64-mingw32/4.8/../../../../i686-w64-mingw32/lib/../lib/libuuid.a(lib32_libuuid_a-uuid.o)
                0x000000000041030c                IID_IModalWindow
 .rdata$IID_IMoniker
                0x000000000041031c       0x10 /usr/lib/gcc/i686-w64-mingw32/4.8/../../../../i686-w64-mingw32/lib/../lib/libuuid.a(lib32_libuuid_a-uuid.o)
                0x000000000041031c                IID_IMoniker
 .rdata$IID_IMonikerProp
                0x000000000041032c       0x10 /usr/lib/gcc/i686-w64-mingw32/4.8/../../../../i686-w64-mingw32/lib/../lib/libuuid.a(lib32_libuuid_a-uuid.o)
                0x000000000041032c                IID_IMonikerProp
 .rdata$IID_IMultiQI
                0x000000000041033c       0x10 /usr/lib/gcc/i686-w64-mingw32/4.8/../../../../i686-w64-mingw32/lib/../lib/libuuid.a(lib32_libuuid_a-uuid.o)
                0x000000000041033c                IID_IMultiQI
 .rdata$IID_INameSpaceTreeAccessible
                0x000000000041034c       0x10 /usr/lib/gcc/i686-w64-mingw32/4.8/../../../../i686-w64-mingw32/lib/../lib/libuuid.a(lib32_libuuid_a-uuid.o)
                0x000000000041034c                IID_INameSpaceTreeAccessible
 .rdata$IID_INameSpaceTreeControl
                0x000000000041035c       0x10 /usr/lib/gcc/i686-w64-mingw32/4.8/../../../../i686-w64-mingw32/lib/../lib/libuuid.a(lib32_libuuid_a-uuid.o)
                0x000000000041035c                IID_INameSpaceTreeControl
 .rdata$IID_INameSpaceTreeControl2
                0x000000000041036c       0x10 /usr/lib/gcc/i686-w64-mingw32/4.8/../../../../i686-w64-mingw32/lib/../lib/libuuid.a(lib32_libuuid_a-uuid.o)
                0x000000000041036c                IID_INameSpaceTreeControl2
 .rdata$IID_INameSpaceTreeControlCustomDraw
                0x000000000041037c       0x10 /usr/lib/gcc/i686-w64-mingw32/4.8/../../../../i686-w64-mingw32/lib/../lib/libuuid.a(lib32_libuuid_a-uuid.o)
                0x000000000041037c                IID_INameSpaceTreeControlCustomDraw
 .rdata$IID_INameSpaceTreeControlDropHandler
                0x000000000041038c       0x10 /usr/lib/gcc/i686-w64-mingw32/4.8/../../../../i686-w64-mingw32/lib/../lib/libuuid.a(lib32_libuuid_a-uuid.o)
                0x000000000041038c                IID_INameSpaceTreeControlDropHandler
 .rdata$IID_INameSpaceTreeControlEvents
                0x000000000041039c       0x10 /usr/lib/gcc/i686-w64-mingw32/4.8/../../../../i686-w64-mingw32/lib/../lib/libuuid.a(lib32_libuuid_a-uuid.o)
                0x000000000041039c                IID_INameSpaceTreeControlEvents
 .rdata$IID_INameSpaceTreeControlFolderCapabilities
                0x00000000004103ac       0x10 /usr/lib/gcc/i686-w64-mingw32/4.8/../../../../i686-w64-mingw32/lib/../lib/libuuid.a(lib32_libuuid_a-uuid.o)
                0x00000000004103ac                IID_INameSpaceTreeControlFolderCapabilities
 .rdata$IID_INamedPropertyBag
                0x00000000004103bc       0x10 /usr/lib/gcc/i686-w64-mingw32/4.8/../../../../i686-w64-mingw32/lib/../lib/libuuid.a(lib32_libuuid_a-uuid.o)
                0x00000000004103bc                IID_INamedPropertyBag
 .rdata$IID_INamedPropertyStore
                0x00000000004103cc       0x10 /usr/lib/gcc/i686-w64-mingw32/4.8/../../../../i686-w64-mingw32/lib/../lib/libuuid.a(lib32_libuuid_a-uuid.o)
                0x00000000004103cc                IID_INamedPropertyStore
 .rdata$IID_INamespaceWalk
                0x00000000004103dc       0x10 /usr/lib/gcc/i686-w64-mingw32/4.8/../../../../i686-w64-mingw32/lib/../lib/libuuid.a(lib32_libuuid_a-uuid.o)
                0x00000000004103dc                IID_INamespaceWalk
 .rdata$IID_INamespaceWalkCB
                0x00000000004103ec       0x10 /usr/lib/gcc/i686-w64-mingw32/4.8/../../../../i686-w64-mingw32/lib/../lib/libuuid.a(lib32_libuuid_a-uuid.o)
                0x00000000004103ec                IID_INamespaceWalkCB
 .rdata$IID_INamespaceWalkCB2
                0x00000000004103fc       0x10 /usr/lib/gcc/i686-w64-mingw32/4.8/../../../../i686-w64-mingw32/lib/../lib/libuuid.a(lib32_libuuid_a-uuid.o)
                0x00000000004103fc                IID_INamespaceWalkCB2
 .rdata$IID_INewMenuClient
                0x000000000041040c       0x10 /usr/lib/gcc/i686-w64-mingw32/4.8/../../../../i686-w64-mingw32/lib/../lib/libuuid.a(lib32_libuuid_a-uuid.o)
                0x000000000041040c                IID_INewMenuClient
 .rdata$IID_INewShortcutHookA
                0x000000000041041c       0x10 /usr/lib/gcc/i686-w64-mingw32/4.8/../../../../i686-w64-mingw32/lib/../lib/libuuid.a(lib32_libuuid_a-uuid.o)
                0x000000000041041c                IID_INewShortcutHookA
 .rdata$IID_INewShortcutHookW
                0x000000000041042c       0x10 /usr/lib/gcc/i686-w64-mingw32/4.8/../../../../i686-w64-mingw32/lib/../lib/libuuid.a(lib32_libuuid_a-uuid.o)
                0x000000000041042c                IID_INewShortcutHookW
 .rdata$IID_INewWindowManager
                0x000000000041043c       0x10 /usr/lib/gcc/i686-w64-mingw32/4.8/../../../../i686-w64-mingw32/lib/../lib/libuuid.a(lib32_libuuid_a-uuid.o)
                0x000000000041043c                IID_INewWindowManager
 .rdata$IID_INoMarshal
                0x000000000041044c       0x10 /usr/lib/gcc/i686-w64-mingw32/4.8/../../../../i686-w64-mingw32/lib/../lib/libuuid.a(lib32_libuuid_a-uuid.o)
                0x000000000041044c                IID_INoMarshal
 .rdata$IID_IObjMgr
                0x000000000041045c       0x10 /usr/lib/gcc/i686-w64-mingw32/4.8/../../../../i686-w64-mingw32/lib/../lib/libuuid.a(lib32_libuuid_a-uuid.o)
                0x000000000041045c                IID_IObjMgr
 .rdata$IID_IObjectArray
                0x000000000041046c       0x10 /usr/lib/gcc/i686-w64-mingw32/4.8/../../../../i686-w64-mingw32/lib/../lib/libuuid.a(lib32_libuuid_a-uuid.o)
                0x000000000041046c                IID_IObjectArray
 .rdata$IID_IObjectCollection
                0x000000000041047c       0x10 /usr/lib/gcc/i686-w64-mingw32/4.8/../../../../i686-w64-mingw32/lib/../lib/libuuid.a(lib32_libuuid_a-uuid.o)
                0x000000000041047c                IID_IObjectCollection
 .rdata$IID_IObjectProvider
                0x000000000041048c       0x10 /usr/lib/gcc/i686-w64-mingw32/4.8/../../../../i686-w64-mingw32/lib/../lib/libuuid.a(lib32_libuuid_a-uuid.o)
                0x000000000041048c                IID_IObjectProvider
 .rdata$IID_IObjectSafety
                0x000000000041049c       0x10 /usr/lib/gcc/i686-w64-mingw32/4.8/../../../../i686-w64-mingw32/lib/../lib/libuuid.a(lib32_libuuid_a-uuid.o)
                0x000000000041049c                IID_IObjectSafety
 .rdata$IID_IObjectWithAppUserModelID
                0x00000000004104ac       0x10 /usr/lib/gcc/i686-w64-mingw32/4.8/../../../../i686-w64-mingw32/lib/../lib/libuuid.a(lib32_libuuid_a-uuid.o)
                0x00000000004104ac                IID_IObjectWithAppUserModelID
 .rdata$IID_IObjectWithBackReferences
                0x00000000004104bc       0x10 /usr/lib/gcc/i686-w64-mingw32/4.8/../../../../i686-w64-mingw32/lib/../lib/libuuid.a(lib32_libuuid_a-uuid.o)
                0x00000000004104bc                IID_IObjectWithBackReferences
 .rdata$IID_IObjectWithCancelEvent
                0x00000000004104cc       0x10 /usr/lib/gcc/i686-w64-mingw32/4.8/../../../../i686-w64-mingw32/lib/../lib/libuuid.a(lib32_libuuid_a-uuid.o)
                0x00000000004104cc                IID_IObjectWithCancelEvent
 .rdata$IID_IObjectWithFolderEnumMode
                0x00000000004104dc       0x10 /usr/lib/gcc/i686-w64-mingw32/4.8/../../../../i686-w64-mingw32/lib/../lib/libuuid.a(lib32_libuuid_a-uuid.o)
                0x00000000004104dc                IID_IObjectWithFolderEnumMode
 .rdata$IID_IObjectWithProgID
                0x00000000004104ec       0x10 /usr/lib/gcc/i686-w64-mingw32/4.8/../../../../i686-w64-mingw32/lib/../lib/libuuid.a(lib32_libuuid_a-uuid.o)
                0x00000000004104ec                IID_IObjectWithProgID
 .rdata$IID_IObjectWithPropertyKey
                0x00000000004104fc       0x10 /usr/lib/gcc/i686-w64-mingw32/4.8/../../../../i686-w64-mingw32/lib/../lib/libuuid.a(lib32_libuuid_a-uuid.o)
                0x00000000004104fc                IID_IObjectWithPropertyKey
 .rdata$IID_IObjectWithSelection
                0x000000000041050c       0x10 /usr/lib/gcc/i686-w64-mingw32/4.8/../../../../i686-w64-mingw32/lib/../lib/libuuid.a(lib32_libuuid_a-uuid.o)
                0x000000000041050c                IID_IObjectWithSelection
 .rdata$IID_IObjectWithSite
                0x000000000041051c       0x10 /usr/lib/gcc/i686-w64-mingw32/4.8/../../../../i686-w64-mingw32/lib/../lib/libuuid.a(lib32_libuuid_a-uuid.o)
                0x000000000041051c                IID_IObjectWithSite
 .rdata$IID_IOleAdviseHolder
                0x000000000041052c       0x10 /usr/lib/gcc/i686-w64-mingw32/4.8/../../../../i686-w64-mingw32/lib/../lib/libuuid.a(lib32_libuuid_a-uuid.o)
                0x000000000041052c                IID_IOleAdviseHolder
 .rdata$IID_IOleCache
                0x000000000041053c       0x10 /usr/lib/gcc/i686-w64-mingw32/4.8/../../../../i686-w64-mingw32/lib/../lib/libuuid.a(lib32_libuuid_a-uuid.o)
                0x000000000041053c                IID_IOleCache
 .rdata$IID_IOleCache2
                0x000000000041054c       0x10 /usr/lib/gcc/i686-w64-mingw32/4.8/../../../../i686-w64-mingw32/lib/../lib/libuuid.a(lib32_libuuid_a-uuid.o)
                0x000000000041054c                IID_IOleCache2
 .rdata$IID_IOleCacheControl
                0x000000000041055c       0x10 /usr/lib/gcc/i686-w64-mingw32/4.8/../../../../i686-w64-mingw32/lib/../lib/libuuid.a(lib32_libuuid_a-uuid.o)
                0x000000000041055c                IID_IOleCacheControl
 .rdata$IID_IOleClientSite
                0x000000000041056c       0x10 /usr/lib/gcc/i686-w64-mingw32/4.8/../../../../i686-w64-mingw32/lib/../lib/libuuid.a(lib32_libuuid_a-uuid.o)
                0x000000000041056c                IID_IOleClientSite
 .rdata$IID_IOleCommandTarget
                0x000000000041057c       0x10 /usr/lib/gcc/i686-w64-mingw32/4.8/../../../../i686-w64-mingw32/lib/../lib/libuuid.a(lib32_libuuid_a-uuid.o)
                0x000000000041057c                IID_IOleCommandTarget
 .rdata$IID_IOleContainer
                0x000000000041058c       0x10 /usr/lib/gcc/i686-w64-mingw32/4.8/../../../../i686-w64-mingw32/lib/../lib/libuuid.a(lib32_libuuid_a-uuid.o)
                0x000000000041058c                IID_IOleContainer
 .rdata$IID_IOleControl
                0x000000000041059c       0x10 /usr/lib/gcc/i686-w64-mingw32/4.8/../../../../i686-w64-mingw32/lib/../lib/libuuid.a(lib32_libuuid_a-uuid.o)
                0x000000000041059c                IID_IOleControl
 .rdata$IID_IOleControlSite
                0x00000000004105ac       0x10 /usr/lib/gcc/i686-w64-mingw32/4.8/../../../../i686-w64-mingw32/lib/../lib/libuuid.a(lib32_libuuid_a-uuid.o)
                0x00000000004105ac                IID_IOleControlSite
 .rdata$IID_IOleDocument
                0x00000000004105bc       0x10 /usr/lib/gcc/i686-w64-mingw32/4.8/../../../../i686-w64-mingw32/lib/../lib/libuuid.a(lib32_libuuid_a-uuid.o)
                0x00000000004105bc                IID_IOleDocument
 .rdata$IID_IOleDocumentSite
                0x00000000004105cc       0x10 /usr/lib/gcc/i686-w64-mingw32/4.8/../../../../i686-w64-mingw32/lib/../lib/libuuid.a(lib32_libuuid_a-uuid.o)
                0x00000000004105cc                IID_IOleDocumentSite
 .rdata$IID_IOleDocumentView
                0x00000000004105dc       0x10 /usr/lib/gcc/i686-w64-mingw32/4.8/../../../../i686-w64-mingw32/lib/../lib/libuuid.a(lib32_libuuid_a-uuid.o)
                0x00000000004105dc                IID_IOleDocumentView
 .rdata$IID_IOleInPlaceActiveObject
                0x00000000004105ec       0x10 /usr/lib/gcc/i686-w64-mingw32/4.8/../../../../i686-w64-mingw32/lib/../lib/libuuid.a(lib32_libuuid_a-uuid.o)
                0x00000000004105ec                IID_IOleInPlaceActiveObject
 .rdata$IID_IOleInPlaceFrame
                0x00000000004105fc       0x10 /usr/lib/gcc/i686-w64-mingw32/4.8/../../../../i686-w64-mingw32/lib/../lib/libuuid.a(lib32_libuuid_a-uuid.o)
                0x00000000004105fc                IID_IOleInPlaceFrame
 .rdata$IID_IOleInPlaceObject
                0x000000000041060c       0x10 /usr/lib/gcc/i686-w64-mingw32/4.8/../../../../i686-w64-mingw32/lib/../lib/libuuid.a(lib32_libuuid_a-uuid.o)
                0x000000000041060c                IID_IOleInPlaceObject
 .rdata$IID_IOleInPlaceObjectWindowless
                0x000000000041061c       0x10 /usr/lib/gcc/i686-w64-mingw32/4.8/../../../../i686-w64-mingw32/lib/../lib/libuuid.a(lib32_libuuid_a-uuid.o)
                0x000000000041061c                IID_IOleInPlaceObjectWindowless
 .rdata$IID_IOleInPlaceSite
                0x000000000041062c       0x10 /usr/lib/gcc/i686-w64-mingw32/4.8/../../../../i686-w64-mingw32/lib/../lib/libuuid.a(lib32_libuuid_a-uuid.o)
                0x000000000041062c                IID_IOleInPlaceSite
 .rdata$IID_IOleInPlaceSiteEx
                0x000000000041063c       0x10 /usr/lib/gcc/i686-w64-mingw32/4.8/../../../../i686-w64-mingw32/lib/../lib/libuuid.a(lib32_libuuid_a-uuid.o)
                0x000000000041063c                IID_IOleInPlaceSiteEx
 .rdata$IID_IOleInPlaceSiteWindowless
                0x000000000041064c       0x10 /usr/lib/gcc/i686-w64-mingw32/4.8/../../../../i686-w64-mingw32/lib/../lib/libuuid.a(lib32_libuuid_a-uuid.o)
                0x000000000041064c                IID_IOleInPlaceSiteWindowless
 .rdata$IID_IOleInPlaceUIWindow
                0x000000000041065c       0x10 /usr/lib/gcc/i686-w64-mingw32/4.8/../../../../i686-w64-mingw32/lib/../lib/libuuid.a(lib32_libuuid_a-uuid.o)
                0x000000000041065c                IID_IOleInPlaceUIWindow
 .rdata$IID_IOleItemContainer
                0x000000000041066c       0x10 /usr/lib/gcc/i686-w64-mingw32/4.8/../../../../i686-w64-mingw32/lib/../lib/libuuid.a(lib32_libuuid_a-uuid.o)
                0x000000000041066c                IID_IOleItemContainer
 .rdata$IID_IOleLink
                0x000000000041067c       0x10 /usr/lib/gcc/i686-w64-mingw32/4.8/../../../../i686-w64-mingw32/lib/../lib/libuuid.a(lib32_libuuid_a-uuid.o)
                0x000000000041067c                IID_IOleLink
 .rdata$IID_IOleManager
                0x000000000041068c       0x10 /usr/lib/gcc/i686-w64-mingw32/4.8/../../../../i686-w64-mingw32/lib/../lib/libuuid.a(lib32_libuuid_a-uuid.o)
                0x000000000041068c                IID_IOleManager
 .rdata$IID_IOleObject
                0x000000000041069c       0x10 /usr/lib/gcc/i686-w64-mingw32/4.8/../../../../i686-w64-mingw32/lib/../lib/libuuid.a(lib32_libuuid_a-uuid.o)
                0x000000000041069c                IID_IOleObject
 .rdata$IID_IOleParentUndoUnit
                0x00000000004106ac       0x10 /usr/lib/gcc/i686-w64-mingw32/4.8/../../../../i686-w64-mingw32/lib/../lib/libuuid.a(lib32_libuuid_a-uuid.o)
                0x00000000004106ac                IID_IOleParentUndoUnit
 .rdata$IID_IOlePresObj
                0x00000000004106bc       0x10 /usr/lib/gcc/i686-w64-mingw32/4.8/../../../../i686-w64-mingw32/lib/../lib/libuuid.a(lib32_libuuid_a-uuid.o)
                0x00000000004106bc                IID_IOlePresObj
 .rdata$IID_IOleUndoManager
                0x00000000004106cc       0x10 /usr/lib/gcc/i686-w64-mingw32/4.8/../../../../i686-w64-mingw32/lib/../lib/libuuid.a(lib32_libuuid_a-uuid.o)
                0x00000000004106cc                IID_IOleUndoManager
 .rdata$IID_IOleUndoManager00
                0x00000000004106dc       0x10 /usr/lib/gcc/i686-w64-mingw32/4.8/../../../../i686-w64-mingw32/lib/../lib/libuuid.a(lib32_libuuid_a-uuid.o)
                0x00000000004106dc                IID_IOleUndoManager00
 .rdata$IID_IOleUndoUnit
                0x00000000004106ec       0x10 /usr/lib/gcc/i686-w64-mingw32/4.8/../../../../i686-w64-mingw32/lib/../lib/libuuid.a(lib32_libuuid_a-uuid.o)
                0x00000000004106ec                IID_IOleUndoUnit
 .rdata$IID_IOleWindow
                0x00000000004106fc       0x10 /usr/lib/gcc/i686-w64-mingw32/4.8/../../../../i686-w64-mingw32/lib/../lib/libuuid.a(lib32_libuuid_a-uuid.o)
                0x00000000004106fc                IID_IOleWindow
 .rdata$IID_IOpenControlPanel
                0x000000000041070c       0x10 /usr/lib/gcc/i686-w64-mingw32/4.8/../../../../i686-w64-mingw32/lib/../lib/libuuid.a(lib32_libuuid_a-uuid.o)
                0x000000000041070c                IID_IOpenControlPanel
 .rdata$IID_IOpenSearchSource
                0x000000000041071c       0x10 /usr/lib/gcc/i686-w64-mingw32/4.8/../../../../i686-w64-mingw32/lib/../lib/libuuid.a(lib32_libuuid_a-uuid.o)
                0x000000000041071c                IID_IOpenSearchSource
 .rdata$IID_IOperationsProgressDialog
                0x000000000041072c       0x10 /usr/lib/gcc/i686-w64-mingw32/4.8/../../../../i686-w64-mingw32/lib/../lib/libuuid.a(lib32_libuuid_a-uuid.o)
                0x000000000041072c                IID_IOperationsProgressDialog
 .rdata$IID_IOplockStorage
                0x000000000041073c       0x10 /usr/lib/gcc/i686-w64-mingw32/4.8/../../../../i686-w64-mingw32/lib/../lib/libuuid.a(lib32_libuuid_a-uuid.o)
                0x000000000041073c                IID_IOplockStorage
 .rdata$IID_IOverlappedCompletion
                0x000000000041074c       0x10 /usr/lib/gcc/i686-w64-mingw32/4.8/../../../../i686-w64-mingw32/lib/../lib/libuuid.a(lib32_libuuid_a-uuid.o)
                0x000000000041074c                IID_IOverlappedCompletion
 .rdata$IID_IOverlappedStream
                0x000000000041075c       0x10 /usr/lib/gcc/i686-w64-mingw32/4.8/../../../../i686-w64-mingw32/lib/../lib/libuuid.a(lib32_libuuid_a-uuid.o)
                0x000000000041075c                IID_IOverlappedStream
 .rdata$IID_IPSFactory
                0x000000000041076c       0x10 /usr/lib/gcc/i686-w64-mingw32/4.8/../../../../i686-w64-mingw32/lib/../lib/libuuid.a(lib32_libuuid_a-uuid.o)
                0x000000000041076c                IID_IPSFactory
 .rdata$IID_IPSFactoryBuffer
                0x000000000041077c       0x10 /usr/lib/gcc/i686-w64-mingw32/4.8/../../../../i686-w64-mingw32/lib/../lib/libuuid.a(lib32_libuuid_a-uuid.o)
                0x000000000041077c                IID_IPSFactoryBuffer
 .rdata$IID_IPackageDebugSettings
                0x000000000041078c       0x10 /usr/lib/gcc/i686-w64-mingw32/4.8/../../../../i686-w64-mingw32/lib/../lib/libuuid.a(lib32_libuuid_a-uuid.o)
                0x000000000041078c                IID_IPackageDebugSettings
 .rdata$IID_IPackageExecutionStateChangeNotification
                0x000000000041079c       0x10 /usr/lib/gcc/i686-w64-mingw32/4.8/../../../../i686-w64-mingw32/lib/../lib/libuuid.a(lib32_libuuid_a-uuid.o)
                0x000000000041079c                IID_IPackageExecutionStateChangeNotification
 .rdata$IID_IParentAndItem
                0x00000000004107ac       0x10 /usr/lib/gcc/i686-w64-mingw32/4.8/../../../../i686-w64-mingw32/lib/../lib/libuuid.a(lib32_libuuid_a-uuid.o)
                0x00000000004107ac                IID_IParentAndItem
 .rdata$IID_IParseAndCreateItem
                0x00000000004107bc       0x10 /usr/lib/gcc/i686-w64-mingw32/4.8/../../../../i686-w64-mingw32/lib/../lib/libuuid.a(lib32_libuuid_a-uuid.o)
                0x00000000004107bc                IID_IParseAndCreateItem
 .rdata$IID_IParseDisplayName
                0x00000000004107cc       0x10 /usr/lib/gcc/i686-w64-mingw32/4.8/../../../../i686-w64-mingw32/lib/../lib/libuuid.a(lib32_libuuid_a-uuid.o)
                0x00000000004107cc                IID_IParseDisplayName
 .rdata$IID_IPerPropertyBrowsing
                0x00000000004107dc       0x10 /usr/lib/gcc/i686-w64-mingw32/4.8/../../../../i686-w64-mingw32/lib/../lib/libuuid.a(lib32_libuuid_a-uuid.o)
                0x00000000004107dc                IID_IPerPropertyBrowsing
 .rdata$IID_IPersist
                0x00000000004107ec       0x10 /usr/lib/gcc/i686-w64-mingw32/4.8/../../../../i686-w64-mingw32/lib/../lib/libuuid.a(lib32_libuuid_a-uuid.o)
                0x00000000004107ec                IID_IPersist
 .rdata$IID_IPersistFile
                0x00000000004107fc       0x10 /usr/lib/gcc/i686-w64-mingw32/4.8/../../../../i686-w64-mingw32/lib/../lib/libuuid.a(lib32_libuuid_a-uuid.o)
                0x00000000004107fc                IID_IPersistFile
 .rdata$IID_IPersistFolder
                0x000000000041080c       0x10 /usr/lib/gcc/i686-w64-mingw32/4.8/../../../../i686-w64-mingw32/lib/../lib/libuuid.a(lib32_libuuid_a-uuid.o)
                0x000000000041080c                IID_IPersistFolder
 .rdata$IID_IPersistFolder2
                0x000000000041081c       0x10 /usr/lib/gcc/i686-w64-mingw32/4.8/../../../../i686-w64-mingw32/lib/../lib/libuuid.a(lib32_libuuid_a-uuid.o)
                0x000000000041081c                IID_IPersistFolder2
 .rdata$IID_IPersistFolder3
                0x000000000041082c       0x10 /usr/lib/gcc/i686-w64-mingw32/4.8/../../../../i686-w64-mingw32/lib/../lib/libuuid.a(lib32_libuuid_a-uuid.o)
                0x000000000041082c                IID_IPersistFolder3
 .rdata$IID_IPersistIDList
                0x000000000041083c       0x10 /usr/lib/gcc/i686-w64-mingw32/4.8/../../../../i686-w64-mingw32/lib/../lib/libuuid.a(lib32_libuuid_a-uuid.o)
                0x000000000041083c                IID_IPersistIDList
 .rdata$IID_IPersistMemory
                0x000000000041084c       0x10 /usr/lib/gcc/i686-w64-mingw32/4.8/../../../../i686-w64-mingw32/lib/../lib/libuuid.a(lib32_libuuid_a-uuid.o)
                0x000000000041084c                IID_IPersistMemory
 .rdata$IID_IPersistMoniker
                0x000000000041085c       0x10 /usr/lib/gcc/i686-w64-mingw32/4.8/../../../../i686-w64-mingw32/lib/../lib/libuuid.a(lib32_libuuid_a-uuid.o)
                0x000000000041085c                IID_IPersistMoniker
 .rdata$IID_IPersistPropertyBag
                0x000000000041086c       0x10 /usr/lib/gcc/i686-w64-mingw32/4.8/../../../../i686-w64-mingw32/lib/../lib/libuuid.a(lib32_libuuid_a-uuid.o)
                0x000000000041086c                IID_IPersistPropertyBag
 .rdata$IID_IPersistPropertyBag2
                0x000000000041087c       0x10 /usr/lib/gcc/i686-w64-mingw32/4.8/../../../../i686-w64-mingw32/lib/../lib/libuuid.a(lib32_libuuid_a-uuid.o)
                0x000000000041087c                IID_IPersistPropertyBag2
 .rdata$IID_IPersistSerializedPropStorage
                0x000000000041088c       0x10 /usr/lib/gcc/i686-w64-mingw32/4.8/../../../../i686-w64-mingw32/lib/../lib/libuuid.a(lib32_libuuid_a-uuid.o)
                0x000000000041088c                IID_IPersistSerializedPropStorage
 .rdata$IID_IPersistSerializedPropStorage2
                0x000000000041089c       0x10 /usr/lib/gcc/i686-w64-mingw32/4.8/../../../../i686-w64-mingw32/lib/../lib/libuuid.a(lib32_libuuid_a-uuid.o)
                0x000000000041089c                IID_IPersistSerializedPropStorage2
 .rdata$IID_IPersistStorage
                0x00000000004108ac       0x10 /usr/lib/gcc/i686-w64-mingw32/4.8/../../../../i686-w64-mingw32/lib/../lib/libuuid.a(lib32_libuuid_a-uuid.o)
                0x00000000004108ac                IID_IPersistStorage
 .rdata$IID_IPersistStream
                0x00000000004108bc       0x10 /usr/lib/gcc/i686-w64-mingw32/4.8/../../../../i686-w64-mingw32/lib/../lib/libuuid.a(lib32_libuuid_a-uuid.o)
                0x00000000004108bc                IID_IPersistStream
 .rdata$IID_IPersistStreamInit
                0x00000000004108cc       0x10 /usr/lib/gcc/i686-w64-mingw32/4.8/../../../../i686-w64-mingw32/lib/../lib/libuuid.a(lib32_libuuid_a-uuid.o)
                0x00000000004108cc                IID_IPersistStreamInit
 .rdata$IID_IPicture
                0x00000000004108dc       0x10 /usr/lib/gcc/i686-w64-mingw32/4.8/../../../../i686-w64-mingw32/lib/../lib/libuuid.a(lib32_libuuid_a-uuid.o)
                0x00000000004108dc                IID_IPicture
 .rdata$IID_IPicture2
                0x00000000004108ec       0x10 /usr/lib/gcc/i686-w64-mingw32/4.8/../../../../i686-w64-mingw32/lib/../lib/libuuid.a(lib32_libuuid_a-uuid.o)
                0x00000000004108ec                IID_IPicture2
 .rdata$IID_IPictureDisp
                0x00000000004108fc       0x10 /usr/lib/gcc/i686-w64-mingw32/4.8/../../../../i686-w64-mingw32/lib/../lib/libuuid.a(lib32_libuuid_a-uuid.o)
                0x00000000004108fc                IID_IPictureDisp
 .rdata$IID_IPipeByte
                0x000000000041090c       0x10 /usr/lib/gcc/i686-w64-mingw32/4.8/../../../../i686-w64-mingw32/lib/../lib/libuuid.a(lib32_libuuid_a-uuid.o)
                0x000000000041090c                IID_IPipeByte
 .rdata$IID_IPipeDouble
                0x000000000041091c       0x10 /usr/lib/gcc/i686-w64-mingw32/4.8/../../../../i686-w64-mingw32/lib/../lib/libuuid.a(lib32_libuuid_a-uuid.o)
                0x000000000041091c                IID_IPipeDouble
 .rdata$IID_IPipeLong
                0x000000000041092c       0x10 /usr/lib/gcc/i686-w64-mingw32/4.8/../../../../i686-w64-mingw32/lib/../lib/libuuid.a(lib32_libuuid_a-uuid.o)
                0x000000000041092c                IID_IPipeLong
 .rdata$IID_IPlaybackManager
                0x000000000041093c       0x10 /usr/lib/gcc/i686-w64-mingw32/4.8/../../../../i686-w64-mingw32/lib/../lib/libuuid.a(lib32_libuuid_a-uuid.o)
                0x000000000041093c                IID_IPlaybackManager
 .rdata$IID_IPlaybackManagerEvents
                0x000000000041094c       0x10 /usr/lib/gcc/i686-w64-mingw32/4.8/../../../../i686-w64-mingw32/lib/../lib/libuuid.a(lib32_libuuid_a-uuid.o)
                0x000000000041094c                IID_IPlaybackManagerEvents
 .rdata$IID_IPointerInactive
                0x000000000041095c       0x10 /usr/lib/gcc/i686-w64-mingw32/4.8/../../../../i686-w64-mingw32/lib/../lib/libuuid.a(lib32_libuuid_a-uuid.o)
                0x000000000041095c                IID_IPointerInactive
 .rdata$IID_IPreviewHandler
                0x000000000041096c       0x10 /usr/lib/gcc/i686-w64-mingw32/4.8/../../../../i686-w64-mingw32/lib/../lib/libuuid.a(lib32_libuuid_a-uuid.o)
                0x000000000041096c                IID_IPreviewHandler
 .rdata$IID_IPreviewHandlerFrame
                0x000000000041097c       0x10 /usr/lib/gcc/i686-w64-mingw32/4.8/../../../../i686-w64-mingw32/lib/../lib/libuuid.a(lib32_libuuid_a-uuid.o)
                0x000000000041097c                IID_IPreviewHandlerFrame
 .rdata$IID_IPreviewHandlerVisuals
                0x000000000041098c       0x10 /usr/lib/gcc/i686-w64-mingw32/4.8/../../../../i686-w64-mingw32/lib/../lib/libuuid.a(lib32_libuuid_a-uuid.o)
                0x000000000041098c                IID_IPreviewHandlerVisuals
 .rdata$IID_IPreviewItem
                0x000000000041099c       0x10 /usr/lib/gcc/i686-w64-mingw32/4.8/../../../../i686-w64-mingw32/lib/../lib/libuuid.a(lib32_libuuid_a-uuid.o)
                0x000000000041099c                IID_IPreviewItem
 .rdata$IID_IPreviousVersionsInfo
                0x00000000004109ac       0x10 /usr/lib/gcc/i686-w64-mingw32/4.8/../../../../i686-w64-mingw32/lib/../lib/libuuid.a(lib32_libuuid_a-uuid.o)
                0x00000000004109ac                IID_IPreviousVersionsInfo
 .rdata$IID_IPrint
                0x00000000004109bc       0x10 /usr/lib/gcc/i686-w64-mingw32/4.8/../../../../i686-w64-mingw32/lib/../lib/libuuid.a(lib32_libuuid_a-uuid.o)
                0x00000000004109bc                IID_IPrint
 .rdata$IID_IPrintDialogCallback
                0x00000000004109cc       0x10 /usr/lib/gcc/i686-w64-mingw32/4.8/../../../../i686-w64-mingw32/lib/../lib/libuuid.a(lib32_libuuid_a-uuid.o)
                0x00000000004109cc                IID_IPrintDialogCallback
 .rdata$IID_IPrintDialogServices
                0x00000000004109dc       0x10 /usr/lib/gcc/i686-w64-mingw32/4.8/../../../../i686-w64-mingw32/lib/../lib/libuuid.a(lib32_libuuid_a-uuid.o)
                0x00000000004109dc                IID_IPrintDialogServices
 .rdata$IID_IProcessInitControl
                0x00000000004109ec       0x10 /usr/lib/gcc/i686-w64-mingw32/4.8/../../../../i686-w64-mingw32/lib/../lib/libuuid.a(lib32_libuuid_a-uuid.o)
                0x00000000004109ec                IID_IProcessInitControl
 .rdata$IID_IProcessLock
                0x00000000004109fc       0x10 /usr/lib/gcc/i686-w64-mingw32/4.8/../../../../i686-w64-mingw32/lib/../lib/libuuid.a(lib32_libuuid_a-uuid.o)
                0x00000000004109fc                IID_IProcessLock
 .rdata$IID_IProfferService
                0x0000000000410a0c       0x10 /usr/lib/gcc/i686-w64-mingw32/4.8/../../../../i686-w64-mingw32/lib/../lib/libuuid.a(lib32_libuuid_a-uuid.o)
                0x0000000000410a0c                IID_IProfferService
 .rdata$IID_IProgressDialog
                0x0000000000410a1c       0x10 /usr/lib/gcc/i686-w64-mingw32/4.8/../../../../i686-w64-mingw32/lib/../lib/libuuid.a(lib32_libuuid_a-uuid.o)
                0x0000000000410a1c                IID_IProgressDialog
 .rdata$IID_IProgressNotify
                0x0000000000410a2c       0x10 /usr/lib/gcc/i686-w64-mingw32/4.8/../../../../i686-w64-mingw32/lib/../lib/libuuid.a(lib32_libuuid_a-uuid.o)
                0x0000000000410a2c                IID_IProgressNotify
 .rdata$IID_IPropSheetPage
                0x0000000000410a3c       0x10 /usr/lib/gcc/i686-w64-mingw32/4.8/../../../../i686-w64-mingw32/lib/../lib/libuuid.a(lib32_libuuid_a-uuid.o)
                0x0000000000410a3c                IID_IPropSheetPage
 .rdata$IID_IPropertyBag
                0x0000000000410a4c       0x10 /usr/lib/gcc/i686-w64-mingw32/4.8/../../../../i686-w64-mingw32/lib/../lib/libuuid.a(lib32_libuuid_a-uuid.o)
                0x0000000000410a4c                IID_IPropertyBag
 .rdata$IID_IPropertyBag2
                0x0000000000410a5c       0x10 /usr/lib/gcc/i686-w64-mingw32/4.8/../../../../i686-w64-mingw32/lib/../lib/libuuid.a(lib32_libuuid_a-uuid.o)
                0x0000000000410a5c                IID_IPropertyBag2
 .rdata$IID_IPropertyChange
                0x0000000000410a6c       0x10 /usr/lib/gcc/i686-w64-mingw32/4.8/../../../../i686-w64-mingw32/lib/../lib/libuuid.a(lib32_libuuid_a-uuid.o)
                0x0000000000410a6c                IID_IPropertyChange
 .rdata$IID_IPropertyChangeArray
                0x0000000000410a7c       0x10 /usr/lib/gcc/i686-w64-mingw32/4.8/../../../../i686-w64-mingw32/lib/../lib/libuuid.a(lib32_libuuid_a-uuid.o)
                0x0000000000410a7c                IID_IPropertyChangeArray
 .rdata$IID_IPropertyDescription
                0x0000000000410a8c       0x10 /usr/lib/gcc/i686-w64-mingw32/4.8/../../../../i686-w64-mingw32/lib/../lib/libuuid.a(lib32_libuuid_a-uuid.o)
                0x0000000000410a8c                IID_IPropertyDescription
 .rdata$IID_IPropertyDescription2
                0x0000000000410a9c       0x10 /usr/lib/gcc/i686-w64-mingw32/4.8/../../../../i686-w64-mingw32/lib/../lib/libuuid.a(lib32_libuuid_a-uuid.o)
                0x0000000000410a9c                IID_IPropertyDescription2
 .rdata$IID_IPropertyDescriptionAliasInfo
                0x0000000000410aac       0x10 /usr/lib/gcc/i686-w64-mingw32/4.8/../../../../i686-w64-mingw32/lib/../lib/libuuid.a(lib32_libuuid_a-uuid.o)
                0x0000000000410aac                IID_IPropertyDescriptionAliasInfo
 .rdata$IID_IPropertyDescriptionList
                0x0000000000410abc       0x10 /usr/lib/gcc/i686-w64-mingw32/4.8/../../../../i686-w64-mingw32/lib/../lib/libuuid.a(lib32_libuuid_a-uuid.o)
                0x0000000000410abc                IID_IPropertyDescriptionList
 .rdata$IID_IPropertyDescriptionRelatedPropertyInfo
                0x0000000000410acc       0x10 /usr/lib/gcc/i686-w64-mingw32/4.8/../../../../i686-w64-mingw32/lib/../lib/libuuid.a(lib32_libuuid_a-uuid.o)
                0x0000000000410acc                IID_IPropertyDescriptionRelatedPropertyInfo
 .rdata$IID_IPropertyDescriptionSearchInfo
                0x0000000000410adc       0x10 /usr/lib/gcc/i686-w64-mingw32/4.8/../../../../i686-w64-mingw32/lib/../lib/libuuid.a(lib32_libuuid_a-uuid.o)
                0x0000000000410adc                IID_IPropertyDescriptionSearchInfo
 .rdata$IID_IPropertyEnumType
                0x0000000000410aec       0x10 /usr/lib/gcc/i686-w64-mingw32/4.8/../../../../i686-w64-mingw32/lib/../lib/libuuid.a(lib32_libuuid_a-uuid.o)
                0x0000000000410aec                IID_IPropertyEnumType
 .rdata$IID_IPropertyEnumType2
                0x0000000000410afc       0x10 /usr/lib/gcc/i686-w64-mingw32/4.8/../../../../i686-w64-mingw32/lib/../lib/libuuid.a(lib32_libuuid_a-uuid.o)
                0x0000000000410afc                IID_IPropertyEnumType2
 .rdata$IID_IPropertyEnumTypeList
                0x0000000000410b0c       0x10 /usr/lib/gcc/i686-w64-mingw32/4.8/../../../../i686-w64-mingw32/lib/../lib/libuuid.a(lib32_libuuid_a-uuid.o)
                0x0000000000410b0c                IID_IPropertyEnumTypeList
 .rdata$IID_IPropertyFrame
                0x0000000000410b1c       0x10 /usr/lib/gcc/i686-w64-mingw32/4.8/../../../../i686-w64-mingw32/lib/../lib/libuuid.a(lib32_libuuid_a-uuid.o)
                0x0000000000410b1c                IID_IPropertyFrame
 .rdata$IID_IPropertyNotifySink
                0x0000000000410b2c       0x10 /usr/lib/gcc/i686-w64-mingw32/4.8/../../../../i686-w64-mingw32/lib/../lib/libuuid.a(lib32_libuuid_a-uuid.o)
                0x0000000000410b2c                IID_IPropertyNotifySink
 .rdata$IID_IPropertyPage
                0x0000000000410b3c       0x10 /usr/lib/gcc/i686-w64-mingw32/4.8/../../../../i686-w64-mingw32/lib/../lib/libuuid.a(lib32_libuuid_a-uuid.o)
                0x0000000000410b3c                IID_IPropertyPage
 .rdata$IID_IPropertyPage2
                0x0000000000410b4c       0x10 /usr/lib/gcc/i686-w64-mingw32/4.8/../../../../i686-w64-mingw32/lib/../lib/libuuid.a(lib32_libuuid_a-uuid.o)
                0x0000000000410b4c                IID_IPropertyPage2
 .rdata$IID_IPropertyPageSite
                0x0000000000410b5c       0x10 /usr/lib/gcc/i686-w64-mingw32/4.8/../../../../i686-w64-mingw32/lib/../lib/libuuid.a(lib32_libuuid_a-uuid.o)
                0x0000000000410b5c                IID_IPropertyPageSite
 .rdata$IID_IPropertySetStorage
                0x0000000000410b6c       0x10 /usr/lib/gcc/i686-w64-mingw32/4.8/../../../../i686-w64-mingw32/lib/../lib/libuuid.a(lib32_libuuid_a-uuid.o)
                0x0000000000410b6c                IID_IPropertySetStorage
 .rdata$IID_IPropertyStorage
                0x0000000000410b7c       0x10 /usr/lib/gcc/i686-w64-mingw32/4.8/../../../../i686-w64-mingw32/lib/../lib/libuuid.a(lib32_libuuid_a-uuid.o)
                0x0000000000410b7c                IID_IPropertyStorage
 .rdata$IID_IPropertyStore
                0x0000000000410b8c       0x10 /usr/lib/gcc/i686-w64-mingw32/4.8/../../../../i686-w64-mingw32/lib/../lib/libuuid.a(lib32_libuuid_a-uuid.o)
                0x0000000000410b8c                IID_IPropertyStore
 .rdata$IID_IPropertyStoreCache
                0x0000000000410b9c       0x10 /usr/lib/gcc/i686-w64-mingw32/4.8/../../../../i686-w64-mingw32/lib/../lib/libuuid.a(lib32_libuuid_a-uuid.o)
                0x0000000000410b9c                IID_IPropertyStoreCache
 .rdata$IID_IPropertyStoreCapabilities
                0x0000000000410bac       0x10 /usr/lib/gcc/i686-w64-mingw32/4.8/../../../../i686-w64-mingw32/lib/../lib/libuuid.a(lib32_libuuid_a-uuid.o)
                0x0000000000410bac                IID_IPropertyStoreCapabilities
 .rdata$IID_IPropertyStoreFactory
                0x0000000000410bbc       0x10 /usr/lib/gcc/i686-w64-mingw32/4.8/../../../../i686-w64-mingw32/lib/../lib/libuuid.a(lib32_libuuid_a-uuid.o)
                0x0000000000410bbc                IID_IPropertyStoreFactory
 .rdata$IID_IPropertySystem
                0x0000000000410bcc       0x10 /usr/lib/gcc/i686-w64-mingw32/4.8/../../../../i686-w64-mingw32/lib/../lib/libuuid.a(lib32_libuuid_a-uuid.o)
                0x0000000000410bcc                IID_IPropertySystem
 .rdata$IID_IPropertySystemChangeNotify
                0x0000000000410bdc       0x10 /usr/lib/gcc/i686-w64-mingw32/4.8/../../../../i686-w64-mingw32/lib/../lib/libuuid.a(lib32_libuuid_a-uuid.o)
                0x0000000000410bdc                IID_IPropertySystemChangeNotify
 .rdata$IID_IPropertyUI
                0x0000000000410bec       0x10 /usr/lib/gcc/i686-w64-mingw32/4.8/../../../../i686-w64-mingw32/lib/../lib/libuuid.a(lib32_libuuid_a-uuid.o)
                0x0000000000410bec                IID_IPropertyUI
 .rdata$IID_IProtectFocus
                0x0000000000410bfc       0x10 /usr/lib/gcc/i686-w64-mingw32/4.8/../../../../i686-w64-mingw32/lib/../lib/libuuid.a(lib32_libuuid_a-uuid.o)
                0x0000000000410bfc                IID_IProtectFocus
 .rdata$IID_IProtectedModeMenuServices
                0x0000000000410c0c       0x10 /usr/lib/gcc/i686-w64-mingw32/4.8/../../../../i686-w64-mingw32/lib/../lib/libuuid.a(lib32_libuuid_a-uuid.o)
                0x0000000000410c0c                IID_IProtectedModeMenuServices
 .rdata$IID_IProvideClassInfo
                0x0000000000410c1c       0x10 /usr/lib/gcc/i686-w64-mingw32/4.8/../../../../i686-w64-mingw32/lib/../lib/libuuid.a(lib32_libuuid_a-uuid.o)
                0x0000000000410c1c                IID_IProvideClassInfo
 .rdata$IID_IProvideClassInfo2
                0x0000000000410c2c       0x10 /usr/lib/gcc/i686-w64-mingw32/4.8/../../../../i686-w64-mingw32/lib/../lib/libuuid.a(lib32_libuuid_a-uuid.o)
                0x0000000000410c2c                IID_IProvideClassInfo2
 .rdata$IID_IProvideMultipleClassInfo
                0x0000000000410c3c       0x10 /usr/lib/gcc/i686-w64-mingw32/4.8/../../../../i686-w64-mingw32/lib/../lib/libuuid.a(lib32_libuuid_a-uuid.o)
                0x0000000000410c3c                IID_IProvideMultipleClassInfo
 .rdata$IID_IProxy
                0x0000000000410c4c       0x10 /usr/lib/gcc/i686-w64-mingw32/4.8/../../../../i686-w64-mingw32/lib/../lib/libuuid.a(lib32_libuuid_a-uuid.o)
                0x0000000000410c4c                IID_IProxy
 .rdata$IID_IProxyManager
                0x0000000000410c5c       0x10 /usr/lib/gcc/i686-w64-mingw32/4.8/../../../../i686-w64-mingw32/lib/../lib/libuuid.a(lib32_libuuid_a-uuid.o)
                0x0000000000410c5c                IID_IProxyManager
 .rdata$IID_IPublishingWizard
                0x0000000000410c6c       0x10 /usr/lib/gcc/i686-w64-mingw32/4.8/../../../../i686-w64-mingw32/lib/../lib/libuuid.a(lib32_libuuid_a-uuid.o)
                0x0000000000410c6c                IID_IPublishingWizard
 .rdata$IID_IQueryAssociations
                0x0000000000410c7c       0x10 /usr/lib/gcc/i686-w64-mingw32/4.8/../../../../i686-w64-mingw32/lib/../lib/libuuid.a(lib32_libuuid_a-uuid.o)
                0x0000000000410c7c                IID_IQueryAssociations
 .rdata$IID_IQueryCancelAutoPlay
                0x0000000000410c8c       0x10 /usr/lib/gcc/i686-w64-mingw32/4.8/../../../../i686-w64-mingw32/lib/../lib/libuuid.a(lib32_libuuid_a-uuid.o)
                0x0000000000410c8c                IID_IQueryCancelAutoPlay
 .rdata$IID_IQueryCodePage
                0x0000000000410c9c       0x10 /usr/lib/gcc/i686-w64-mingw32/4.8/../../../../i686-w64-mingw32/lib/../lib/libuuid.a(lib32_libuuid_a-uuid.o)
                0x0000000000410c9c                IID_IQueryCodePage
 .rdata$IID_IQueryContinue
                0x0000000000410cac       0x10 /usr/lib/gcc/i686-w64-mingw32/4.8/../../../../i686-w64-mingw32/lib/../lib/libuuid.a(lib32_libuuid_a-uuid.o)
                0x0000000000410cac                IID_IQueryContinue
 .rdata$IID_IQueryInfo
                0x0000000000410cbc       0x10 /usr/lib/gcc/i686-w64-mingw32/4.8/../../../../i686-w64-mingw32/lib/../lib/libuuid.a(lib32_libuuid_a-uuid.o)
                0x0000000000410cbc                IID_IQueryInfo
 .rdata$IID_IQuickActivate
                0x0000000000410ccc       0x10 /usr/lib/gcc/i686-w64-mingw32/4.8/../../../../i686-w64-mingw32/lib/../lib/libuuid.a(lib32_libuuid_a-uuid.o)
                0x0000000000410ccc                IID_IQuickActivate
 .rdata$IID_IROTData
                0x0000000000410cdc       0x10 /usr/lib/gcc/i686-w64-mingw32/4.8/../../../../i686-w64-mingw32/lib/../lib/libuuid.a(lib32_libuuid_a-uuid.o)
                0x0000000000410cdc                IID_IROTData
 .rdata$IID_IRawElementProviderSimple
                0x0000000000410cec       0x10 /usr/lib/gcc/i686-w64-mingw32/4.8/../../../../i686-w64-mingw32/lib/../lib/libuuid.a(lib32_libuuid_a-uuid.o)
                0x0000000000410cec                IID_IRawElementProviderSimple
 .rdata$IID_IRecordInfo
                0x0000000000410cfc       0x10 /usr/lib/gcc/i686-w64-mingw32/4.8/../../../../i686-w64-mingw32/lib/../lib/libuuid.a(lib32_libuuid_a-uuid.o)
                0x0000000000410cfc                IID_IRecordInfo
 .rdata$IID_IRegTreeItem
                0x0000000000410d0c       0x10 /usr/lib/gcc/i686-w64-mingw32/4.8/../../../../i686-w64-mingw32/lib/../lib/libuuid.a(lib32_libuuid_a-uuid.o)
                0x0000000000410d0c                IID_IRegTreeItem
 .rdata$IID_IRelatedItem
                0x0000000000410d1c       0x10 /usr/lib/gcc/i686-w64-mingw32/4.8/../../../../i686-w64-mingw32/lib/../lib/libuuid.a(lib32_libuuid_a-uuid.o)
                0x0000000000410d1c                IID_IRelatedItem
 .rdata$IID_IReleaseMarshalBuffers
                0x0000000000410d2c       0x10 /usr/lib/gcc/i686-w64-mingw32/4.8/../../../../i686-w64-mingw32/lib/../lib/libuuid.a(lib32_libuuid_a-uuid.o)
                0x0000000000410d2c                IID_IReleaseMarshalBuffers
 .rdata$IID_IRemoteComputer
                0x0000000000410d3c       0x10 /usr/lib/gcc/i686-w64-mingw32/4.8/../../../../i686-w64-mingw32/lib/../lib/libuuid.a(lib32_libuuid_a-uuid.o)
                0x0000000000410d3c                IID_IRemoteComputer
 .rdata$IID_IResolveShellLink
                0x0000000000410d4c       0x10 /usr/lib/gcc/i686-w64-mingw32/4.8/../../../../i686-w64-mingw32/lib/../lib/libuuid.a(lib32_libuuid_a-uuid.o)
                0x0000000000410d4c                IID_IResolveShellLink
 .rdata$IID_IResultsFolder
                0x0000000000410d5c       0x10 /usr/lib/gcc/i686-w64-mingw32/4.8/../../../../i686-w64-mingw32/lib/../lib/libuuid.a(lib32_libuuid_a-uuid.o)
                0x0000000000410d5c                IID_IResultsFolder
 .rdata$IID_IRichChunk
                0x0000000000410d6c       0x10 /usr/lib/gcc/i686-w64-mingw32/4.8/../../../../i686-w64-mingw32/lib/../lib/libuuid.a(lib32_libuuid_a-uuid.o)
                0x0000000000410d6c                IID_IRichChunk
 .rdata$IID_IRichEditOle
                0x0000000000410d7c       0x10 /usr/lib/gcc/i686-w64-mingw32/4.8/../../../../i686-w64-mingw32/lib/../lib/libuuid.a(lib32_libuuid_a-uuid.o)
                0x0000000000410d7c                IID_IRichEditOle
 .rdata$IID_IRichEditOleCallback
                0x0000000000410d8c       0x10 /usr/lib/gcc/i686-w64-mingw32/4.8/../../../../i686-w64-mingw32/lib/../lib/libuuid.a(lib32_libuuid_a-uuid.o)
                0x0000000000410d8c                IID_IRichEditOleCallback
 .rdata$IID_IRootStorage
                0x0000000000410d9c       0x10 /usr/lib/gcc/i686-w64-mingw32/4.8/../../../../i686-w64-mingw32/lib/../lib/libuuid.a(lib32_libuuid_a-uuid.o)
                0x0000000000410d9c                IID_IRootStorage
 .rdata$IID_IRpcChannel
                0x0000000000410dac       0x10 /usr/lib/gcc/i686-w64-mingw32/4.8/../../../../i686-w64-mingw32/lib/../lib/libuuid.a(lib32_libuuid_a-uuid.o)
                0x0000000000410dac                IID_IRpcChannel
 .rdata$IID_IRpcChannelBuffer
                0x0000000000410dbc       0x10 /usr/lib/gcc/i686-w64-mingw32/4.8/../../../../i686-w64-mingw32/lib/../lib/libuuid.a(lib32_libuuid_a-uuid.o)
                0x0000000000410dbc                IID_IRpcChannelBuffer
 .rdata$IID_IRpcChannelBuffer2
                0x0000000000410dcc       0x10 /usr/lib/gcc/i686-w64-mingw32/4.8/../../../../i686-w64-mingw32/lib/../lib/libuuid.a(lib32_libuuid_a-uuid.o)
                0x0000000000410dcc                IID_IRpcChannelBuffer2
 .rdata$IID_IRpcChannelBuffer3
                0x0000000000410ddc       0x10 /usr/lib/gcc/i686-w64-mingw32/4.8/../../../../i686-w64-mingw32/lib/../lib/libuuid.a(lib32_libuuid_a-uuid.o)
                0x0000000000410ddc                IID_IRpcChannelBuffer3
 .rdata$IID_IRpcHelper
                0x0000000000410dec       0x10 /usr/lib/gcc/i686-w64-mingw32/4.8/../../../../i686-w64-mingw32/lib/../lib/libuuid.a(lib32_libuuid_a-uuid.o)
                0x0000000000410dec                IID_IRpcHelper
 .rdata$IID_IRpcOptions
                0x0000000000410dfc       0x10 /usr/lib/gcc/i686-w64-mingw32/4.8/../../../../i686-w64-mingw32/lib/../lib/libuuid.a(lib32_libuuid_a-uuid.o)
                0x0000000000410dfc                IID_IRpcOptions
 .rdata$IID_IRpcProxy
                0x0000000000410e0c       0x10 /usr/lib/gcc/i686-w64-mingw32/4.8/../../../../i686-w64-mingw32/lib/../lib/libuuid.a(lib32_libuuid_a-uuid.o)
                0x0000000000410e0c                IID_IRpcProxy
 .rdata$IID_IRpcProxyBuffer
                0x0000000000410e1c       0x10 /usr/lib/gcc/i686-w64-mingw32/4.8/../../../../i686-w64-mingw32/lib/../lib/libuuid.a(lib32_libuuid_a-uuid.o)
                0x0000000000410e1c                IID_IRpcProxyBuffer
 .rdata$IID_IRpcProxyBuffer34
                0x0000000000410e2c       0x10 /usr/lib/gcc/i686-w64-mingw32/4.8/../../../../i686-w64-mingw32/lib/../lib/libuuid.a(lib32_libuuid_a-uuid.o)
                0x0000000000410e2c                IID_IRpcProxyBuffer34
 .rdata$IID_IRpcStub
                0x0000000000410e3c       0x10 /usr/lib/gcc/i686-w64-mingw32/4.8/../../../../i686-w64-mingw32/lib/../lib/libuuid.a(lib32_libuuid_a-uuid.o)
                0x0000000000410e3c                IID_IRpcStub
 .rdata$IID_IRpcStubBuffer
                0x0000000000410e4c       0x10 /usr/lib/gcc/i686-w64-mingw32/4.8/../../../../i686-w64-mingw32/lib/../lib/libuuid.a(lib32_libuuid_a-uuid.o)
                0x0000000000410e4c                IID_IRpcStubBuffer
 .rdata$IID_IRpcSyntaxNegotiate
                0x0000000000410e5c       0x10 /usr/lib/gcc/i686-w64-mingw32/4.8/../../../../i686-w64-mingw32/lib/../lib/libuuid.a(lib32_libuuid_a-uuid.o)
                0x0000000000410e5c                IID_IRpcSyntaxNegotiate
 .rdata$IID_IRunnableObject
                0x0000000000410e6c       0x10 /usr/lib/gcc/i686-w64-mingw32/4.8/../../../../i686-w64-mingw32/lib/../lib/libuuid.a(lib32_libuuid_a-uuid.o)
                0x0000000000410e6c                IID_IRunnableObject
 .rdata$IID_IRunnableTask
                0x0000000000410e7c       0x10 /usr/lib/gcc/i686-w64-mingw32/4.8/../../../../i686-w64-mingw32/lib/../lib/libuuid.a(lib32_libuuid_a-uuid.o)
                0x0000000000410e7c                IID_IRunnableTask
 .rdata$IID_IRunningObjectTable
                0x0000000000410e8c       0x10 /usr/lib/gcc/i686-w64-mingw32/4.8/../../../../i686-w64-mingw32/lib/../lib/libuuid.a(lib32_libuuid_a-uuid.o)
                0x0000000000410e8c                IID_IRunningObjectTable
 .rdata$IID_ISHItemOC
                0x0000000000410e9c       0x10 /usr/lib/gcc/i686-w64-mingw32/4.8/../../../../i686-w64-mingw32/lib/../lib/libshell32.a(lib32_libshell32_a-shell32.o)
                0x0000000000410e9c                IID_ISHItemOC
 .rdata$IID_ISearchBoxInfo
                0x0000000000410eac       0x10 /usr/lib/gcc/i686-w64-mingw32/4.8/../../../../i686-w64-mingw32/lib/../lib/libuuid.a(lib32_libuuid_a-uuid.o)
                0x0000000000410eac                IID_ISearchBoxInfo
 .rdata$IID_ISearchContext
                0x0000000000410ebc       0x10 /usr/lib/gcc/i686-w64-mingw32/4.8/../../../../i686-w64-mingw32/lib/../lib/libuuid.a(lib32_libuuid_a-uuid.o)
                0x0000000000410ebc                IID_ISearchContext
 .rdata$IID_ISearchFolderItemFactory
                0x0000000000410ecc       0x10 /usr/lib/gcc/i686-w64-mingw32/4.8/../../../../i686-w64-mingw32/lib/../lib/libuuid.a(lib32_libuuid_a-uuid.o)
                0x0000000000410ecc                IID_ISearchFolderItemFactory
 .rdata$IID_ISearchableApplication
                0x0000000000410edc       0x10 /usr/lib/gcc/i686-w64-mingw32/4.8/../../../../i686-w64-mingw32/lib/../lib/libuuid.a(lib32_libuuid_a-uuid.o)
                0x0000000000410edc                IID_ISearchableApplication
 .rdata$IID_ISequentialStream
                0x0000000000410eec       0x10 /usr/lib/gcc/i686-w64-mingw32/4.8/../../../../i686-w64-mingw32/lib/../lib/libuuid.a(lib32_libuuid_a-uuid.o)
                0x0000000000410eec                IID_ISequentialStream
 .rdata$IID_IServerHandler
                0x0000000000410efc       0x10 /usr/lib/gcc/i686-w64-mingw32/4.8/../../../../i686-w64-mingw32/lib/../lib/libuuid.a(lib32_libuuid_a-uuid.o)
                0x0000000000410efc                IID_IServerHandler
 .rdata$IID_IServerSecurity
                0x0000000000410f0c       0x10 /usr/lib/gcc/i686-w64-mingw32/4.8/../../../../i686-w64-mingw32/lib/../lib/libuuid.a(lib32_libuuid_a-uuid.o)
                0x0000000000410f0c                IID_IServerSecurity
 .rdata$IID_IServiceProvider
                0x0000000000410f1c       0x10 /usr/lib/gcc/i686-w64-mingw32/4.8/../../../../i686-w64-mingw32/lib/../lib/libuuid.a(lib32_libuuid_a-uuid.o)
                0x0000000000410f1c                IID_IServiceProvider
 .rdata$IID_ISharingConfigurationManager
                0x0000000000410f2c       0x10 /usr/lib/gcc/i686-w64-mingw32/4.8/../../../../i686-w64-mingw32/lib/../lib/libuuid.a(lib32_libuuid_a-uuid.o)
                0x0000000000410f2c                IID_ISharingConfigurationManager
 .rdata$IID_IShellBrowser
                0x0000000000410f3c       0x10 /usr/lib/gcc/i686-w64-mingw32/4.8/../../../../i686-w64-mingw32/lib/../lib/libuuid.a(lib32_libuuid_a-uuid.o)
                0x0000000000410f3c                IID_IShellBrowser
 .rdata$IID_IShellChangeNotify
                0x0000000000410f4c       0x10 /usr/lib/gcc/i686-w64-mingw32/4.8/../../../../i686-w64-mingw32/lib/../lib/libuuid.a(lib32_libuuid_a-uuid.o)
                0x0000000000410f4c                IID_IShellChangeNotify
 .rdata$IID_IShellDetails
                0x0000000000410f5c       0x10 /usr/lib/gcc/i686-w64-mingw32/4.8/../../../../i686-w64-mingw32/lib/../lib/libuuid.a(lib32_libuuid_a-uuid.o)
                0x0000000000410f5c                IID_IShellDetails
 .rdata$IID_IShellExecuteHookA
                0x0000000000410f6c       0x10 /usr/lib/gcc/i686-w64-mingw32/4.8/../../../../i686-w64-mingw32/lib/../lib/libuuid.a(lib32_libuuid_a-uuid.o)
                0x0000000000410f6c                IID_IShellExecuteHookA
 .rdata$IID_IShellExecuteHookW
                0x0000000000410f7c       0x10 /usr/lib/gcc/i686-w64-mingw32/4.8/../../../../i686-w64-mingw32/lib/../lib/libuuid.a(lib32_libuuid_a-uuid.o)
                0x0000000000410f7c                IID_IShellExecuteHookW
 .rdata$IID_IShellExplorer
                0x0000000000410f8c       0x10 /usr/lib/gcc/i686-w64-mingw32/4.8/../../../../i686-w64-mingw32/lib/../lib/libshell32.a(lib32_libshell32_a-shell32.o)
                0x0000000000410f8c                IID_IShellExplorer
 .rdata$IID_IShellExtInit
                0x0000000000410f9c       0x10 /usr/lib/gcc/i686-w64-mingw32/4.8/../../../../i686-w64-mingw32/lib/../lib/libuuid.a(lib32_libuuid_a-uuid.o)
                0x0000000000410f9c                IID_IShellExtInit
 .rdata$IID_IShellFolder
                0x0000000000410fac       0x10 /usr/lib/gcc/i686-w64-mingw32/4.8/../../../../i686-w64-mingw32/lib/../lib/libuuid.a(lib32_libuuid_a-uuid.o)
                0x0000000000410fac                IID_IShellFolder
 .rdata$IID_IShellFolder2
                0x0000000000410fbc       0x10 /usr/lib/gcc/i686-w64-mingw32/4.8/../../../../i686-w64-mingw32/lib/../lib/libuuid.a(lib32_libuuid_a-uuid.o)
                0x0000000000410fbc                IID_IShellFolder2
 .rdata$IID_IShellFolderBand
                0x0000000000410fcc       0x10 /usr/lib/gcc/i686-w64-mingw32/4.8/../../../../i686-w64-mingw32/lib/../lib/libuuid.a(lib32_libuuid_a-uuid.o)
                0x0000000000410fcc                IID_IShellFolderBand
 .rdata$IID_IShellFolderViewCB
                0x0000000000410fdc       0x10 /usr/lib/gcc/i686-w64-mingw32/4.8/../../../../i686-w64-mingw32/lib/../lib/libuuid.a(lib32_libuuid_a-uuid.o)
                0x0000000000410fdc                IID_IShellFolderViewCB
 .rdata$IID_IShellIcon
                0x0000000000410fec       0x10 /usr/lib/gcc/i686-w64-mingw32/4.8/../../../../i686-w64-mingw32/lib/../lib/libuuid.a(lib32_libuuid_a-uuid.o)
                0x0000000000410fec                IID_IShellIcon
 .rdata$IID_IShellIconOverlay
                0x0000000000410ffc       0x10 /usr/lib/gcc/i686-w64-mingw32/4.8/../../../../i686-w64-mingw32/lib/../lib/libuuid.a(lib32_libuuid_a-uuid.o)
                0x0000000000410ffc                IID_IShellIconOverlay
 .rdata$IID_IShellIconOverlayIdentifier
                0x000000000041100c       0x10 /usr/lib/gcc/i686-w64-mingw32/4.8/../../../../i686-w64-mingw32/lib/../lib/libuuid.a(lib32_libuuid_a-uuid.o)
                0x000000000041100c                IID_IShellIconOverlayIdentifier
 .rdata$IID_IShellIconOverlayManager
                0x000000000041101c       0x10 /usr/lib/gcc/i686-w64-mingw32/4.8/../../../../i686-w64-mingw32/lib/../lib/libuuid.a(lib32_libuuid_a-uuid.o)
                0x000000000041101c                IID_IShellIconOverlayManager
 .rdata$IID_IShellImageStore
                0x000000000041102c       0x10 /usr/lib/gcc/i686-w64-mingw32/4.8/../../../../i686-w64-mingw32/lib/../lib/libuuid.a(lib32_libuuid_a-uuid.o)
                0x000000000041102c                IID_IShellImageStore
 .rdata$IID_IShellItem
                0x000000000041103c       0x10 /usr/lib/gcc/i686-w64-mingw32/4.8/../../../../i686-w64-mingw32/lib/../lib/libuuid.a(lib32_libuuid_a-uuid.o)
                0x000000000041103c                IID_IShellItem
 .rdata$IID_IShellItem2
                0x000000000041104c       0x10 /usr/lib/gcc/i686-w64-mingw32/4.8/../../../../i686-w64-mingw32/lib/../lib/libuuid.a(lib32_libuuid_a-uuid.o)
                0x000000000041104c                IID_IShellItem2
 .rdata$IID_IShellItemArray
                0x000000000041105c       0x10 /usr/lib/gcc/i686-w64-mingw32/4.8/../../../../i686-w64-mingw32/lib/../lib/libuuid.a(lib32_libuuid_a-uuid.o)
                0x000000000041105c                IID_IShellItemArray
 .rdata$IID_IShellItemFilter
                0x000000000041106c       0x10 /usr/lib/gcc/i686-w64-mingw32/4.8/../../../../i686-w64-mingw32/lib/../lib/libuuid.a(lib32_libuuid_a-uuid.o)
                0x000000000041106c                IID_IShellItemFilter
 .rdata$IID_IShellItemImageFactory
                0x000000000041107c       0x10 /usr/lib/gcc/i686-w64-mingw32/4.8/../../../../i686-w64-mingw32/lib/../lib/libuuid.a(lib32_libuuid_a-uuid.o)
                0x000000000041107c                IID_IShellItemImageFactory
 .rdata$IID_IShellItemResources
                0x000000000041108c       0x10 /usr/lib/gcc/i686-w64-mingw32/4.8/../../../../i686-w64-mingw32/lib/../lib/libuuid.a(lib32_libuuid_a-uuid.o)
                0x000000000041108c                IID_IShellItemResources
 .rdata$IID_IShellLibrary
                0x000000000041109c       0x10 /usr/lib/gcc/i686-w64-mingw32/4.8/../../../../i686-w64-mingw32/lib/../lib/libuuid.a(lib32_libuuid_a-uuid.o)
                0x000000000041109c                IID_IShellLibrary
 .rdata$IID_IShellLinkA
                0x00000000004110ac       0x10 /usr/lib/gcc/i686-w64-mingw32/4.8/../../../../i686-w64-mingw32/lib/../lib/libuuid.a(lib32_libuuid_a-uuid.o)
                0x00000000004110ac                IID_IShellLinkA
 .rdata$IID_IShellLinkDataList
                0x00000000004110bc       0x10 /usr/lib/gcc/i686-w64-mingw32/4.8/../../../../i686-w64-mingw32/lib/../lib/libuuid.a(lib32_libuuid_a-uuid.o)
                0x00000000004110bc                IID_IShellLinkDataList
 .rdata$IID_IShellLinkW
                0x00000000004110cc       0x10 /usr/lib/gcc/i686-w64-mingw32/4.8/../../../../i686-w64-mingw32/lib/../lib/libuuid.a(lib32_libuuid_a-uuid.o)
                0x00000000004110cc                IID_IShellLinkW
 .rdata$IID_IShellMenu
                0x00000000004110dc       0x10 /usr/lib/gcc/i686-w64-mingw32/4.8/../../../../i686-w64-mingw32/lib/../lib/libuuid.a(lib32_libuuid_a-uuid.o)
                0x00000000004110dc                IID_IShellMenu
 .rdata$IID_IShellMenuCallback
                0x00000000004110ec       0x10 /usr/lib/gcc/i686-w64-mingw32/4.8/../../../../i686-w64-mingw32/lib/../lib/libuuid.a(lib32_libuuid_a-uuid.o)
                0x00000000004110ec                IID_IShellMenuCallback
 .rdata$IID_IShellPropSheetExt
                0x00000000004110fc       0x10 /usr/lib/gcc/i686-w64-mingw32/4.8/../../../../i686-w64-mingw32/lib/../lib/libuuid.a(lib32_libuuid_a-uuid.o)
                0x00000000004110fc                IID_IShellPropSheetExt
 .rdata$IID_IShellRunDll
                0x000000000041110c       0x10 /usr/lib/gcc/i686-w64-mingw32/4.8/../../../../i686-w64-mingw32/lib/../lib/libuuid.a(lib32_libuuid_a-uuid.o)
                0x000000000041110c                IID_IShellRunDll
 .rdata$IID_IShellTaskScheduler
                0x000000000041111c       0x10 /usr/lib/gcc/i686-w64-mingw32/4.8/../../../../i686-w64-mingw32/lib/../lib/libuuid.a(lib32_libuuid_a-uuid.o)
                0x000000000041111c                IID_IShellTaskScheduler
 .rdata$IID_IShellView
                0x000000000041112c       0x10 /usr/lib/gcc/i686-w64-mingw32/4.8/../../../../i686-w64-mingw32/lib/../lib/libuuid.a(lib32_libuuid_a-uuid.o)
                0x000000000041112c                IID_IShellView
 .rdata$IID_IShellView2
                0x000000000041113c       0x10 /usr/lib/gcc/i686-w64-mingw32/4.8/../../../../i686-w64-mingw32/lib/../lib/libuuid.a(lib32_libuuid_a-uuid.o)
                0x000000000041113c                IID_IShellView2
 .rdata$IID_IShellView3
                0x000000000041114c       0x10 /usr/lib/gcc/i686-w64-mingw32/4.8/../../../../i686-w64-mingw32/lib/../lib/libuuid.a(lib32_libuuid_a-uuid.o)
                0x000000000041114c                IID_IShellView3
 .rdata$IID_ISimpleFrameSite
                0x000000000041115c       0x10 /usr/lib/gcc/i686-w64-mingw32/4.8/../../../../i686-w64-mingw32/lib/../lib/libuuid.a(lib32_libuuid_a-uuid.o)
                0x000000000041115c                IID_ISimpleFrameSite
 .rdata$IID_ISoftDistExt
                0x000000000041116c       0x10 /usr/lib/gcc/i686-w64-mingw32/4.8/../../../../i686-w64-mingw32/lib/../lib/libuuid.a(lib32_libuuid_a-uuid.o)
                0x000000000041116c                IID_ISoftDistExt
 .rdata$IID_ISpecifyPropertyPages
                0x000000000041117c       0x10 /usr/lib/gcc/i686-w64-mingw32/4.8/../../../../i686-w64-mingw32/lib/../lib/libuuid.a(lib32_libuuid_a-uuid.o)
                0x000000000041117c                IID_ISpecifyPropertyPages
 .rdata$IID_IStartMenuPinnedList
                0x000000000041118c       0x10 /usr/lib/gcc/i686-w64-mingw32/4.8/../../../../i686-w64-mingw32/lib/../lib/libuuid.a(lib32_libuuid_a-uuid.o)
                0x000000000041118c                IID_IStartMenuPinnedList
 .rdata$IID_IStdMarshalInfo
                0x000000000041119c       0x10 /usr/lib/gcc/i686-w64-mingw32/4.8/../../../../i686-w64-mingw32/lib/../lib/libuuid.a(lib32_libuuid_a-uuid.o)
                0x000000000041119c                IID_IStdMarshalInfo
 .rdata$IID_IStorage
                0x00000000004111ac       0x10 /usr/lib/gcc/i686-w64-mingw32/4.8/../../../../i686-w64-mingw32/lib/../lib/libuuid.a(lib32_libuuid_a-uuid.o)
                0x00000000004111ac                IID_IStorage
 .rdata$IID_IStream
                0x00000000004111bc       0x10 /usr/lib/gcc/i686-w64-mingw32/4.8/../../../../i686-w64-mingw32/lib/../lib/libuuid.a(lib32_libuuid_a-uuid.o)
                0x00000000004111bc                IID_IStream
 .rdata$IID_IStreamAsync
                0x00000000004111cc       0x10 /usr/lib/gcc/i686-w64-mingw32/4.8/../../../../i686-w64-mingw32/lib/../lib/libuuid.a(lib32_libuuid_a-uuid.o)
                0x00000000004111cc                IID_IStreamAsync
 .rdata$IID_IStreamUnbufferedInfo
                0x00000000004111dc       0x10 /usr/lib/gcc/i686-w64-mingw32/4.8/../../../../i686-w64-mingw32/lib/../lib/libuuid.a(lib32_libuuid_a-uuid.o)
                0x00000000004111dc                IID_IStreamUnbufferedInfo
 .rdata$IID_IStub
                0x00000000004111ec       0x10 /usr/lib/gcc/i686-w64-mingw32/4.8/../../../../i686-w64-mingw32/lib/../lib/libuuid.a(lib32_libuuid_a-uuid.o)
                0x00000000004111ec                IID_IStub
 .rdata$IID_IStubManager
                0x00000000004111fc       0x10 /usr/lib/gcc/i686-w64-mingw32/4.8/../../../../i686-w64-mingw32/lib/../lib/libuuid.a(lib32_libuuid_a-uuid.o)
                0x00000000004111fc                IID_IStubManager
 .rdata$IID_ISupportErrorInfo
                0x000000000041120c       0x10 /usr/lib/gcc/i686-w64-mingw32/4.8/../../../../i686-w64-mingw32/lib/../lib/libuuid.a(lib32_libuuid_a-uuid.o)
                0x000000000041120c                IID_ISupportErrorInfo
 .rdata$IID_ISurrogate
                0x000000000041121c       0x10 /usr/lib/gcc/i686-w64-mingw32/4.8/../../../../i686-w64-mingw32/lib/../lib/libuuid.a(lib32_libuuid_a-uuid.o)
                0x000000000041121c                IID_ISurrogate
 .rdata$IID_ISurrogateService
                0x000000000041122c       0x10 /usr/lib/gcc/i686-w64-mingw32/4.8/../../../../i686-w64-mingw32/lib/../lib/libuuid.a(lib32_libuuid_a-uuid.o)
                0x000000000041122c                IID_ISurrogateService
 .rdata$IID_ISynchronize
                0x000000000041123c       0x10 /usr/lib/gcc/i686-w64-mingw32/4.8/../../../../i686-w64-mingw32/lib/../lib/libuuid.a(lib32_libuuid_a-uuid.o)
                0x000000000041123c                IID_ISynchronize
 .rdata$IID_ISynchronizeContainer
                0x000000000041124c       0x10 /usr/lib/gcc/i686-w64-mingw32/4.8/../../../../i686-w64-mingw32/lib/../lib/libuuid.a(lib32_libuuid_a-uuid.o)
                0x000000000041124c                IID_ISynchronizeContainer
 .rdata$IID_ISynchronizeEvent
                0x000000000041125c       0x10 /usr/lib/gcc/i686-w64-mingw32/4.8/../../../../i686-w64-mingw32/lib/../lib/libuuid.a(lib32_libuuid_a-uuid.o)
                0x000000000041125c                IID_ISynchronizeEvent
 .rdata$IID_ISynchronizeHandle
                0x000000000041126c       0x10 /usr/lib/gcc/i686-w64-mingw32/4.8/../../../../i686-w64-mingw32/lib/../lib/libuuid.a(lib32_libuuid_a-uuid.o)
                0x000000000041126c                IID_ISynchronizeHandle
 .rdata$IID_ISynchronizeMutex
                0x000000000041127c       0x10 /usr/lib/gcc/i686-w64-mingw32/4.8/../../../../i686-w64-mingw32/lib/../lib/libuuid.a(lib32_libuuid_a-uuid.o)
                0x000000000041127c                IID_ISynchronizeMutex
 .rdata$IID_ISynchronizedCallBack
                0x000000000041128c       0x10 /usr/lib/gcc/i686-w64-mingw32/4.8/../../../../i686-w64-mingw32/lib/../lib/libuuid.a(lib32_libuuid_a-uuid.o)
                0x000000000041128c                IID_ISynchronizedCallBack
 .rdata$IID_ITargetEmbedding
                0x000000000041129c       0x10 /usr/lib/gcc/i686-w64-mingw32/4.8/../../../../i686-w64-mingw32/lib/../lib/libuuid.a(lib32_libuuid_a-uuid.o)
                0x000000000041129c                IID_ITargetEmbedding
 .rdata$IID_ITargetFrame
                0x00000000004112ac       0x10 /usr/lib/gcc/i686-w64-mingw32/4.8/../../../../i686-w64-mingw32/lib/../lib/libuuid.a(lib32_libuuid_a-uuid.o)
                0x00000000004112ac                IID_ITargetFrame
 .rdata$IID_ITaskList3
                0x00000000004112bc       0x10 /usr/lib/gcc/i686-w64-mingw32/4.8/../../../../i686-w64-mingw32/lib/../lib/libshell32.a(lib32_libshell32_a-shell32.o)
                0x00000000004112bc                IID_ITaskList3
 .rdata$IID_ITaskbarList
                0x00000000004112cc       0x10 /usr/lib/gcc/i686-w64-mingw32/4.8/../../../../i686-w64-mingw32/lib/../lib/libuuid.a(lib32_libuuid_a-uuid.o)
                0x00000000004112cc                IID_ITaskbarList
 .rdata$IID_ITaskbarList2
                0x00000000004112dc       0x10 /usr/lib/gcc/i686-w64-mingw32/4.8/../../../../i686-w64-mingw32/lib/../lib/libuuid.a(lib32_libuuid_a-uuid.o)
                0x00000000004112dc                IID_ITaskbarList2
 .rdata$IID_ITaskbarList3
                0x00000000004112ec       0x10 /usr/lib/gcc/i686-w64-mingw32/4.8/../../../../i686-w64-mingw32/lib/../lib/libuuid.a(lib32_libuuid_a-uuid.o)
                0x00000000004112ec                IID_ITaskbarList3
 .rdata$IID_ITaskbarList4
                0x00000000004112fc       0x10 /usr/lib/gcc/i686-w64-mingw32/4.8/../../../../i686-w64-mingw32/lib/../lib/libuuid.a(lib32_libuuid_a-uuid.o)
                0x00000000004112fc                IID_ITaskbarList4
 .rdata$IID_ITextStoreACP
                0x000000000041130c       0x10 /usr/lib/gcc/i686-w64-mingw32/4.8/../../../../i686-w64-mingw32/lib/../lib/libuuid.a(lib32_libuuid_a-uuid.o)
                0x000000000041130c                IID_ITextStoreACP
 .rdata$IID_ITextStoreACPSink
                0x000000000041131c       0x10 /usr/lib/gcc/i686-w64-mingw32/4.8/../../../../i686-w64-mingw32/lib/../lib/libuuid.a(lib32_libuuid_a-uuid.o)
                0x000000000041131c                IID_ITextStoreACPSink
 .rdata$IID_IThumbnailCapture
                0x000000000041132c       0x10 /usr/lib/gcc/i686-w64-mingw32/4.8/../../../../i686-w64-mingw32/lib/../lib/libuuid.a(lib32_libuuid_a-uuid.o)
                0x000000000041132c                IID_IThumbnailCapture
 .rdata$IID_IThumbnailExtractor
                0x000000000041133c       0x10 /usr/lib/gcc/i686-w64-mingw32/4.8/../../../../i686-w64-mingw32/lib/../lib/libuuid.a(lib32_libuuid_a-uuid.o)
                0x000000000041133c                IID_IThumbnailExtractor
 .rdata$IID_IThumbnailHandlerFactory
                0x000000000041134c       0x10 /usr/lib/gcc/i686-w64-mingw32/4.8/../../../../i686-w64-mingw32/lib/../lib/libuuid.a(lib32_libuuid_a-uuid.o)
                0x000000000041134c                IID_IThumbnailHandlerFactory
 .rdata$IID_ITimeAndNoticeControl
                0x000000000041135c       0x10 /usr/lib/gcc/i686-w64-mingw32/4.8/../../../../i686-w64-mingw32/lib/../lib/libuuid.a(lib32_libuuid_a-uuid.o)
                0x000000000041135c                IID_ITimeAndNoticeControl
 .rdata$IID_ITransferAdviseSink
                0x000000000041136c       0x10 /usr/lib/gcc/i686-w64-mingw32/4.8/../../../../i686-w64-mingw32/lib/../lib/libuuid.a(lib32_libuuid_a-uuid.o)
                0x000000000041136c                IID_ITransferAdviseSink
 .rdata$IID_ITransferDestination
                0x000000000041137c       0x10 /usr/lib/gcc/i686-w64-mingw32/4.8/../../../../i686-w64-mingw32/lib/../lib/libuuid.a(lib32_libuuid_a-uuid.o)
                0x000000000041137c                IID_ITransferDestination
 .rdata$IID_ITransferMediumItem
                0x000000000041138c       0x10 /usr/lib/gcc/i686-w64-mingw32/4.8/../../../../i686-w64-mingw32/lib/../lib/libuuid.a(lib32_libuuid_a-uuid.o)
                0x000000000041138c                IID_ITransferMediumItem
 .rdata$IID_ITransferSource
                0x000000000041139c       0x10 /usr/lib/gcc/i686-w64-mingw32/4.8/../../../../i686-w64-mingw32/lib/../lib/libuuid.a(lib32_libuuid_a-uuid.o)
                0x000000000041139c                IID_ITransferSource
 .rdata$IID_ITrayDeskBand
                0x00000000004113ac       0x10 /usr/lib/gcc/i686-w64-mingw32/4.8/../../../../i686-w64-mingw32/lib/../lib/libuuid.a(lib32_libuuid_a-uuid.o)
                0x00000000004113ac                IID_ITrayDeskBand
 .rdata$IID_ITypeChangeEvents
                0x00000000004113bc       0x10 /usr/lib/gcc/i686-w64-mingw32/4.8/../../../../i686-w64-mingw32/lib/../lib/libuuid.a(lib32_libuuid_a-uuid.o)
                0x00000000004113bc                IID_ITypeChangeEvents
 .rdata$IID_ITypeComp
                0x00000000004113cc       0x10 /usr/lib/gcc/i686-w64-mingw32/4.8/../../../../i686-w64-mingw32/lib/../lib/libuuid.a(lib32_libuuid_a-uuid.o)
                0x00000000004113cc                IID_ITypeComp
 .rdata$IID_ITypeFactory
                0x00000000004113dc       0x10 /usr/lib/gcc/i686-w64-mingw32/4.8/../../../../i686-w64-mingw32/lib/../lib/libuuid.a(lib32_libuuid_a-uuid.o)
                0x00000000004113dc                IID_ITypeFactory
 .rdata$IID_ITypeInfo
                0x00000000004113ec       0x10 /usr/lib/gcc/i686-w64-mingw32/4.8/../../../../i686-w64-mingw32/lib/../lib/libuuid.a(lib32_libuuid_a-uuid.o)
                0x00000000004113ec                IID_ITypeInfo
 .rdata$IID_ITypeInfo2
                0x00000000004113fc       0x10 /usr/lib/gcc/i686-w64-mingw32/4.8/../../../../i686-w64-mingw32/lib/../lib/libuuid.a(lib32_libuuid_a-uuid.o)
                0x00000000004113fc                IID_ITypeInfo2
 .rdata$IID_ITypeLib
                0x000000000041140c       0x10 /usr/lib/gcc/i686-w64-mingw32/4.8/../../../../i686-w64-mingw32/lib/../lib/libuuid.a(lib32_libuuid_a-uuid.o)
                0x000000000041140c                IID_ITypeLib
 .rdata$IID_ITypeLib2
                0x000000000041141c       0x10 /usr/lib/gcc/i686-w64-mingw32/4.8/../../../../i686-w64-mingw32/lib/../lib/libuuid.a(lib32_libuuid_a-uuid.o)
                0x000000000041141c                IID_ITypeLib2
 .rdata$IID_ITypeMarshal
                0x000000000041142c       0x10 /usr/lib/gcc/i686-w64-mingw32/4.8/../../../../i686-w64-mingw32/lib/../lib/libuuid.a(lib32_libuuid_a-uuid.o)
                0x000000000041142c                IID_ITypeMarshal
 .rdata$IID_IURLSearchHook
                0x000000000041143c       0x10 /usr/lib/gcc/i686-w64-mingw32/4.8/../../../../i686-w64-mingw32/lib/../lib/libuuid.a(lib32_libuuid_a-uuid.o)
                0x000000000041143c                IID_IURLSearchHook
 .rdata$IID_IURLSearchHook2
                0x000000000041144c       0x10 /usr/lib/gcc/i686-w64-mingw32/4.8/../../../../i686-w64-mingw32/lib/../lib/libuuid.a(lib32_libuuid_a-uuid.o)
                0x000000000041144c                IID_IURLSearchHook2
 .rdata$IID_IUniformResourceLocatorA
                0x000000000041145c       0x10 /usr/lib/gcc/i686-w64-mingw32/4.8/../../../../i686-w64-mingw32/lib/../lib/libuuid.a(lib32_libuuid_a-uuid.o)
                0x000000000041145c                IID_IUniformResourceLocatorA
 .rdata$IID_IUniformResourceLocatorW
                0x000000000041146c       0x10 /usr/lib/gcc/i686-w64-mingw32/4.8/../../../../i686-w64-mingw32/lib/../lib/libuuid.a(lib32_libuuid_a-uuid.o)
                0x000000000041146c                IID_IUniformResourceLocatorW
 .rdata$IID_IUnknown
                0x000000000041147c       0x10 /usr/lib/gcc/i686-w64-mingw32/4.8/../../../../i686-w64-mingw32/lib/../lib/libuuid.a(lib32_libuuid_a-uuid.o)
                0x000000000041147c                IID_IUnknown
 .rdata$IID_IUpdateIDList
                0x000000000041148c       0x10 /usr/lib/gcc/i686-w64-mingw32/4.8/../../../../i686-w64-mingw32/lib/../lib/libuuid.a(lib32_libuuid_a-uuid.o)
                0x000000000041148c                IID_IUpdateIDList
 .rdata$IID_IUri
                0x000000000041149c       0x10 /usr/lib/gcc/i686-w64-mingw32/4.8/../../../../i686-w64-mingw32/lib/../lib/libuuid.a(lib32_libuuid_a-uuid.o)
                0x000000000041149c                IID_IUri
 .rdata$IID_IUriBuilder
                0x00000000004114ac       0x10 /usr/lib/gcc/i686-w64-mingw32/4.8/../../../../i686-w64-mingw32/lib/../lib/libuuid.a(lib32_libuuid_a-uuid.o)
                0x00000000004114ac                IID_IUriBuilder
 .rdata$IID_IUriBuilderFactory
                0x00000000004114bc       0x10 /usr/lib/gcc/i686-w64-mingw32/4.8/../../../../i686-w64-mingw32/lib/../lib/libuuid.a(lib32_libuuid_a-uuid.o)
                0x00000000004114bc                IID_IUriBuilderFactory
 .rdata$IID_IUriContainer
                0x00000000004114cc       0x10 /usr/lib/gcc/i686-w64-mingw32/4.8/../../../../i686-w64-mingw32/lib/../lib/libuuid.a(lib32_libuuid_a-uuid.o)
                0x00000000004114cc                IID_IUriContainer
 .rdata$IID_IUrlHistoryNotify
                0x00000000004114dc       0x10 /usr/lib/gcc/i686-w64-mingw32/4.8/../../../../i686-w64-mingw32/lib/../lib/libuuid.a(lib32_libuuid_a-uuid.o)
                0x00000000004114dc                IID_IUrlHistoryNotify
 .rdata$IID_IUrlHistoryStg
                0x00000000004114ec       0x10 /usr/lib/gcc/i686-w64-mingw32/4.8/../../../../i686-w64-mingw32/lib/../lib/libuuid.a(lib32_libuuid_a-uuid.o)
                0x00000000004114ec                IID_IUrlHistoryStg
 .rdata$IID_IUrlHistoryStg2
                0x00000000004114fc       0x10 /usr/lib/gcc/i686-w64-mingw32/4.8/../../../../i686-w64-mingw32/lib/../lib/libuuid.a(lib32_libuuid_a-uuid.o)
                0x00000000004114fc                IID_IUrlHistoryStg2
 .rdata$IID_IUrlMon
                0x000000000041150c       0x10 /usr/lib/gcc/i686-w64-mingw32/4.8/../../../../i686-w64-mingw32/lib/../lib/libuuid.a(lib32_libuuid_a-uuid.o)
                0x000000000041150c                IID_IUrlMon
 .rdata$IID_IUseToBrowseItem
                0x000000000041151c       0x10 /usr/lib/gcc/i686-w64-mingw32/4.8/../../../../i686-w64-mingw32/lib/../lib/libuuid.a(lib32_libuuid_a-uuid.o)
                0x000000000041151c                IID_IUseToBrowseItem
 .rdata$IID_IUserAccountChangeCallback
                0x000000000041152c       0x10 /usr/lib/gcc/i686-w64-mingw32/4.8/../../../../i686-w64-mingw32/lib/../lib/libuuid.a(lib32_libuuid_a-uuid.o)
                0x000000000041152c                IID_IUserAccountChangeCallback
 .rdata$IID_IUserNotification
                0x000000000041153c       0x10 /usr/lib/gcc/i686-w64-mingw32/4.8/../../../../i686-w64-mingw32/lib/../lib/libuuid.a(lib32_libuuid_a-uuid.o)
                0x000000000041153c                IID_IUserNotification
 .rdata$IID_IUserNotification2
                0x000000000041154c       0x10 /usr/lib/gcc/i686-w64-mingw32/4.8/../../../../i686-w64-mingw32/lib/../lib/libuuid.a(lib32_libuuid_a-uuid.o)
                0x000000000041154c                IID_IUserNotification2
 .rdata$IID_IUserNotificationCallback
                0x000000000041155c       0x10 /usr/lib/gcc/i686-w64-mingw32/4.8/../../../../i686-w64-mingw32/lib/../lib/libuuid.a(lib32_libuuid_a-uuid.o)
                0x000000000041155c                IID_IUserNotificationCallback
 .rdata$IID_IViewObject
                0x000000000041156c       0x10 /usr/lib/gcc/i686-w64-mingw32/4.8/../../../../i686-w64-mingw32/lib/../lib/libuuid.a(lib32_libuuid_a-uuid.o)
                0x000000000041156c                IID_IViewObject
 .rdata$IID_IViewObject2
                0x000000000041157c       0x10 /usr/lib/gcc/i686-w64-mingw32/4.8/../../../../i686-w64-mingw32/lib/../lib/libuuid.a(lib32_libuuid_a-uuid.o)
                0x000000000041157c                IID_IViewObject2
 .rdata$IID_IViewObjectEx
                0x000000000041158c       0x10 /usr/lib/gcc/i686-w64-mingw32/4.8/../../../../i686-w64-mingw32/lib/../lib/libuuid.a(lib32_libuuid_a-uuid.o)
                0x000000000041158c                IID_IViewObjectEx
 .rdata$IID_IViewStateIdentityItem
                0x000000000041159c       0x10 /usr/lib/gcc/i686-w64-mingw32/4.8/../../../../i686-w64-mingw32/lib/../lib/libuuid.a(lib32_libuuid_a-uuid.o)
                0x000000000041159c                IID_IViewStateIdentityItem
 .rdata$IID_IVisualProperties
                0x00000000004115ac       0x10 /usr/lib/gcc/i686-w64-mingw32/4.8/../../../../i686-w64-mingw32/lib/../lib/libuuid.a(lib32_libuuid_a-uuid.o)
                0x00000000004115ac                IID_IVisualProperties
 .rdata$IID_IWaitMultiple
                0x00000000004115bc       0x10 /usr/lib/gcc/i686-w64-mingw32/4.8/../../../../i686-w64-mingw32/lib/../lib/libuuid.a(lib32_libuuid_a-uuid.o)
                0x00000000004115bc                IID_IWaitMultiple
 .rdata$IID_IWebBrowser
                0x00000000004115cc       0x10 /usr/lib/gcc/i686-w64-mingw32/4.8/../../../../i686-w64-mingw32/lib/../lib/libuuid.a(lib32_libuuid_a-uuid.o)
                0x00000000004115cc                IID_IWebBrowser
 .rdata$IID_IWebBrowser2
                0x00000000004115dc       0x10 /usr/lib/gcc/i686-w64-mingw32/4.8/../../../../i686-w64-mingw32/lib/../lib/libuuid.a(lib32_libuuid_a-uuid.o)
                0x00000000004115dc                IID_IWebBrowser2
 .rdata$IID_IWebBrowserApp
                0x00000000004115ec       0x10 /usr/lib/gcc/i686-w64-mingw32/4.8/../../../../i686-w64-mingw32/lib/../lib/libuuid.a(lib32_libuuid_a-uuid.o)
                0x00000000004115ec                IID_IWebBrowserApp
 .rdata$IID_IWebWizardExtension
                0x00000000004115fc       0x10 /usr/lib/gcc/i686-w64-mingw32/4.8/../../../../i686-w64-mingw32/lib/../lib/libuuid.a(lib32_libuuid_a-uuid.o)
                0x00000000004115fc                IID_IWebWizardExtension
 .rdata$IID_IWinInetCacheHints
                0x000000000041160c       0x10 /usr/lib/gcc/i686-w64-mingw32/4.8/../../../../i686-w64-mingw32/lib/../lib/libuuid.a(lib32_libuuid_a-uuid.o)
                0x000000000041160c                IID_IWinInetCacheHints
 .rdata$IID_IWinInetCacheHints2
                0x000000000041161c       0x10 /usr/lib/gcc/i686-w64-mingw32/4.8/../../../../i686-w64-mingw32/lib/../lib/libuuid.a(lib32_libuuid_a-uuid.o)
                0x000000000041161c                IID_IWinInetCacheHints2
 .rdata$IID_IWinInetFileStream
                0x000000000041162c       0x10 /usr/lib/gcc/i686-w64-mingw32/4.8/../../../../i686-w64-mingw32/lib/../lib/libuuid.a(lib32_libuuid_a-uuid.o)
                0x000000000041162c                IID_IWinInetFileStream
 .rdata$IID_IWinInetHttpInfo
                0x000000000041163c       0x10 /usr/lib/gcc/i686-w64-mingw32/4.8/../../../../i686-w64-mingw32/lib/../lib/libuuid.a(lib32_libuuid_a-uuid.o)
                0x000000000041163c                IID_IWinInetHttpInfo
 .rdata$IID_IWinInetHttpTimeouts
                0x000000000041164c       0x10 /usr/lib/gcc/i686-w64-mingw32/4.8/../../../../i686-w64-mingw32/lib/../lib/libuuid.a(lib32_libuuid_a-uuid.o)
                0x000000000041164c                IID_IWinInetHttpTimeouts
 .rdata$IID_IWinInetInfo
                0x000000000041165c       0x10 /usr/lib/gcc/i686-w64-mingw32/4.8/../../../../i686-w64-mingw32/lib/../lib/libuuid.a(lib32_libuuid_a-uuid.o)
                0x000000000041165c                IID_IWinInetInfo
 .rdata$IID_IWindowForBindingUI
                0x000000000041166c       0x10 /usr/lib/gcc/i686-w64-mingw32/4.8/../../../../i686-w64-mingw32/lib/../lib/libuuid.a(lib32_libuuid_a-uuid.o)
                0x000000000041166c                IID_IWindowForBindingUI
 .rdata$IID_IWizardExtension
                0x000000000041167c       0x10 /usr/lib/gcc/i686-w64-mingw32/4.8/../../../../i686-w64-mingw32/lib/../lib/libuuid.a(lib32_libuuid_a-uuid.o)
                0x000000000041167c                IID_IWizardExtension
 .rdata$IID_IWizardSite
                0x000000000041168c       0x10 /usr/lib/gcc/i686-w64-mingw32/4.8/../../../../i686-w64-mingw32/lib/../lib/libuuid.a(lib32_libuuid_a-uuid.o)
                0x000000000041168c                IID_IWizardSite
 .rdata$IID_IWrappedProtocol
                0x000000000041169c       0x10 /usr/lib/gcc/i686-w64-mingw32/4.8/../../../../i686-w64-mingw32/lib/../lib/libuuid.a(lib32_libuuid_a-uuid.o)
                0x000000000041169c                IID_IWrappedProtocol
 .rdata$IID_IZoneIdentifier
                0x00000000004116ac       0x10 /usr/lib/gcc/i686-w64-mingw32/4.8/../../../../i686-w64-mingw32/lib/../lib/libuuid.a(lib32_libuuid_a-uuid.o)
                0x00000000004116ac                IID_IZoneIdentifier
 .rdata$IID_IZoomEvents
                0x00000000004116bc       0x10 /usr/lib/gcc/i686-w64-mingw32/4.8/../../../../i686-w64-mingw32/lib/../lib/libuuid.a(lib32_libuuid_a-uuid.o)
                0x00000000004116bc                IID_IZoomEvents
 .rdata$IID_StdOle
                0x00000000004116cc       0x10 /usr/lib/gcc/i686-w64-mingw32/4.8/../../../../i686-w64-mingw32/lib/../lib/libuuid.a(lib32_libuuid_a-uuid.o)
                0x00000000004116cc                IID_StdOle
 .rdata$IIS_IsOleaccProxy
                0x00000000004116dc       0x10 /usr/lib/gcc/i686-w64-mingw32/4.8/../../../../i686-w64-mingw32/lib/../lib/libuuid.a(lib32_libuuid_a-uuid.o)
                0x00000000004116dc                IIS_IsOleaccProxy
 .rdata$ItemCount_Property_GUID
                0x00000000004116ec       0x10 /usr/lib/gcc/i686-w64-mingw32/4.8/../../../../i686-w64-mingw32/lib/../lib/libuuid.a(lib32_libuuid_a-uuid.o)
                0x00000000004116ec                ItemCount_Property_GUID
 .rdata$ItemIndex_Property_GUID
                0x00000000004116fc       0x10 /usr/lib/gcc/i686-w64-mingw32/4.8/../../../../i686-w64-mingw32/lib/../lib/libuuid.a(lib32_libuuid_a-uuid.o)
                0x00000000004116fc                ItemIndex_Property_GUID
 .rdata$LIBID_Accessibility
                0x000000000041170c       0x10 /usr/lib/gcc/i686-w64-mingw32/4.8/../../../../i686-w64-mingw32/lib/../lib/libuuid.a(lib32_libuuid_a-uuid.o)
                0x000000000041170c                LIBID_Accessibility
 .rdata$LIBID_PropSysObjects
                0x000000000041171c       0x10 /usr/lib/gcc/i686-w64-mingw32/4.8/../../../../i686-w64-mingw32/lib/../lib/libuuid.a(lib32_libuuid_a-uuid.o)
                0x000000000041171c                LIBID_PropSysObjects
 .rdata$LIBID_SHDocVw
                0x000000000041172c       0x10 /usr/lib/gcc/i686-w64-mingw32/4.8/../../../../i686-w64-mingw32/lib/../lib/libshell32.a(lib32_libshell32_a-shell32.o)
                0x000000000041172c                LIBID_SHDocVw
 .rdata$LIBID_ShellObjects
                0x000000000041173c       0x10 /usr/lib/gcc/i686-w64-mingw32/4.8/../../../../i686-w64-mingw32/lib/../lib/libuuid.a(lib32_libuuid_a-uuid.o)
                0x000000000041173c                LIBID_ShellObjects
 .rdata$LIBID_UIA
                0x000000000041174c       0x10 /usr/lib/gcc/i686-w64-mingw32/4.8/../../../../i686-w64-mingw32/lib/../lib/libuuid.a(lib32_libuuid_a-uuid.o)
                0x000000000041174c                LIBID_UIA
 .rdata$LIBID_UIAutomationClient
                0x000000000041175c       0x10 /usr/lib/gcc/i686-w64-mingw32/4.8/../../../../i686-w64-mingw32/lib/../lib/libuuid.a(lib32_libuuid_a-uuid.o)
                0x000000000041175c                LIBID_UIAutomationClient
 .rdata$NO_SUBGROUP_GUID
                0x000000000041176c       0x10 /usr/lib/gcc/i686-w64-mingw32/4.8/../../../../i686-w64-mingw32/lib/../lib/libuuid.a(lib32_libuuid_a-uuid.o)
                0x000000000041176c                NO_SUBGROUP_GUID
 .rdata$OLE_DATAPATH_ALLIMAGE
                0x000000000041177c       0x10 /usr/lib/gcc/i686-w64-mingw32/4.8/../../../../i686-w64-mingw32/lib/../lib/libuuid.a(lib32_libuuid_a-uuid.o)
                0x000000000041177c                OLE_DATAPATH_ALLIMAGE
 .rdata$OLE_DATAPATH_ALLMM
                0x000000000041178c       0x10 /usr/lib/gcc/i686-w64-mingw32/4.8/../../../../i686-w64-mingw32/lib/../lib/libuuid.a(lib32_libuuid_a-uuid.o)
                0x000000000041178c                OLE_DATAPATH_ALLMM
 .rdata$OLE_DATAPATH_ALLTEXT
                0x000000000041179c       0x10 /usr/lib/gcc/i686-w64-mingw32/4.8/../../../../i686-w64-mingw32/lib/../lib/libuuid.a(lib32_libuuid_a-uuid.o)
                0x000000000041179c                OLE_DATAPATH_ALLTEXT
 .rdata$OLE_DATAPATH_ANSITEXT
                0x00000000004117ac       0x10 /usr/lib/gcc/i686-w64-mingw32/4.8/../../../../i686-w64-mingw32/lib/../lib/libuuid.a(lib32_libuuid_a-uuid.o)
                0x00000000004117ac                OLE_DATAPATH_ANSITEXT
 .rdata$OLE_DATAPATH_AVI
                0x00000000004117bc       0x10 /usr/lib/gcc/i686-w64-mingw32/4.8/../../../../i686-w64-mingw32/lib/../lib/libuuid.a(lib32_libuuid_a-uuid.o)
                0x00000000004117bc                OLE_DATAPATH_AVI
 .rdata$OLE_DATAPATH_BASICAUDIO
                0x00000000004117cc       0x10 /usr/lib/gcc/i686-w64-mingw32/4.8/../../../../i686-w64-mingw32/lib/../lib/libuuid.a(lib32_libuuid_a-uuid.o)
                0x00000000004117cc                OLE_DATAPATH_BASICAUDIO
 .rdata$OLE_DATAPATH_BIFF
                0x00000000004117dc       0x10 /usr/lib/gcc/i686-w64-mingw32/4.8/../../../../i686-w64-mingw32/lib/../lib/libuuid.a(lib32_libuuid_a-uuid.o)
                0x00000000004117dc                OLE_DATAPATH_BIFF
 .rdata$OLE_DATAPATH_BMP
                0x00000000004117ec       0x10 /usr/lib/gcc/i686-w64-mingw32/4.8/../../../../i686-w64-mingw32/lib/../lib/libuuid.a(lib32_libuuid_a-uuid.o)
                0x00000000004117ec                OLE_DATAPATH_BMP
 .rdata$OLE_DATAPATH_CGM
                0x00000000004117fc       0x10 /usr/lib/gcc/i686-w64-mingw32/4.8/../../../../i686-w64-mingw32/lib/../lib/libuuid.a(lib32_libuuid_a-uuid.o)
                0x00000000004117fc                OLE_DATAPATH_CGM
 .rdata$OLE_DATAPATH_COMMONIMAGE
                0x000000000041180c       0x10 /usr/lib/gcc/i686-w64-mingw32/4.8/../../../../i686-w64-mingw32/lib/../lib/libuuid.a(lib32_libuuid_a-uuid.o)
                0x000000000041180c                OLE_DATAPATH_COMMONIMAGE
 .rdata$OLE_DATAPATH_DIB
                0x000000000041181c       0x10 /usr/lib/gcc/i686-w64-mingw32/4.8/../../../../i686-w64-mingw32/lib/../lib/libuuid.a(lib32_libuuid_a-uuid.o)
                0x000000000041181c                OLE_DATAPATH_DIB
 .rdata$OLE_DATAPATH_DIF
                0x000000000041182c       0x10 /usr/lib/gcc/i686-w64-mingw32/4.8/../../../../i686-w64-mingw32/lib/../lib/libuuid.a(lib32_libuuid_a-uuid.o)
                0x000000000041182c                OLE_DATAPATH_DIF
 .rdata$OLE_DATAPATH_ENHMF
                0x000000000041183c       0x10 /usr/lib/gcc/i686-w64-mingw32/4.8/../../../../i686-w64-mingw32/lib/../lib/libuuid.a(lib32_libuuid_a-uuid.o)
                0x000000000041183c                OLE_DATAPATH_ENHMF
 .rdata$OLE_DATAPATH_EPS
                0x000000000041184c       0x10 /usr/lib/gcc/i686-w64-mingw32/4.8/../../../../i686-w64-mingw32/lib/../lib/libuuid.a(lib32_libuuid_a-uuid.o)
                0x000000000041184c                OLE_DATAPATH_EPS
 .rdata$OLE_DATAPATH_GIF
                0x000000000041185c       0x10 /usr/lib/gcc/i686-w64-mingw32/4.8/../../../../i686-w64-mingw32/lib/../lib/libuuid.a(lib32_libuuid_a-uuid.o)
                0x000000000041185c                OLE_DATAPATH_GIF
 .rdata$OLE_DATAPATH_HTML
                0x000000000041186c       0x10 /usr/lib/gcc/i686-w64-mingw32/4.8/../../../../i686-w64-mingw32/lib/../lib/libuuid.a(lib32_libuuid_a-uuid.o)
                0x000000000041186c                OLE_DATAPATH_HTML
 .rdata$OLE_DATAPATH_JPEG
                0x000000000041187c       0x10 /usr/lib/gcc/i686-w64-mingw32/4.8/../../../../i686-w64-mingw32/lib/../lib/libuuid.a(lib32_libuuid_a-uuid.o)
                0x000000000041187c                OLE_DATAPATH_JPEG
 .rdata$OLE_DATAPATH_MIDI
                0x000000000041188c       0x10 /usr/lib/gcc/i686-w64-mingw32/4.8/../../../../i686-w64-mingw32/lib/../lib/libuuid.a(lib32_libuuid_a-uuid.o)
                0x000000000041188c                OLE_DATAPATH_MIDI
 .rdata$OLE_DATAPATH_MPEG
                0x000000000041189c       0x10 /usr/lib/gcc/i686-w64-mingw32/4.8/../../../../i686-w64-mingw32/lib/../lib/libuuid.a(lib32_libuuid_a-uuid.o)
                0x000000000041189c                OLE_DATAPATH_MPEG
 .rdata$OLE_DATAPATH_PALETTE
                0x00000000004118ac       0x10 /usr/lib/gcc/i686-w64-mingw32/4.8/../../../../i686-w64-mingw32/lib/../lib/libuuid.a(lib32_libuuid_a-uuid.o)
                0x00000000004118ac                OLE_DATAPATH_PALETTE
 .rdata$OLE_DATAPATH_PCX
                0x00000000004118bc       0x10 /usr/lib/gcc/i686-w64-mingw32/4.8/../../../../i686-w64-mingw32/lib/../lib/libuuid.a(lib32_libuuid_a-uuid.o)
                0x00000000004118bc                OLE_DATAPATH_PCX
 .rdata$OLE_DATAPATH_PENDATA
                0x00000000004118cc       0x10 /usr/lib/gcc/i686-w64-mingw32/4.8/../../../../i686-w64-mingw32/lib/../lib/libuuid.a(lib32_libuuid_a-uuid.o)
                0x00000000004118cc                OLE_DATAPATH_PENDATA
 .rdata$OLE_DATAPATH_PICT
                0x00000000004118dc       0x10 /usr/lib/gcc/i686-w64-mingw32/4.8/../../../../i686-w64-mingw32/lib/../lib/libuuid.a(lib32_libuuid_a-uuid.o)
                0x00000000004118dc                OLE_DATAPATH_PICT
 .rdata$OLE_DATAPATH_POSTSCRIPT
                0x00000000004118ec       0x10 /usr/lib/gcc/i686-w64-mingw32/4.8/../../../../i686-w64-mingw32/lib/../lib/libuuid.a(lib32_libuuid_a-uuid.o)
                0x00000000004118ec                OLE_DATAPATH_POSTSCRIPT
 .rdata$OLE_DATAPATH_QUICKTIME
                0x00000000004118fc       0x10 /usr/lib/gcc/i686-w64-mingw32/4.8/../../../../i686-w64-mingw32/lib/../lib/libuuid.a(lib32_libuuid_a-uuid.o)
                0x00000000004118fc                OLE_DATAPATH_QUICKTIME
 .rdata$OLE_DATAPATH_RIFF
                0x000000000041190c       0x10 /usr/lib/gcc/i686-w64-mingw32/4.8/../../../../i686-w64-mingw32/lib/../lib/libuuid.a(lib32_libuuid_a-uuid.o)
                0x000000000041190c                OLE_DATAPATH_RIFF
 .rdata$OLE_DATAPATH_RTF
                0x000000000041191c       0x10 /usr/lib/gcc/i686-w64-mingw32/4.8/../../../../i686-w64-mingw32/lib/../lib/libuuid.a(lib32_libuuid_a-uuid.o)
                0x000000000041191c                OLE_DATAPATH_RTF
 .rdata$OLE_DATAPATH_SOUND
                0x000000000041192c       0x10 /usr/lib/gcc/i686-w64-mingw32/4.8/../../../../i686-w64-mingw32/lib/../lib/libuuid.a(lib32_libuuid_a-uuid.o)
                0x000000000041192c                OLE_DATAPATH_SOUND
 .rdata$OLE_DATAPATH_SYLK
                0x000000000041193c       0x10 /usr/lib/gcc/i686-w64-mingw32/4.8/../../../../i686-w64-mingw32/lib/../lib/libuuid.a(lib32_libuuid_a-uuid.o)
                0x000000000041193c                OLE_DATAPATH_SYLK
 .rdata$OLE_DATAPATH_TIFF
                0x000000000041194c       0x10 /usr/lib/gcc/i686-w64-mingw32/4.8/../../../../i686-w64-mingw32/lib/../lib/libuuid.a(lib32_libuuid_a-uuid.o)
                0x000000000041194c                OLE_DATAPATH_TIFF
 .rdata$OLE_DATAPATH_UNICODE
                0x000000000041195c       0x10 /usr/lib/gcc/i686-w64-mingw32/4.8/../../../../i686-w64-mingw32/lib/../lib/libuuid.a(lib32_libuuid_a-uuid.o)
                0x000000000041195c                OLE_DATAPATH_UNICODE
 .rdata$OLE_DATAPATH_VIDEO
                0x000000000041196c       0x10 /usr/lib/gcc/i686-w64-mingw32/4.8/../../../../i686-w64-mingw32/lib/../lib/libuuid.a(lib32_libuuid_a-uuid.o)
                0x000000000041196c                OLE_DATAPATH_VIDEO
 .rdata$OLE_DATAPATH_WAV
                0x000000000041197c       0x10 /usr/lib/gcc/i686-w64-mingw32/4.8/../../../../i686-w64-mingw32/lib/../lib/libuuid.a(lib32_libuuid_a-uuid.o)
                0x000000000041197c                OLE_DATAPATH_WAV
 .rdata$OLE_DATAPATH_WMF
                0x000000000041198c       0x10 /usr/lib/gcc/i686-w64-mingw32/4.8/../../../../i686-w64-mingw32/lib/../lib/libuuid.a(lib32_libuuid_a-uuid.o)
                0x000000000041198c                OLE_DATAPATH_WMF
 .rdata$OLE_DATAPATH_XBM
                0x000000000041199c       0x10 /usr/lib/gcc/i686-w64-mingw32/4.8/../../../../i686-w64-mingw32/lib/../lib/libuuid.a(lib32_libuuid_a-uuid.o)
                0x000000000041199c                OLE_DATAPATH_XBM
 .rdata$PKEY_AppUserModel_ExcludeFromShowInNewInstall
                0x00000000004119ac       0x14 /usr/lib/gcc/i686-w64-mingw32/4.8/../../../../i686-w64-mingw32/lib/../lib/libuuid.a(lib32_libuuid_a-uuid.o)
                0x00000000004119ac                PKEY_AppUserModel_ExcludeFromShowInNewInstall
 .rdata$PKEY_AppUserModel_ID
                0x00000000004119c0       0x14 /usr/lib/gcc/i686-w64-mingw32/4.8/../../../../i686-w64-mingw32/lib/../lib/libuuid.a(lib32_libuuid_a-uuid.o)
                0x00000000004119c0                PKEY_AppUserModel_ID
 .rdata$PKEY_AppUserModel_IsDestListSeparator
                0x00000000004119d4       0x14 /usr/lib/gcc/i686-w64-mingw32/4.8/../../../../i686-w64-mingw32/lib/../lib/libuuid.a(lib32_libuuid_a-uuid.o)
                0x00000000004119d4                PKEY_AppUserModel_IsDestListSeparator
 .rdata$PKEY_AppUserModel_PreventPinning
                0x00000000004119e8       0x14 /usr/lib/gcc/i686-w64-mingw32/4.8/../../../../i686-w64-mingw32/lib/../lib/libuuid.a(lib32_libuuid_a-uuid.o)
                0x00000000004119e8                PKEY_AppUserModel_PreventPinning
 .rdata$PKEY_AppUserModel_RelaunchCommand
                0x00000000004119fc       0x14 /usr/lib/gcc/i686-w64-mingw32/4.8/../../../../i686-w64-mingw32/lib/../lib/libuuid.a(lib32_libuuid_a-uuid.o)
                0x00000000004119fc                PKEY_AppUserModel_RelaunchCommand
 .rdata$PKEY_AppUserModel_RelaunchDisplayNameResource
                0x0000000000411a10       0x14 /usr/lib/gcc/i686-w64-mingw32/4.8/../../../../i686-w64-mingw32/lib/../lib/libuuid.a(lib32_libuuid_a-uuid.o)
                0x0000000000411a10                PKEY_AppUserModel_RelaunchDisplayNameResource
 .rdata$PKEY_AppUserModel_RelaunchIconResource
                0x0000000000411a24       0x14 /usr/lib/gcc/i686-w64-mingw32/4.8/../../../../i686-w64-mingw32/lib/../lib/libuuid.a(lib32_libuuid_a-uuid.o)
                0x0000000000411a24                PKEY_AppUserModel_RelaunchIconResource
 .rdata$PKEY_Audio_ChannelCount
                0x0000000000411a38       0x14 /usr/lib/gcc/i686-w64-mingw32/4.8/../../../../i686-w64-mingw32/lib/../lib/libuuid.a(lib32_libuuid_a-uuid.o)
                0x0000000000411a38                PKEY_Audio_ChannelCount
 .rdata$PKEY_Audio_Compression
                0x0000000000411a4c       0x14 /usr/lib/gcc/i686-w64-mingw32/4.8/../../../../i686-w64-mingw32/lib/../lib/libuuid.a(lib32_libuuid_a-uuid.o)
                0x0000000000411a4c                PKEY_Audio_Compression
 .rdata$PKEY_Audio_Format
                0x0000000000411a60       0x14 /usr/lib/gcc/i686-w64-mingw32/4.8/../../../../i686-w64-mingw32/lib/../lib/libuuid.a(lib32_libuuid_a-uuid.o)
                0x0000000000411a60                PKEY_Audio_Format
 .rdata$PKEY_Audio_IsVariableBitRate
                0x0000000000411a74       0x14 /usr/lib/gcc/i686-w64-mingw32/4.8/../../../../i686-w64-mingw32/lib/../lib/libuuid.a(lib32_libuuid_a-uuid.o)
                0x0000000000411a74                PKEY_Audio_IsVariableBitRate
 .rdata$PKEY_Audio_PeakValue
                0x0000000000411a88       0x14 /usr/lib/gcc/i686-w64-mingw32/4.8/../../../../i686-w64-mingw32/lib/../lib/libuuid.a(lib32_libuuid_a-uuid.o)
                0x0000000000411a88                PKEY_Audio_PeakValue
 .rdata$PKEY_Audio_SampleRate
                0x0000000000411a9c       0x14 /usr/lib/gcc/i686-w64-mingw32/4.8/../../../../i686-w64-mingw32/lib/../lib/libuuid.a(lib32_libuuid_a-uuid.o)
                0x0000000000411a9c                PKEY_Audio_SampleRate
 .rdata$PKEY_Audio_SampleSize
                0x0000000000411ab0       0x14 /usr/lib/gcc/i686-w64-mingw32/4.8/../../../../i686-w64-mingw32/lib/../lib/libuuid.a(lib32_libuuid_a-uuid.o)
                0x0000000000411ab0                PKEY_Audio_SampleSize
 .rdata$PKEY_Audio_StreamName
                0x0000000000411ac4       0x14 /usr/lib/gcc/i686-w64-mingw32/4.8/../../../../i686-w64-mingw32/lib/../lib/libuuid.a(lib32_libuuid_a-uuid.o)
                0x0000000000411ac4                PKEY_Audio_StreamName
 .rdata$PKEY_Audio_StreamNumber
                0x0000000000411ad8       0x14 /usr/lib/gcc/i686-w64-mingw32/4.8/../../../../i686-w64-mingw32/lib/../lib/libuuid.a(lib32_libuuid_a-uuid.o)
                0x0000000000411ad8                PKEY_Audio_StreamNumber
 .rdata$PKEY_ItemName
                0x0000000000411aec       0x14 /usr/lib/gcc/i686-w64-mingw32/4.8/../../../../i686-w64-mingw32/lib/../lib/libuuid.a(lib32_libuuid_a-uuid.o)
                0x0000000000411aec                PKEY_ItemName
 .rdata$PKEY_Title
                0x0000000000411b00       0x14 /usr/lib/gcc/i686-w64-mingw32/4.8/../../../../i686-w64-mingw32/lib/../lib/libuuid.a(lib32_libuuid_a-uuid.o)
                0x0000000000411b00                PKEY_Title
 .rdata$PPM_IDLESTATES_DATA_GUID
                0x0000000000411b14       0x10 /usr/lib/gcc/i686-w64-mingw32/4.8/../../../../i686-w64-mingw32/lib/../lib/libuuid.a(lib32_libuuid_a-uuid.o)
                0x0000000000411b14                PPM_IDLESTATES_DATA_GUID
 .rdata$PPM_IDLESTATE_CHANGE_GUID
                0x0000000000411b24       0x10 /usr/lib/gcc/i686-w64-mingw32/4.8/../../../../i686-w64-mingw32/lib/../lib/libuuid.a(lib32_libuuid_a-uuid.o)
                0x0000000000411b24                PPM_IDLESTATE_CHANGE_GUID
 .rdata$PPM_IDLE_ACCOUNTING_EX_GUID
                0x0000000000411b34       0x10 /usr/lib/gcc/i686-w64-mingw32/4.8/../../../../i686-w64-mingw32/lib/../lib/libuuid.a(lib32_libuuid_a-uuid.o)
                0x0000000000411b34                PPM_IDLE_ACCOUNTING_EX_GUID
 .rdata$PPM_IDLE_ACCOUNTING_GUID
                0x0000000000411b44       0x10 /usr/lib/gcc/i686-w64-mingw32/4.8/../../../../i686-w64-mingw32/lib/../lib/libuuid.a(lib32_libuuid_a-uuid.o)
                0x0000000000411b44                PPM_IDLE_ACCOUNTING_GUID
 .rdata$PPM_PERFMON_PERFSTATE_GUID
                0x0000000000411b54       0x10 /usr/lib/gcc/i686-w64-mingw32/4.8/../../../../i686-w64-mingw32/lib/../lib/libuuid.a(lib32_libuuid_a-uuid.o)
                0x0000000000411b54                PPM_PERFMON_PERFSTATE_GUID
 .rdata$PPM_PERFSTATES_DATA_GUID
                0x0000000000411b64       0x10 /usr/lib/gcc/i686-w64-mingw32/4.8/../../../../i686-w64-mingw32/lib/../lib/libuuid.a(lib32_libuuid_a-uuid.o)
                0x0000000000411b64                PPM_PERFSTATES_DATA_GUID
 .rdata$PPM_PERFSTATE_CHANGE_GUID
                0x0000000000411b74       0x10 /usr/lib/gcc/i686-w64-mingw32/4.8/../../../../i686-w64-mingw32/lib/../lib/libuuid.a(lib32_libuuid_a-uuid.o)
                0x0000000000411b74                PPM_PERFSTATE_CHANGE_GUID
 .rdata$PPM_PERFSTATE_DOMAIN_CHANGE_GUID
                0x0000000000411b84       0x10 /usr/lib/gcc/i686-w64-mingw32/4.8/../../../../i686-w64-mingw32/lib/../lib/libuuid.a(lib32_libuuid_a-uuid.o)
                0x0000000000411b84                PPM_PERFSTATE_DOMAIN_CHANGE_GUID
 .rdata$PPM_THERMALCONSTRAINT_GUID
                0x0000000000411b94       0x10 /usr/lib/gcc/i686-w64-mingw32/4.8/../../../../i686-w64-mingw32/lib/../lib/libuuid.a(lib32_libuuid_a-uuid.o)
                0x0000000000411b94                PPM_THERMALCONSTRAINT_GUID
 .rdata$PPM_THERMAL_POLICY_CHANGE_GUID
                0x0000000000411ba4       0x10 /usr/lib/gcc/i686-w64-mingw32/4.8/../../../../i686-w64-mingw32/lib/../lib/libuuid.a(lib32_libuuid_a-uuid.o)
                0x0000000000411ba4                PPM_THERMAL_POLICY_CHANGE_GUID
 .rdata$PROPID_ACC_DEFAULTACTION
                0x0000000000411bb4       0x10 /usr/lib/gcc/i686-w64-mingw32/4.8/../../../../i686-w64-mingw32/lib/../lib/libuuid.a(lib32_libuuid_a-uuid.o)
                0x0000000000411bb4                PROPID_ACC_DEFAULTACTION
 .rdata$PROPID_ACC_DESCRIPTION
                0x0000000000411bc4       0x10 /usr/lib/gcc/i686-w64-mingw32/4.8/../../../../i686-w64-mingw32/lib/../lib/libuuid.a(lib32_libuuid_a-uuid.o)
                0x0000000000411bc4                PROPID_ACC_DESCRIPTION
 .rdata$PROPID_ACC_DESCRIPTIONMAP
                0x0000000000411bd4       0x10 /usr/lib/gcc/i686-w64-mingw32/4.8/../../../../i686-w64-mingw32/lib/../lib/libuuid.a(lib32_libuuid_a-uuid.o)
                0x0000000000411bd4                PROPID_ACC_DESCRIPTIONMAP
 .rdata$PROPID_ACC_DODEFAULTACTION
                0x0000000000411be4       0x10 /usr/lib/gcc/i686-w64-mingw32/4.8/../../../../i686-w64-mingw32/lib/../lib/libuuid.a(lib32_libuuid_a-uuid.o)
                0x0000000000411be4                PROPID_ACC_DODEFAULTACTION
 .rdata$PROPID_ACC_FOCUS
                0x0000000000411bf4       0x10 /usr/lib/gcc/i686-w64-mingw32/4.8/../../../../i686-w64-mingw32/lib/../lib/libuuid.a(lib32_libuuid_a-uuid.o)
                0x0000000000411bf4                PROPID_ACC_FOCUS
 .rdata$PROPID_ACC_HELP
                0x0000000000411c04       0x10 /usr/lib/gcc/i686-w64-mingw32/4.8/../../../../i686-w64-mingw32/lib/../lib/libuuid.a(lib32_libuuid_a-uuid.o)
                0x0000000000411c04                PROPID_ACC_HELP
 .rdata$PROPID_ACC_HELPTOPIC
                0x0000000000411c14       0x10 /usr/lib/gcc/i686-w64-mingw32/4.8/../../../../i686-w64-mingw32/lib/../lib/libuuid.a(lib32_libuuid_a-uuid.o)
                0x0000000000411c14                PROPID_ACC_HELPTOPIC
 .rdata$PROPID_ACC_KEYBOARDSHORTCUT
                0x0000000000411c24       0x10 /usr/lib/gcc/i686-w64-mingw32/4.8/../../../../i686-w64-mingw32/lib/../lib/libuuid.a(lib32_libuuid_a-uuid.o)
                0x0000000000411c24                PROPID_ACC_KEYBOARDSHORTCUT
 .rdata$PROPID_ACC_NAME
                0x0000000000411c34       0x10 /usr/lib/gcc/i686-w64-mingw32/4.8/../../../../i686-w64-mingw32/lib/../lib/libuuid.a(lib32_libuuid_a-uuid.o)
                0x0000000000411c34                PROPID_ACC_NAME
 .rdata$PROPID_ACC_NAV_DOWN
                0x0000000000411c44       0x10 /usr/lib/gcc/i686-w64-mingw32/4.8/../../../../i686-w64-mingw32/lib/../lib/libuuid.a(lib32_libuuid_a-uuid.o)
                0x0000000000411c44                PROPID_ACC_NAV_DOWN
 .rdata$PROPID_ACC_NAV_FIRSTCHILD
                0x0000000000411c54       0x10 /usr/lib/gcc/i686-w64-mingw32/4.8/../../../../i686-w64-mingw32/lib/../lib/libuuid.a(lib32_libuuid_a-uuid.o)
                0x0000000000411c54                PROPID_ACC_NAV_FIRSTCHILD
 .rdata$PROPID_ACC_NAV_LASTCHILD
                0x0000000000411c64       0x10 /usr/lib/gcc/i686-w64-mingw32/4.8/../../../../i686-w64-mingw32/lib/../lib/libuuid.a(lib32_libuuid_a-uuid.o)
                0x0000000000411c64                PROPID_ACC_NAV_LASTCHILD
 .rdata$PROPID_ACC_NAV_LEFT
                0x0000000000411c74       0x10 /usr/lib/gcc/i686-w64-mingw32/4.8/../../../../i686-w64-mingw32/lib/../lib/libuuid.a(lib32_libuuid_a-uuid.o)
                0x0000000000411c74                PROPID_ACC_NAV_LEFT
 .rdata$PROPID_ACC_NAV_NEXT
                0x0000000000411c84       0x10 /usr/lib/gcc/i686-w64-mingw32/4.8/../../../../i686-w64-mingw32/lib/../lib/libuuid.a(lib32_libuuid_a-uuid.o)
                0x0000000000411c84                PROPID_ACC_NAV_NEXT
 .rdata$PROPID_ACC_NAV_PREV
                0x0000000000411c94       0x10 /usr/lib/gcc/i686-w64-mingw32/4.8/../../../../i686-w64-mingw32/lib/../lib/libuuid.a(lib32_libuuid_a-uuid.o)
                0x0000000000411c94                PROPID_ACC_NAV_PREV
 .rdata$PROPID_ACC_NAV_RIGHT
                0x0000000000411ca4       0x10 /usr/lib/gcc/i686-w64-mingw32/4.8/../../../../i686-w64-mingw32/lib/../lib/libuuid.a(lib32_libuuid_a-uuid.o)
                0x0000000000411ca4                PROPID_ACC_NAV_RIGHT
 .rdata$PROPID_ACC_NAV_UP
                0x0000000000411cb4       0x10 /usr/lib/gcc/i686-w64-mingw32/4.8/../../../../i686-w64-mingw32/lib/../lib/libuuid.a(lib32_libuuid_a-uuid.o)
                0x0000000000411cb4                PROPID_ACC_NAV_UP
 .rdata$PROPID_ACC_PARENT
                0x0000000000411cc4       0x10 /usr/lib/gcc/i686-w64-mingw32/4.8/../../../../i686-w64-mingw32/lib/../lib/libuuid.a(lib32_libuuid_a-uuid.o)
                0x0000000000411cc4                PROPID_ACC_PARENT
 .rdata$PROPID_ACC_ROLE
                0x0000000000411cd4       0x10 /usr/lib/gcc/i686-w64-mingw32/4.8/../../../../i686-w64-mingw32/lib/../lib/libuuid.a(lib32_libuuid_a-uuid.o)
                0x0000000000411cd4                PROPID_ACC_ROLE
 .rdata$PROPID_ACC_ROLEMAP
                0x0000000000411ce4       0x10 /usr/lib/gcc/i686-w64-mingw32/4.8/../../../../i686-w64-mingw32/lib/../lib/libuuid.a(lib32_libuuid_a-uuid.o)
                0x0000000000411ce4                PROPID_ACC_ROLEMAP
 .rdata$PROPID_ACC_SELECTION
                0x0000000000411cf4       0x10 /usr/lib/gcc/i686-w64-mingw32/4.8/../../../../i686-w64-mingw32/lib/../lib/libuuid.a(lib32_libuuid_a-uuid.o)
                0x0000000000411cf4                PROPID_ACC_SELECTION
 .rdata$PROPID_ACC_STATE
                0x0000000000411d04       0x10 /usr/lib/gcc/i686-w64-mingw32/4.8/../../../../i686-w64-mingw32/lib/../lib/libuuid.a(lib32_libuuid_a-uuid.o)
                0x0000000000411d04                PROPID_ACC_STATE
 .rdata$PROPID_ACC_STATEMAP
                0x0000000000411d14       0x10 /usr/lib/gcc/i686-w64-mingw32/4.8/../../../../i686-w64-mingw32/lib/../lib/libuuid.a(lib32_libuuid_a-uuid.o)
                0x0000000000411d14                PROPID_ACC_STATEMAP
 .rdata$PROPID_ACC_VALUE
                0x0000000000411d24       0x10 /usr/lib/gcc/i686-w64-mingw32/4.8/../../../../i686-w64-mingw32/lib/../lib/libuuid.a(lib32_libuuid_a-uuid.o)
                0x0000000000411d24                PROPID_ACC_VALUE
 .rdata$PROPID_ACC_VALUEMAP
                0x0000000000411d34       0x10 /usr/lib/gcc/i686-w64-mingw32/4.8/../../../../i686-w64-mingw32/lib/../lib/libuuid.a(lib32_libuuid_a-uuid.o)
                0x0000000000411d34                PROPID_ACC_VALUEMAP
 .rdata$SID_CommandsPropertyBag
                0x0000000000411d44       0x10 /usr/lib/gcc/i686-w64-mingw32/4.8/../../../../i686-w64-mingw32/lib/../lib/libuuid.a(lib32_libuuid_a-uuid.o)
                0x0000000000411d44                SID_CommandsPropertyBag
 .rdata$SID_CtxQueryAssociations
                0x0000000000411d54       0x10 /usr/lib/gcc/i686-w64-mingw32/4.8/../../../../i686-w64-mingw32/lib/../lib/libuuid.a(lib32_libuuid_a-uuid.o)
                0x0000000000411d54                SID_CtxQueryAssociations
 .rdata$SID_DefView
                0x0000000000411d64       0x10 /usr/lib/gcc/i686-w64-mingw32/4.8/../../../../i686-w64-mingw32/lib/../lib/libuuid.a(lib32_libuuid_a-uuid.o)
                0x0000000000411d64                SID_DefView
 .rdata$SID_MenuShellFolder
                0x0000000000411d74       0x10 /usr/lib/gcc/i686-w64-mingw32/4.8/../../../../i686-w64-mingw32/lib/../lib/libuuid.a(lib32_libuuid_a-uuid.o)
                0x0000000000411d74                SID_MenuShellFolder
 .rdata$SID_SCommDlgBrowser
                0x0000000000411d84       0x10 /usr/lib/gcc/i686-w64-mingw32/4.8/../../../../i686-w64-mingw32/lib/../lib/libuuid.a(lib32_libuuid_a-uuid.o)
                0x0000000000411d84                SID_SCommDlgBrowser
 .rdata$SID_SCommandBarState
                0x0000000000411d94       0x10 /usr/lib/gcc/i686-w64-mingw32/4.8/../../../../i686-w64-mingw32/lib/../lib/libuuid.a(lib32_libuuid_a-uuid.o)
                0x0000000000411d94                SID_SCommandBarState
 .rdata$SID_SContainerDispatch
                0x0000000000411da4       0x10 /usr/lib/gcc/i686-w64-mingw32/4.8/../../../../i686-w64-mingw32/lib/../lib/libuuid.a(lib32_libuuid_a-uuid.o)
                0x0000000000411da4                SID_SContainerDispatch
 .rdata$SID_SDataPathBrowser
                0x0000000000411db4       0x10 /usr/lib/gcc/i686-w64-mingw32/4.8/../../../../i686-w64-mingw32/lib/../lib/libuuid.a(lib32_libuuid_a-uuid.o)
                0x0000000000411db4                SID_SDataPathBrowser
 .rdata$SID_SGetViewFromViewDual
                0x0000000000411dc4       0x10 /usr/lib/gcc/i686-w64-mingw32/4.8/../../../../i686-w64-mingw32/lib/../lib/libuuid.a(lib32_libuuid_a-uuid.o)
                0x0000000000411dc4                SID_SGetViewFromViewDual
 .rdata$SID_SInPlaceBrowser
                0x0000000000411dd4       0x10 /usr/lib/gcc/i686-w64-mingw32/4.8/../../../../i686-w64-mingw32/lib/../lib/libuuid.a(lib32_libuuid_a-uuid.o)
                0x0000000000411dd4                SID_SInPlaceBrowser
 .rdata$SID_SMenuBandBKContextMenu
                0x0000000000411de4       0x10 /usr/lib/gcc/i686-w64-mingw32/4.8/../../../../i686-w64-mingw32/lib/../lib/libuuid.a(lib32_libuuid_a-uuid.o)
                0x0000000000411de4                SID_SMenuBandBKContextMenu
 .rdata$SID_SMenuBandBottom
                0x0000000000411df4       0x10 /usr/lib/gcc/i686-w64-mingw32/4.8/../../../../i686-w64-mingw32/lib/../lib/libuuid.a(lib32_libuuid_a-uuid.o)
                0x0000000000411df4                SID_SMenuBandBottom
 .rdata$SID_SMenuBandBottomSelected
                0x0000000000411e04       0x10 /usr/lib/gcc/i686-w64-mingw32/4.8/../../../../i686-w64-mingw32/lib/../lib/libuuid.a(lib32_libuuid_a-uuid.o)
                0x0000000000411e04                SID_SMenuBandBottomSelected
 .rdata$SID_SMenuBandChild
                0x0000000000411e14       0x10 /usr/lib/gcc/i686-w64-mingw32/4.8/../../../../i686-w64-mingw32/lib/../lib/libuuid.a(lib32_libuuid_a-uuid.o)
                0x0000000000411e14                SID_SMenuBandChild
 .rdata$SID_SMenuBandContextMenuModifier
                0x0000000000411e24       0x10 /usr/lib/gcc/i686-w64-mingw32/4.8/../../../../i686-w64-mingw32/lib/../lib/libuuid.a(lib32_libuuid_a-uuid.o)
                0x0000000000411e24                SID_SMenuBandContextMenuModifier
 .rdata$SID_SMenuBandParent
                0x0000000000411e34       0x10 /usr/lib/gcc/i686-w64-mingw32/4.8/../../../../i686-w64-mingw32/lib/../lib/libuuid.a(lib32_libuuid_a-uuid.o)
                0x0000000000411e34                SID_SMenuBandParent
 .rdata$SID_SMenuBandTop
                0x0000000000411e44       0x10 /usr/lib/gcc/i686-w64-mingw32/4.8/../../../../i686-w64-mingw32/lib/../lib/libuuid.a(lib32_libuuid_a-uuid.o)
                0x0000000000411e44                SID_SMenuBandTop
 .rdata$SID_SMenuPopup
                0x0000000000411e54       0x10 /usr/lib/gcc/i686-w64-mingw32/4.8/../../../../i686-w64-mingw32/lib/../lib/libuuid.a(lib32_libuuid_a-uuid.o)
                0x0000000000411e54                SID_SMenuPopup
 .rdata$SID_SSearchBoxInfo
                0x0000000000411e64       0x10 /usr/lib/gcc/i686-w64-mingw32/4.8/../../../../i686-w64-mingw32/lib/../lib/libuuid.a(lib32_libuuid_a-uuid.o)
                0x0000000000411e64                SID_SSearchBoxInfo
 .rdata$SID_STopLevelBrowser
                0x0000000000411e74       0x10 /usr/lib/gcc/i686-w64-mingw32/4.8/../../../../i686-w64-mingw32/lib/../lib/libuuid.a(lib32_libuuid_a-uuid.o)
                0x0000000000411e74                SID_STopLevelBrowser
 .rdata$SID_STopWindow
                0x0000000000411e84       0x10 /usr/lib/gcc/i686-w64-mingw32/4.8/../../../../i686-w64-mingw32/lib/../lib/libuuid.a(lib32_libuuid_a-uuid.o)
                0x0000000000411e84                SID_STopWindow
 .rdata$SID_ShellExecuteNamedPropertyStore
                0x0000000000411e94       0x10 /usr/lib/gcc/i686-w64-mingw32/4.8/../../../../i686-w64-mingw32/lib/../lib/libuuid.a(lib32_libuuid_a-uuid.o)
                0x0000000000411e94                SID_ShellExecuteNamedPropertyStore
 .rdata$SYNCMGR_OBJECTID_BrowseContent
                0x0000000000411ea4       0x10 /usr/lib/gcc/i686-w64-mingw32/4.8/../../../../i686-w64-mingw32/lib/../lib/libuuid.a(lib32_libuuid_a-uuid.o)
                0x0000000000411ea4                SYNCMGR_OBJECTID_BrowseContent
 .rdata$SYNCMGR_OBJECTID_ConflictStore
                0x0000000000411eb4       0x10 /usr/lib/gcc/i686-w64-mingw32/4.8/../../../../i686-w64-mingw32/lib/../lib/libuuid.a(lib32_libuuid_a-uuid.o)
                0x0000000000411eb4                SYNCMGR_OBJECTID_ConflictStore
 .rdata$SYNCMGR_OBJECTID_EventLinkClick
                0x0000000000411ec4       0x10 /usr/lib/gcc/i686-w64-mingw32/4.8/../../../../i686-w64-mingw32/lib/../lib/libuuid.a(lib32_libuuid_a-uuid.o)
                0x0000000000411ec4                SYNCMGR_OBJECTID_EventLinkClick
 .rdata$SYNCMGR_OBJECTID_EventStore
                0x0000000000411ed4       0x10 /usr/lib/gcc/i686-w64-mingw32/4.8/../../../../i686-w64-mingw32/lib/../lib/libuuid.a(lib32_libuuid_a-uuid.o)
                0x0000000000411ed4                SYNCMGR_OBJECTID_EventStore
 .rdata$SYNCMGR_OBJECTID_Icon
                0x0000000000411ee4       0x10 /usr/lib/gcc/i686-w64-mingw32/4.8/../../../../i686-w64-mingw32/lib/../lib/libuuid.a(lib32_libuuid_a-uuid.o)
                0x0000000000411ee4                SYNCMGR_OBJECTID_Icon
 .rdata$SYNCMGR_OBJECTID_QueryBeforeActivate
                0x0000000000411ef4       0x10 /usr/lib/gcc/i686-w64-mingw32/4.8/../../../../i686-w64-mingw32/lib/../lib/libuuid.a(lib32_libuuid_a-uuid.o)
                0x0000000000411ef4                SYNCMGR_OBJECTID_QueryBeforeActivate
 .rdata$SYNCMGR_OBJECTID_QueryBeforeDeactivate
                0x0000000000411f04       0x10 /usr/lib/gcc/i686-w64-mingw32/4.8/../../../../i686-w64-mingw32/lib/../lib/libuuid.a(lib32_libuuid_a-uuid.o)
                0x0000000000411f04                SYNCMGR_OBJECTID_QueryBeforeDeactivate
 .rdata$SYNCMGR_OBJECTID_QueryBeforeDelete
                0x0000000000411f14       0x10 /usr/lib/gcc/i686-w64-mingw32/4.8/../../../../i686-w64-mingw32/lib/../lib/libuuid.a(lib32_libuuid_a-uuid.o)
                0x0000000000411f14                SYNCMGR_OBJECTID_QueryBeforeDelete
 .rdata$SYNCMGR_OBJECTID_QueryBeforeDisable
                0x0000000000411f24       0x10 /usr/lib/gcc/i686-w64-mingw32/4.8/../../../../i686-w64-mingw32/lib/../lib/libuuid.a(lib32_libuuid_a-uuid.o)
                0x0000000000411f24                SYNCMGR_OBJECTID_QueryBeforeDisable
 .rdata$SYNCMGR_OBJECTID_QueryBeforeEnable
                0x0000000000411f34       0x10 /usr/lib/gcc/i686-w64-mingw32/4.8/../../../../i686-w64-mingw32/lib/../lib/libuuid.a(lib32_libuuid_a-uuid.o)
                0x0000000000411f34                SYNCMGR_OBJECTID_QueryBeforeEnable
 .rdata$SYNCMGR_OBJECTID_ShowSchedule
                0x0000000000411f44       0x10 /usr/lib/gcc/i686-w64-mingw32/4.8/../../../../i686-w64-mingw32/lib/../lib/libuuid.a(lib32_libuuid_a-uuid.o)
                0x0000000000411f44                SYNCMGR_OBJECTID_ShowSchedule
 .rdata$SelectedItemCount_Property_GUID
                0x0000000000411f54       0x10 /usr/lib/gcc/i686-w64-mingw32/4.8/../../../../i686-w64-mingw32/lib/../lib/libuuid.a(lib32_libuuid_a-uuid.o)
                0x0000000000411f54                SelectedItemCount_Property_GUID
 .rdata$VID_Content
                0x0000000000411f64       0x10 /usr/lib/gcc/i686-w64-mingw32/4.8/../../../../i686-w64-mingw32/lib/../lib/libuuid.a(lib32_libuuid_a-uuid.o)
                0x0000000000411f64                VID_Content
 .rdata$VID_Details
                0x0000000000411f74       0x10 /usr/lib/gcc/i686-w64-mingw32/4.8/../../../../i686-w64-mingw32/lib/../lib/libuuid.a(lib32_libuuid_a-uuid.o)
                0x0000000000411f74                VID_Details
 .rdata$VID_LargeIcons
                0x0000000000411f84       0x10 /usr/lib/gcc/i686-w64-mingw32/4.8/../../../../i686-w64-mingw32/lib/../lib/libuuid.a(lib32_libuuid_a-uuid.o)
                0x0000000000411f84                VID_LargeIcons
 .rdata$VID_List
                0x0000000000411f94       0x10 /usr/lib/gcc/i686-w64-mingw32/4.8/../../../../i686-w64-mingw32/lib/../lib/libuuid.a(lib32_libuuid_a-uuid.o)
                0x0000000000411f94                VID_List
 .rdata$VID_SmallIcons
                0x0000000000411fa4       0x10 /usr/lib/gcc/i686-w64-mingw32/4.8/../../../../i686-w64-mingw32/lib/../lib/libuuid.a(lib32_libuuid_a-uuid.o)
                0x0000000000411fa4                VID_SmallIcons
 .rdata$VID_ThumbStrip
                0x0000000000411fb4       0x10 /usr/lib/gcc/i686-w64-mingw32/4.8/../../../../i686-w64-mingw32/lib/../lib/libuuid.a(lib32_libuuid_a-uuid.o)
                0x0000000000411fb4                VID_ThumbStrip
 .rdata$VID_Thumbnails
                0x0000000000411fc4       0x10 /usr/lib/gcc/i686-w64-mingw32/4.8/../../../../i686-w64-mingw32/lib/../lib/libuuid.a(lib32_libuuid_a-uuid.o)
                0x0000000000411fc4                VID_Thumbnails
 .rdata$VID_Tile
                0x0000000000411fd4       0x10 /usr/lib/gcc/i686-w64-mingw32/4.8/../../../../i686-w64-mingw32/lib/../lib/libuuid.a(lib32_libuuid_a-uuid.o)
                0x0000000000411fd4                VID_Tile
 .rdata$VIRTUAL_STORAGE_TYPE_VENDOR_MICROSOFT
                0x0000000000411fe4       0x10 /usr/lib/gcc/i686-w64-mingw32/4.8/../../../../i686-w64-mingw32/lib/../lib/libuuid.a(lib32_libuuid_a-uuid.o)
                0x0000000000411fe4                VIRTUAL_STORAGE_TYPE_VENDOR_MICROSOFT
 .rdata$zzz     0x0000000000411ff4       0x14 build/release/stub_zlib_solid/bgbg.o
 .rdata$zzz     0x0000000000412008       0x14 build/release/stub_zlib_solid/components.o
 .rdata$zzz     0x000000000041201c       0x14 build/release/stub_zlib_solid/exec.o
 .rdata$zzz     0x0000000000412030       0x14 build/release/stub_zlib_solid/fileform.o
 .rdata$zzz     0x0000000000412044       0x14 build/release/stub_zlib_solid/Main.o
 .rdata$zzz     0x0000000000412058       0x14 build/release/stub_zlib_solid/plugin.o
 .rdata$zzz     0x000000000041206c       0x14 build/release/stub_zlib_solid/Ui.o
 .rdata$zzz     0x0000000000412080       0x14 build/release/stub_zlib_solid/util.o
 .rdata$zzz     0x0000000000412094       0x14 build/release/stub_zlib_solid/crc32.o
 .rdata$zzz     0x00000000004120a8       0x14 build/release/stub_zlib_solid/INFBLOCK.o
 .rdata$zzz     0x00000000004120bc       0x14 /usr/lib/gcc/i686-w64-mingw32/4.8/../../../../i686-w64-mingw32/lib/../lib/libshell32.a(lib32_libshell32_a-shell32.o)
 .rdata$zzz     0x00000000004120d0       0x14 /usr/lib/gcc/i686-w64-mingw32/4.8/../../../../i686-w64-mingw32/lib/../lib/libuuid.a(lib32_libuuid_a-uuid.o)
 *(.eh_frame)
                0x00000000004120e4                ___RUNTIME_PSEUDO_RELOC_LIST__ = .
                0x00000000004120e4                __RUNTIME_PSEUDO_RELOC_LIST__ = .
 *(.rdata_runtime_pseudo_reloc)
                0x00000000004120e4                ___RUNTIME_PSEUDO_RELOC_LIST_END__ = .
                0x00000000004120e4                __RUNTIME_PSEUDO_RELOC_LIST_END__ = .

.pdata
 *(.pdata)

.bss            0x0000000000413000    0x26498
                0x0000000000413000                __bss_start__ = .
 *(.bss)
 .bss           0x0000000000413000        0x0 build/release/stub_zlib_solid/bgbg.o
 .bss           0x0000000000413000        0x0 build/release/stub_zlib_solid/components.o
 .bss           0x0000000000413000     0x1c44 build/release/stub_zlib_solid/exec.o
 .bss           0x0000000000414c44    0x1dbdc build/release/stub_zlib_solid/fileform.o
 .bss           0x0000000000432820      0x400 build/release/stub_zlib_solid/Main.o
 .bss           0x0000000000432c20        0x4 build/release/stub_zlib_solid/plugin.o
 .bss           0x0000000000432c24     0x2060 build/release/stub_zlib_solid/Ui.o
                0x0000000000432c24                ui_dlg_visible
 .bss           0x0000000000434c84     0x1584 build/release/stub_zlib_solid/util.o
 .bss           0x0000000000436208      0x400 build/release/stub_zlib_solid/crc32.o
 .bss           0x0000000000436608     0x118c build/release/stub_zlib_solid/INFBLOCK.o
 .bss           0x0000000000437794        0x0 /usr/lib/gcc/i686-w64-mingw32/4.8/../../../../i686-w64-mingw32/lib/../lib/libkernel32.a(dnqfbs01140.o)
 .bss           0x0000000000437794        0x0 /usr/lib/gcc/i686-w64-mingw32/4.8/../../../../i686-w64-mingw32/lib/../lib/libkernel32.a(dnqfbs01057.o)
 .bss           0x0000000000437794        0x0 /usr/lib/gcc/i686-w64-mingw32/4.8/../../../../i686-w64-mingw32/lib/../lib/libkernel32.a(dnqfbs00126.o)
 .bss           0x0000000000437794        0x0 /usr/lib/gcc/i686-w64-mingw32/4.8/../../../../i686-w64-mingw32/lib/../lib/libkernel32.a(dnqfbs00515.o)
 .bss           0x0000000000437794        0x0 /usr/lib/gcc/i686-w64-mingw32/4.8/../../../../i686-w64-mingw32/lib/../lib/libkernel32.a(dnqfbs00486.o)
 .bss           0x0000000000437794        0x0 /usr/lib/gcc/i686-w64-mingw32/4.8/../../../../i686-w64-mingw32/lib/../lib/libkernel32.a(dnqfbs01040.o)
 .bss           0x0000000000437794        0x0 /usr/lib/gcc/i686-w64-mingw32/4.8/../../../../i686-w64-mingw32/lib/../lib/libkernel32.a(dnqfbs00844.o)
 .bss           0x0000000000437794        0x0 /usr/lib/gcc/i686-w64-mingw32/4.8/../../../../i686-w64-mingw32/lib/../lib/libkernel32.a(dnqfbs00505.o)
 .bss           0x0000000000437794        0x0 /usr/lib/gcc/i686-w64-mingw32/4.8/../../../../i686-w64-mingw32/lib/../lib/libkernel32.a(dnqfbs00610.o)
 .bss           0x0000000000437794        0x0 /usr/lib/gcc/i686-w64-mingw32/4.8/../../../../i686-w64-mingw32/lib/../lib/libkernel32.a(dnqfbs00991.o)
 .bss           0x0000000000437794        0x0 /usr/lib/gcc/i686-w64-mingw32/4.8/../../../../i686-w64-mingw32/lib/../lib/libkernel32.a(dnqfbs00097.o)
 .bss           0x0000000000437794        0x0 /usr/lib/gcc/i686-w64-mingw32/4.8/../../../../i686-w64-mingw32/lib/../lib/libkernel32.a(dnqfbs01069.o)
 .bss           0x0000000000437794        0x0 /usr/lib/gcc/i686-w64-mingw32/4.8/../../../../i686-w64-mingw32/lib/../lib/libkernel32.a(dnqfbs00083.o)
 .bss           0x0000000000437794        0x0 /usr/lib/gcc/i686-w64-mingw32/4.8/../../../../i686-w64-mingw32/lib/../lib/libkernel32.a(dnqfbs01295.o)
 .bss           0x0000000000437794        0x0 /usr/lib/gcc/i686-w64-mingw32/4.8/../../../../i686-w64-mingw32/lib/../lib/libkernel32.a(dnqfbs01292.o)
 .bss           0x0000000000437794        0x0 /usr/lib/gcc/i686-w64-mingw32/4.8/../../../../i686-w64-mingw32/lib/../lib/libkernel32.a(dnqfbs00285.o)
 .bss           0x0000000000437794        0x0 /usr/lib/gcc/i686-w64-mingw32/4.8/../../../../i686-w64-mingw32/lib/../lib/libkernel32.a(dnqfbs00702.o)
 .bss           0x0000000000437794        0x0 /usr/lib/gcc/i686-w64-mingw32/4.8/../../../../i686-w64-mingw32/lib/../lib/libkernel32.a(dnqfbs00695.o)
 .bss           0x0000000000437794        0x0 /usr/lib/gcc/i686-w64-mingw32/4.8/../../../../i686-w64-mingw32/lib/../lib/libkernel32.a(dnqfbs00852.o)
 .bss           0x0000000000437794        0x0 /usr/lib/gcc/i686-w64-mingw32/4.8/../../../../i686-w64-mingw32/lib/../lib/libkernel32.a(dnqfbs01218.o)
 .bss           0x0000000000437794        0x0 /usr/lib/gcc/i686-w64-mingw32/4.8/../../../../i686-w64-mingw32/lib/../lib/libkernel32.a(dnqfbs00482.o)
 .bss           0x0000000000437794        0x0 /usr/lib/gcc/i686-w64-mingw32/4.8/../../../../i686-w64-mingw32/lib/../lib/libkernel32.a(dnqfbs00810.o)
 .bss           0x0000000000437794        0x0 /usr/lib/gcc/i686-w64-mingw32/4.8/../../../../i686-w64-mingw32/lib/../lib/libkernel32.a(dnqfbs00533.o)
 .bss           0x0000000000437794        0x0 /usr/lib/gcc/i686-w64-mingw32/4.8/../../../../i686-w64-mingw32/lib/../lib/libkernel32.a(dnqfbs00581.o)
 .bss           0x0000000000437794        0x0 /usr/lib/gcc/i686-w64-mingw32/4.8/../../../../i686-w64-mingw32/lib/../lib/libkernel32.a(dnqfbs00356.o)
 .bss           0x0000000000437794        0x0 /usr/lib/gcc/i686-w64-mingw32/4.8/../../../../i686-w64-mingw32/lib/../lib/libkernel32.a(dnqfbs00853.o)
 .bss           0x0000000000437794        0x0 /usr/lib/gcc/i686-w64-mingw32/4.8/../../../../i686-w64-mingw32/lib/../lib/libkernel32.a(dnqfbs01268.o)
 .bss           0x0000000000437794        0x0 /usr/lib/gcc/i686-w64-mingw32/4.8/../../../../i686-w64-mingw32/lib/../lib/libkernel32.a(dnqfbs00577.o)
 .bss           0x0000000000437794        0x0 /usr/lib/gcc/i686-w64-mingw32/4.8/../../../../i686-w64-mingw32/lib/../lib/libkernel32.a(dnqfbs01262.o)
 .bss           0x0000000000437794        0x0 /usr/lib/gcc/i686-w64-mingw32/4.8/../../../../i686-w64-mingw32/lib/../lib/libkernel32.a(dnqfbs00941.o)
 .bss           0x0000000000437794        0x0 /usr/lib/gcc/i686-w64-mingw32/4.8/../../../../i686-w64-mingw32/lib/../lib/libkernel32.a(dnqfbs01065.o)
 .bss           0x0000000000437794        0x0 /usr/lib/gcc/i686-w64-mingw32/4.8/../../../../i686-w64-mingw32/lib/../lib/libkernel32.a(dnqfbs00304.o)
 .bss           0x0000000000437794        0x0 /usr/lib/gcc/i686-w64-mingw32/4.8/../../../../i686-w64-mingw32/lib/../lib/libkernel32.a(dnqfbs00325.o)
 .bss           0x0000000000437794        0x0 /usr/lib/gcc/i686-w64-mingw32/4.8/../../../../i686-w64-mingw32/lib/../lib/libkernel32.a(dnqfbs00308.o)
 .bss           0x0000000000437794        0x0 /usr/lib/gcc/i686-w64-mingw32/4.8/../../../../i686-w64-mingw32/lib/../lib/libkernel32.a(dnqfbs00214.o)
 .bss           0x0000000000437794        0x0 /usr/lib/gcc/i686-w64-mingw32/4.8/../../../../i686-w64-mingw32/lib/../lib/libkernel32.a(dnqfbs00663.o)
 .bss           0x0000000000437794        0x0 /usr/lib/gcc/i686-w64-mingw32/4.8/../../../../i686-w64-mingw32/lib/../lib/libkernel32.a(dnqfbs00531.o)
 .bss           0x0000000000437794        0x0 /usr/lib/gcc/i686-w64-mingw32/4.8/../../../../i686-w64-mingw32/lib/../lib/libkernel32.a(dnqfbs00497.o)
 .bss           0x0000000000437794        0x0 /usr/lib/gcc/i686-w64-mingw32/4.8/../../../../i686-w64-mingw32/lib/../lib/libkernel32.a(dnqfbs00139.o)
 .bss           0x0000000000437794        0x0 /usr/lib/gcc/i686-w64-mingw32/4.8/../../../../i686-w64-mingw32/lib/../lib/libkernel32.a(dnqfbs01052.o)
 .bss           0x0000000000437794        0x0 /usr/lib/gcc/i686-w64-mingw32/4.8/../../../../i686-w64-mingw32/lib/../lib/libkernel32.a(dnqfbs00394.o)
 .bss           0x0000000000437794        0x0 /usr/lib/gcc/i686-w64-mingw32/4.8/../../../../i686-w64-mingw32/lib/../lib/libkernel32.a(dnqfbs00647.o)
 .bss           0x0000000000437794        0x0 /usr/lib/gcc/i686-w64-mingw32/4.8/../../../../i686-w64-mingw32/lib/../lib/libkernel32.a(dnqfbs00689.o)
 .bss           0x0000000000437794        0x0 /usr/lib/gcc/i686-w64-mingw32/4.8/../../../../i686-w64-mingw32/lib/../lib/libkernel32.a(dnqfbs00452.o)
 .bss           0x0000000000437794        0x0 /usr/lib/gcc/i686-w64-mingw32/4.8/../../../../i686-w64-mingw32/lib/../lib/libkernel32.a(dnqfbs00282.o)
 .bss           0x0000000000437794        0x0 /usr/lib/gcc/i686-w64-mingw32/4.8/../../../../i686-w64-mingw32/lib/../lib/libkernel32.a(dnqfbs00114.o)
 .bss           0x0000000000437794        0x0 /usr/lib/gcc/i686-w64-mingw32/4.8/../../../../i686-w64-mingw32/lib/../lib/libkernel32.a(dnqfbs01301.o)
 .bss           0x0000000000437794        0x0 /usr/lib/gcc/i686-w64-mingw32/4.8/../../../../i686-w64-mingw32/lib/../lib/libkernel32.a(dnqfbs00464.o)
 .bss           0x0000000000437794        0x0 /usr/lib/gcc/i686-w64-mingw32/4.8/../../../../i686-w64-mingw32/lib/../lib/libkernel32.a(dnqfbs00809.o)
 .bss           0x0000000000437794        0x0 /usr/lib/gcc/i686-w64-mingw32/4.8/../../../../i686-w64-mingw32/lib/../lib/libkernel32.a(dnqfbs00183.o)
 .bss           0x0000000000437794        0x0 /usr/lib/gcc/i686-w64-mingw32/4.8/../../../../i686-w64-mingw32/lib/../lib/libkernel32.a(dnqfbs00706.o)
 .bss           0x0000000000437794        0x0 /usr/lib/gcc/i686-w64-mingw32/4.8/../../../../i686-w64-mingw32/lib/../lib/libkernel32.a(dnqfbs00714.o)
 .bss           0x0000000000437794        0x0 /usr/lib/gcc/i686-w64-mingw32/4.8/../../../../i686-w64-mingw32/lib/../lib/libkernel32.a(dnqfbs00167.o)
 .bss           0x0000000000437794        0x0 /usr/lib/gcc/i686-w64-mingw32/4.8/../../../../i686-w64-mingw32/lib/../lib/libkernel32.a(dnqfbs01304.o)
 .bss           0x0000000000437794        0x0 /usr/lib/gcc/i686-w64-mingw32/4.8/../../../../i686-w64-mingw32/lib/../lib/libkernel32.a(dnqfbs00645.o)
 .bss           0x0000000000437794        0x0 /usr/lib/gcc/i686-w64-mingw32/4.8/../../../../i686-w64-mingw32/lib/../lib/libkernel32.a(dnqfbs01289.o)
 .bss           0x0000000000437794        0x0 /usr/lib/gcc/i686-w64-mingw32/4.8/../../../../i686-w64-mingw32/lib/../lib/libkernel32.a(dnqfbs00677.o)
 .bss           0x0000000000437794        0x0 /usr/lib/gcc/i686-w64-mingw32/4.8/../../../../i686-w64-mingw32/lib/../lib/libkernel32.a(dnqfbs00625.o)
 .bss           0x0000000000437794        0x0 /usr/lib/gcc/i686-w64-mingw32/4.8/../../../../i686-w64-mingw32/lib/../lib/libkernel32.a(dnqfbs00964.o)
 .bss           0x0000000000437794        0x0 /usr/lib/gcc/i686-w64-mingw32/4.8/../../../../i686-w64-mingw32/lib/../lib/libkernel32.a(dnqfbh.o)
 .bss           0x0000000000437794        0x0 /usr/lib/gcc/i686-w64-mingw32/4.8/../../../../i686-w64-mingw32/lib/../lib/libkernel32.a(dnqfbt.o)
 .bss           0x0000000000437794        0x0 /usr/lib/gcc/i686-w64-mingw32/4.8/../../../../i686-w64-mingw32/lib/../lib/libuser32.a(dbukbs00011.o)
 .bss           0x0000000000437794        0x0 /usr/lib/gcc/i686-w64-mingw32/4.8/../../../../i686-w64-mingw32/lib/../lib/libuser32.a(dbukbs00237.o)
 .bss           0x0000000000437794        0x0 /usr/lib/gcc/i686-w64-mingw32/4.8/../../../../i686-w64-mingw32/lib/../lib/libuser32.a(dbukbs00210.o)
 .bss           0x0000000000437794        0x0 /usr/lib/gcc/i686-w64-mingw32/4.8/../../../../i686-w64-mingw32/lib/../lib/libuser32.a(dbukbs00173.o)
 .bss           0x0000000000437794        0x0 /usr/lib/gcc/i686-w64-mingw32/4.8/../../../../i686-w64-mingw32/lib/../lib/libuser32.a(dbukbs00185.o)
 .bss           0x0000000000437794        0x0 /usr/lib/gcc/i686-w64-mingw32/4.8/../../../../i686-w64-mingw32/lib/../lib/libuser32.a(dbukbs00135.o)
 .bss           0x0000000000437794        0x0 /usr/lib/gcc/i686-w64-mingw32/4.8/../../../../i686-w64-mingw32/lib/../lib/libuser32.a(dbukbs00472.o)
 .bss           0x0000000000437794        0x0 /usr/lib/gcc/i686-w64-mingw32/4.8/../../../../i686-w64-mingw32/lib/../lib/libuser32.a(dbukbs00538.o)
 .bss           0x0000000000437794        0x0 /usr/lib/gcc/i686-w64-mingw32/4.8/../../../../i686-w64-mingw32/lib/../lib/libuser32.a(dbukbs00590.o)
 .bss           0x0000000000437794        0x0 /usr/lib/gcc/i686-w64-mingw32/4.8/../../../../i686-w64-mingw32/lib/../lib/libuser32.a(dbukbs00644.o)
 .bss           0x0000000000437794        0x0 /usr/lib/gcc/i686-w64-mingw32/4.8/../../../../i686-w64-mingw32/lib/../lib/libuser32.a(dbukbs00515.o)
 .bss           0x0000000000437794        0x0 /usr/lib/gcc/i686-w64-mingw32/4.8/../../../../i686-w64-mingw32/lib/../lib/libuser32.a(dbukbs00512.o)
 .bss           0x0000000000437794        0x0 /usr/lib/gcc/i686-w64-mingw32/4.8/../../../../i686-w64-mingw32/lib/../lib/libuser32.a(dbukbs00212.o)
 .bss           0x0000000000437794        0x0 /usr/lib/gcc/i686-w64-mingw32/4.8/../../../../i686-w64-mingw32/lib/../lib/libuser32.a(dbukbs00398.o)
 .bss           0x0000000000437794        0x0 /usr/lib/gcc/i686-w64-mingw32/4.8/../../../../i686-w64-mingw32/lib/../lib/libuser32.a(dbukbs00254.o)
 .bss           0x0000000000437794        0x0 /usr/lib/gcc/i686-w64-mingw32/4.8/../../../../i686-w64-mingw32/lib/../lib/libuser32.a(dbukbs00574.o)
 .bss           0x0000000000437794        0x0 /usr/lib/gcc/i686-w64-mingw32/4.8/../../../../i686-w64-mingw32/lib/../lib/libuser32.a(dbukbs00415.o)
 .bss           0x0000000000437794        0x0 /usr/lib/gcc/i686-w64-mingw32/4.8/../../../../i686-w64-mingw32/lib/../lib/libuser32.a(dbukbs00249.o)
 .bss           0x0000000000437794        0x0 /usr/lib/gcc/i686-w64-mingw32/4.8/../../../../i686-w64-mingw32/lib/../lib/libuser32.a(dbukbs00181.o)
 .bss           0x0000000000437794        0x0 /usr/lib/gcc/i686-w64-mingw32/4.8/../../../../i686-w64-mingw32/lib/../lib/libuser32.a(dbukbs00374.o)
 .bss           0x0000000000437794        0x0 /usr/lib/gcc/i686-w64-mingw32/4.8/../../../../i686-w64-mingw32/lib/../lib/libuser32.a(dbukbs00568.o)
 .bss           0x0000000000437794        0x0 /usr/lib/gcc/i686-w64-mingw32/4.8/../../../../i686-w64-mingw32/lib/../lib/libuser32.a(dbukbs00579.o)
 .bss           0x0000000000437794        0x0 /usr/lib/gcc/i686-w64-mingw32/4.8/../../../../i686-w64-mingw32/lib/../lib/libuser32.a(dbukbs00145.o)
 .bss           0x0000000000437794        0x0 /usr/lib/gcc/i686-w64-mingw32/4.8/../../../../i686-w64-mingw32/lib/../lib/libuser32.a(dbukbs00081.o)
 .bss           0x0000000000437794        0x0 /usr/lib/gcc/i686-w64-mingw32/4.8/../../../../i686-w64-mingw32/lib/../lib/libuser32.a(dbukbs00039.o)
 .bss           0x0000000000437794        0x0 /usr/lib/gcc/i686-w64-mingw32/4.8/../../../../i686-w64-mingw32/lib/../lib/libuser32.a(dbukbs00209.o)
 .bss           0x0000000000437794        0x0 /usr/lib/gcc/i686-w64-mingw32/4.8/../../../../i686-w64-mingw32/lib/../lib/libuser32.a(dbukbs00346.o)
 .bss           0x0000000000437794        0x0 /usr/lib/gcc/i686-w64-mingw32/4.8/../../../../i686-w64-mingw32/lib/../lib/libuser32.a(dbukbs00327.o)
 .bss           0x0000000000437794        0x0 /usr/lib/gcc/i686-w64-mingw32/4.8/../../../../i686-w64-mingw32/lib/../lib/libuser32.a(dbukbs00524.o)
 .bss           0x0000000000437794        0x0 /usr/lib/gcc/i686-w64-mingw32/4.8/../../../../i686-w64-mingw32/lib/../lib/libuser32.a(dbukbs00329.o)
 .bss           0x0000000000437794        0x0 /usr/lib/gcc/i686-w64-mingw32/4.8/../../../../i686-w64-mingw32/lib/../lib/libuser32.a(dbukbs00179.o)
 .bss           0x0000000000437794        0x0 /usr/lib/gcc/i686-w64-mingw32/4.8/../../../../i686-w64-mingw32/lib/../lib/libuser32.a(dbukbs00183.o)
 .bss           0x0000000000437794        0x0 /usr/lib/gcc/i686-w64-mingw32/4.8/../../../../i686-w64-mingw32/lib/../lib/libuser32.a(dbukbs00352.o)
 .bss           0x0000000000437794        0x0 /usr/lib/gcc/i686-w64-mingw32/4.8/../../../../i686-w64-mingw32/lib/../lib/libuser32.a(dbukbs00504.o)
 .bss           0x0000000000437794        0x0 /usr/lib/gcc/i686-w64-mingw32/4.8/../../../../i686-w64-mingw32/lib/../lib/libuser32.a(dbukbs00577.o)
 .bss           0x0000000000437794        0x0 /usr/lib/gcc/i686-w64-mingw32/4.8/../../../../i686-w64-mingw32/lib/../lib/libuser32.a(dbukbs00399.o)
 .bss           0x0000000000437794        0x0 /usr/lib/gcc/i686-w64-mingw32/4.8/../../../../i686-w64-mingw32/lib/../lib/libuser32.a(dbukbs00053.o)
 .bss           0x0000000000437794        0x0 /usr/lib/gcc/i686-w64-mingw32/4.8/../../../../i686-w64-mingw32/lib/../lib/libuser32.a(dbukbs00409.o)
 .bss           0x0000000000437794        0x0 /usr/lib/gcc/i686-w64-mingw32/4.8/../../../../i686-w64-mingw32/lib/../lib/libuser32.a(dbukbs00529.o)
 .bss           0x0000000000437794        0x0 /usr/lib/gcc/i686-w64-mingw32/4.8/../../../../i686-w64-mingw32/lib/../lib/libuser32.a(dbukbs00390.o)
 .bss           0x0000000000437794        0x0 /usr/lib/gcc/i686-w64-mingw32/4.8/../../../../i686-w64-mingw32/lib/../lib/libuser32.a(dbukbs00224.o)
 .bss           0x0000000000437794        0x0 /usr/lib/gcc/i686-w64-mingw32/4.8/../../../../i686-w64-mingw32/lib/../lib/libuser32.a(dbukbs00483.o)
 .bss           0x0000000000437794        0x0 /usr/lib/gcc/i686-w64-mingw32/4.8/../../../../i686-w64-mingw32/lib/../lib/libuser32.a(dbukbs00596.o)
 .bss           0x0000000000437794        0x0 /usr/lib/gcc/i686-w64-mingw32/4.8/../../../../i686-w64-mingw32/lib/../lib/libuser32.a(dbukbs00091.o)
 .bss           0x0000000000437794        0x0 /usr/lib/gcc/i686-w64-mingw32/4.8/../../../../i686-w64-mingw32/lib/../lib/libuser32.a(dbukbs00228.o)
 .bss           0x0000000000437794        0x0 /usr/lib/gcc/i686-w64-mingw32/4.8/../../../../i686-w64-mingw32/lib/../lib/libuser32.a(dbukbs00148.o)
 .bss           0x0000000000437794        0x0 /usr/lib/gcc/i686-w64-mingw32/4.8/../../../../i686-w64-mingw32/lib/../lib/libuser32.a(dbukbs00299.o)
 .bss           0x0000000000437794        0x0 /usr/lib/gcc/i686-w64-mingw32/4.8/../../../../i686-w64-mingw32/lib/../lib/libuser32.a(dbukbs00407.o)
 .bss           0x0000000000437794        0x0 /usr/lib/gcc/i686-w64-mingw32/4.8/../../../../i686-w64-mingw32/lib/../lib/libuser32.a(dbukbs00401.o)
 .bss           0x0000000000437794        0x0 /usr/lib/gcc/i686-w64-mingw32/4.8/../../../../i686-w64-mingw32/lib/../lib/libuser32.a(dbukbs00024.o)
 .bss           0x0000000000437794        0x0 /usr/lib/gcc/i686-w64-mingw32/4.8/../../../../i686-w64-mingw32/lib/../lib/libuser32.a(dbukbs00330.o)
 .bss           0x0000000000437794        0x0 /usr/lib/gcc/i686-w64-mingw32/4.8/../../../../i686-w64-mingw32/lib/../lib/libuser32.a(dbukbs00090.o)
 .bss           0x0000000000437794        0x0 /usr/lib/gcc/i686-w64-mingw32/4.8/../../../../i686-w64-mingw32/lib/../lib/libuser32.a(dbukbs00006.o)
 .bss           0x0000000000437794        0x0 /usr/lib/gcc/i686-w64-mingw32/4.8/../../../../i686-w64-mingw32/lib/../lib/libuser32.a(dbukbs00607.o)
 .bss           0x0000000000437794        0x0 /usr/lib/gcc/i686-w64-mingw32/4.8/../../../../i686-w64-mingw32/lib/../lib/libuser32.a(dbukbs00459.o)
 .bss           0x0000000000437794        0x0 /usr/lib/gcc/i686-w64-mingw32/4.8/../../../../i686-w64-mingw32/lib/../lib/libuser32.a(dbukbs00178.o)
 .bss           0x0000000000437794        0x0 /usr/lib/gcc/i686-w64-mingw32/4.8/../../../../i686-w64-mingw32/lib/../lib/libuser32.a(dbukbs00527.o)
 .bss           0x0000000000437794        0x0 /usr/lib/gcc/i686-w64-mingw32/4.8/../../../../i686-w64-mingw32/lib/../lib/libuser32.a(dbukbs00061.o)
 .bss           0x0000000000437794        0x0 /usr/lib/gcc/i686-w64-mingw32/4.8/../../../../i686-w64-mingw32/lib/../lib/libuser32.a(dbukbs00534.o)
 .bss           0x0000000000437794        0x0 /usr/lib/gcc/i686-w64-mingw32/4.8/../../../../i686-w64-mingw32/lib/../lib/libuser32.a(dbukbs00256.o)
 .bss           0x0000000000437794        0x0 /usr/lib/gcc/i686-w64-mingw32/4.8/../../../../i686-w64-mingw32/lib/../lib/libuser32.a(dbukbs00441.o)
 .bss           0x0000000000437794        0x0 /usr/lib/gcc/i686-w64-mingw32/4.8/../../../../i686-w64-mingw32/lib/../lib/libuser32.a(dbukbs00042.o)
 .bss           0x0000000000437794        0x0 /usr/lib/gcc/i686-w64-mingw32/4.8/../../../../i686-w64-mingw32/lib/../lib/libuser32.a(dbukbs00646.o)
 .bss           0x0000000000437794        0x0 /usr/lib/gcc/i686-w64-mingw32/4.8/../../../../i686-w64-mingw32/lib/../lib/libuser32.a(dbukbs00468.o)
 .bss           0x0000000000437794        0x0 /usr/lib/gcc/i686-w64-mingw32/4.8/../../../../i686-w64-mingw32/lib/../lib/libuser32.a(dbukbs00150.o)
 .bss           0x0000000000437794        0x0 /usr/lib/gcc/i686-w64-mingw32/4.8/../../../../i686-w64-mingw32/lib/../lib/libuser32.a(dbukbh.o)
 .bss           0x0000000000437794        0x0 /usr/lib/gcc/i686-w64-mingw32/4.8/../../../../i686-w64-mingw32/lib/../lib/libuser32.a(dbukbt.o)
 .bss           0x0000000000437794        0x0 /usr/lib/gcc/i686-w64-mingw32/4.8/../../../../i686-w64-mingw32/lib/../lib/libgdi32.a(dtfkbs00030.o)
 .bss           0x0000000000437794        0x0 /usr/lib/gcc/i686-w64-mingw32/4.8/../../../../i686-w64-mingw32/lib/../lib/libgdi32.a(dtfkbs00075.o)
 .bss           0x0000000000437794        0x0 /usr/lib/gcc/i686-w64-mingw32/4.8/../../../../i686-w64-mingw32/lib/../lib/libgdi32.a(dtfkbs00047.o)
 .bss           0x0000000000437794        0x0 /usr/lib/gcc/i686-w64-mingw32/4.8/../../../../i686-w64-mingw32/lib/../lib/libgdi32.a(dtfkbs00312.o)
 .bss           0x0000000000437794        0x0 /usr/lib/gcc/i686-w64-mingw32/4.8/../../../../i686-w64-mingw32/lib/../lib/libgdi32.a(dtfkbs00348.o)
 .bss           0x0000000000437794        0x0 /usr/lib/gcc/i686-w64-mingw32/4.8/../../../../i686-w64-mingw32/lib/../lib/libgdi32.a(dtfkbs00305.o)
 .bss           0x0000000000437794        0x0 /usr/lib/gcc/i686-w64-mingw32/4.8/../../../../i686-w64-mingw32/lib/../lib/libgdi32.a(dtfkbs00168.o)
 .bss           0x0000000000437794        0x0 /usr/lib/gcc/i686-w64-mingw32/4.8/../../../../i686-w64-mingw32/lib/../lib/libgdi32.a(dtfkbs00311.o)
 .bss           0x0000000000437794        0x0 /usr/lib/gcc/i686-w64-mingw32/4.8/../../../../i686-w64-mingw32/lib/../lib/libgdi32.a(dtfkbh.o)
 .bss           0x0000000000437794        0x0 /usr/lib/gcc/i686-w64-mingw32/4.8/../../../../i686-w64-mingw32/lib/../lib/libgdi32.a(dtfkbt.o)
 .bss           0x0000000000437794        0x0 /usr/lib/gcc/i686-w64-mingw32/4.8/../../../../i686-w64-mingw32/lib/../lib/libshell32.a(dyxfbs00148.o)
 .bss           0x0000000000437794        0x0 /usr/lib/gcc/i686-w64-mingw32/4.8/../../../../i686-w64-mingw32/lib/../lib/libshell32.a(lib32_libshell32_a-shell32.o)
 .bss           0x0000000000437794        0x0 /usr/lib/gcc/i686-w64-mingw32/4.8/../../../../i686-w64-mingw32/lib/../lib/libshell32.a(dyxfbs00077.o)
 .bss           0x0000000000437794        0x0 /usr/lib/gcc/i686-w64-mingw32/4.8/../../../../i686-w64-mingw32/lib/../lib/libshell32.a(dyxfbs00088.o)
 .bss           0x0000000000437794        0x0 /usr/lib/gcc/i686-w64-mingw32/4.8/../../../../i686-w64-mingw32/lib/../lib/libshell32.a(dyxfbs00104.o)
 .bss           0x0000000000437794        0x0 /usr/lib/gcc/i686-w64-mingw32/4.8/../../../../i686-w64-mingw32/lib/../lib/libshell32.a(dyxfbs00063.o)
 .bss           0x0000000000437794        0x0 /usr/lib/gcc/i686-w64-mingw32/4.8/../../../../i686-w64-mingw32/lib/../lib/libshell32.a(dyxfbs00108.o)
 .bss           0x0000000000437794        0x0 /usr/lib/gcc/i686-w64-mingw32/4.8/../../../../i686-w64-mingw32/lib/../lib/libshell32.a(dyxfbh.o)
 .bss           0x0000000000437794        0x0 /usr/lib/gcc/i686-w64-mingw32/4.8/../../../../i686-w64-mingw32/lib/../lib/libshell32.a(dyxfbt.o)
 .bss           0x0000000000437794        0x0 /usr/lib/gcc/i686-w64-mingw32/4.8/../../../../i686-w64-mingw32/lib/../lib/libadvapi32.a(drrjbs00616.o)
 .bss           0x0000000000437794        0x0 /usr/lib/gcc/i686-w64-mingw32/4.8/../../../../i686-w64-mingw32/lib/../lib/libadvapi32.a(drrjbs00597.o)
 .bss           0x0000000000437794        0x0 /usr/lib/gcc/i686-w64-mingw32/4.8/../../../../i686-w64-mingw32/lib/../lib/libadvapi32.a(drrjbs00568.o)
 .bss           0x0000000000437794        0x0 /usr/lib/gcc/i686-w64-mingw32/4.8/../../../../i686-w64-mingw32/lib/../lib/libadvapi32.a(drrjbs00581.o)
 .bss           0x0000000000437794        0x0 /usr/lib/gcc/i686-w64-mingw32/4.8/../../../../i686-w64-mingw32/lib/../lib/libadvapi32.a(drrjbs00591.o)
 .bss           0x0000000000437794        0x0 /usr/lib/gcc/i686-w64-mingw32/4.8/../../../../i686-w64-mingw32/lib/../lib/libadvapi32.a(drrjbs00576.o)
 .bss           0x0000000000437794        0x0 /usr/lib/gcc/i686-w64-mingw32/4.8/../../../../i686-w64-mingw32/lib/../lib/libadvapi32.a(drrjbs00645.o)
 .bss           0x0000000000437794        0x0 /usr/lib/gcc/i686-w64-mingw32/4.8/../../../../i686-w64-mingw32/lib/../lib/libadvapi32.a(drrjbs00629.o)
 .bss           0x0000000000437794        0x0 /usr/lib/gcc/i686-w64-mingw32/4.8/../../../../i686-w64-mingw32/lib/../lib/libadvapi32.a(drrjbs00601.o)
 .bss           0x0000000000437794        0x0 /usr/lib/gcc/i686-w64-mingw32/4.8/../../../../i686-w64-mingw32/lib/../lib/libadvapi32.a(drrjbh.o)
 .bss           0x0000000000437794        0x0 /usr/lib/gcc/i686-w64-mingw32/4.8/../../../../i686-w64-mingw32/lib/../lib/libadvapi32.a(drrjbt.o)
 .bss           0x0000000000437794        0x0 /usr/lib/gcc/i686-w64-mingw32/4.8/../../../../i686-w64-mingw32/lib/../lib/libcomctl32.a(dwtjbs00094.o)
 .bss           0x0000000000437794        0x0 /usr/lib/gcc/i686-w64-mingw32/4.8/../../../../i686-w64-mingw32/lib/../lib/libcomctl32.a(dwtjbs00062.o)
 .bss           0x0000000000437794        0x0 /usr/lib/gcc/i686-w64-mingw32/4.8/../../../../i686-w64-mingw32/lib/../lib/libcomctl32.a(dwtjbs00059.o)
 .bss           0x0000000000437794        0x0 /usr/lib/gcc/i686-w64-mingw32/4.8/../../../../i686-w64-mingw32/lib/../lib/libcomctl32.a(dwtjbs00063.o)
 .bss           0x0000000000437794        0x0 /usr/lib/gcc/i686-w64-mingw32/4.8/../../../../i686-w64-mingw32/lib/../lib/libcomctl32.a(dwtjbh.o)
 .bss           0x0000000000437794        0x0 /usr/lib/gcc/i686-w64-mingw32/4.8/../../../../i686-w64-mingw32/lib/../lib/libcomctl32.a(dwtjbt.o)
 .bss           0x0000000000437794        0x0 /usr/lib/gcc/i686-w64-mingw32/4.8/../../../../i686-w64-mingw32/lib/../lib/libole32.a(dxmkbs00016.o)
 .bss           0x0000000000437794        0x0 /usr/lib/gcc/i686-w64-mingw32/4.8/../../../../i686-w64-mingw32/lib/../lib/libole32.a(dxmkbs00248.o)
 .bss           0x0000000000437794        0x0 /usr/lib/gcc/i686-w64-mingw32/4.8/../../../../i686-w64-mingw32/lib/../lib/libole32.a(dxmkbs00271.o)
 .bss           0x0000000000437794        0x0 /usr/lib/gcc/i686-w64-mingw32/4.8/../../../../i686-w64-mingw32/lib/../lib/libole32.a(dxmkbs00106.o)
 .bss           0x0000000000437794        0x0 /usr/lib/gcc/i686-w64-mingw32/4.8/../../../../i686-w64-mingw32/lib/../lib/libole32.a(dxmkbh.o)
 .bss           0x0000000000437794        0x0 /usr/lib/gcc/i686-w64-mingw32/4.8/../../../../i686-w64-mingw32/lib/../lib/libole32.a(dxmkbt.o)
 .bss           0x0000000000437794        0x0 /usr/lib/gcc/i686-w64-mingw32/4.8/../../../../i686-w64-mingw32/lib/../lib/libversion.a(dqukbs00001.o)
 .bss           0x0000000000437794        0x0 /usr/lib/gcc/i686-w64-mingw32/4.8/../../../../i686-w64-mingw32/lib/../lib/libversion.a(dqukbs00000.o)
 .bss           0x0000000000437794        0x0 /usr/lib/gcc/i686-w64-mingw32/4.8/../../../../i686-w64-mingw32/lib/../lib/libversion.a(dqukbs00010.o)
 .bss           0x0000000000437794        0x0 /usr/lib/gcc/i686-w64-mingw32/4.8/../../../../i686-w64-mingw32/lib/../lib/libversion.a(dqukbh.o)
 .bss           0x0000000000437794        0x0 /usr/lib/gcc/i686-w64-mingw32/4.8/../../../../i686-w64-mingw32/lib/../lib/libversion.a(dqukbt.o)
 .bss           0x0000000000437794        0x0 /usr/lib/gcc/i686-w64-mingw32/4.8/../../../../i686-w64-mingw32/lib/../lib/libuuid.a(lib32_libuuid_a-uuid.o)
 *(COMMON)
 COMMON         0x0000000000437794       0x78 build/release/stub_zlib_solid/exec.o
                0x0000000000437794                g_exec_flags_last_used
                0x00000000004377cc                g_exec_flags
                0x0000000000437804                g_hres
                0x0000000000437808                g_SectionHack
 COMMON         0x000000000043780c       0x54 build/release/stub_zlib_solid/fileform.o
                0x000000000043780c                g_header
                0x0000000000437810                g_blocks
                0x0000000000437850                verify_time
                0x0000000000437854                g_flags
                0x0000000000437858                g_is_uninstaller
                0x000000000043785c                g_filehdrsize
 COMMON         0x0000000000437860      0x80c build/release/stub_zlib_solid/Main.o
                0x0000000000437860                g_SHGetFolderPath
                0x0000000000437864                g_hwnd
                0x0000000000437868                g_hInstance
                0x000000000043786c                g_caption
 COMMON         0x000000000043806c       0x28 build/release/stub_zlib_solid/Ui.o
                0x000000000043806c                g_quit_flag
                0x0000000000438070                insthwndbutton
                0x0000000000438074                insthwnd
                0x0000000000438078                progress_bar_pos
                0x000000000043807c                g_hIcon
                0x0000000000438080                progress_bar_len
                0x0000000000438084                m_curwnd
                0x0000000000438088                dlg_offset
                0x000000000043808c                insthwnd2
                0x0000000000438090                cur_langtable
 COMMON         0x0000000000438094     0x1404 build/release/stub_zlib_solid/util.o
                0x0000000000438094                log_text
                0x0000000000438894                g_log_file
                0x0000000000438c94                ps_tmpbuf
                0x0000000000439494                log_dolog
                0x0000000000439498                __bss_end__ = .

.edata
 *(.edata)

/DISCARD/
 *(.debug$S)
 *(.debug$T)
 *(.debug$F)
 *(.drectve)

.idata          0x000000000043a000     0x1400
 SORT(*)(.idata$2)
 .idata$2       0x000000000043a000       0x14 /usr/lib/gcc/i686-w64-mingw32/4.8/../../../../i686-w64-mingw32/lib/../lib/libadvapi32.a(drrjbh.o)
                0x000000000043a000                _head_lib32_libadvapi32_a
 .idata$2       0x000000000043a014       0x14 /usr/lib/gcc/i686-w64-mingw32/4.8/../../../../i686-w64-mingw32/lib/../lib/libcomctl32.a(dwtjbh.o)
                0x000000000043a014                _head_lib32_libcomctl32_a
 .idata$2       0x000000000043a028       0x14 /usr/lib/gcc/i686-w64-mingw32/4.8/../../../../i686-w64-mingw32/lib/../lib/libgdi32.a(dtfkbh.o)
                0x000000000043a028                _head_lib32_libgdi32_a
 .idata$2       0x000000000043a03c       0x14 /usr/lib/gcc/i686-w64-mingw32/4.8/../../../../i686-w64-mingw32/lib/../lib/libkernel32.a(dnqfbh.o)
                0x000000000043a03c                _head_lib32_libkernel32_a
 .idata$2       0x000000000043a050       0x14 /usr/lib/gcc/i686-w64-mingw32/4.8/../../../../i686-w64-mingw32/lib/../lib/libole32.a(dxmkbh.o)
                0x000000000043a050                _head_lib32_libole32_a
 .idata$2       0x000000000043a064       0x14 /usr/lib/gcc/i686-w64-mingw32/4.8/../../../../i686-w64-mingw32/lib/../lib/libshell32.a(dyxfbh.o)
                0x000000000043a064                _head_lib32_libshell32_a
 .idata$2       0x000000000043a078       0x14 /usr/lib/gcc/i686-w64-mingw32/4.8/../../../../i686-w64-mingw32/lib/../lib/libuser32.a(dbukbh.o)
                0x000000000043a078                _head_lib32_libuser32_a
 .idata$2       0x000000000043a08c       0x14 /usr/lib/gcc/i686-w64-mingw32/4.8/../../../../i686-w64-mingw32/lib/../lib/libversion.a(dqukbh.o)
                0x000000000043a08c                _head_lib32_libversion_a
 SORT(*)(.idata$3)
                0x000000000043a0a0        0x4 LONG 0x0
                0x000000000043a0a4        0x4 LONG 0x0
                0x000000000043a0a8        0x4 LONG 0x0
                0x000000000043a0ac        0x4 LONG 0x0
                0x000000000043a0b0        0x4 LONG 0x0
 SORT(*)(.idata$4)
 .idata$4       0x000000000043a0b4        0x0 /usr/lib/gcc/i686-w64-mingw32/4.8/../../../../i686-w64-mingw32/lib/../lib/libadvapi32.a(drrjbh.o)
 .idata$4       0x000000000043a0b4        0x4 /usr/lib/gcc/i686-w64-mingw32/4.8/../../../../i686-w64-mingw32/lib/../lib/libadvapi32.a(drrjbs00568.o)
 .idata$4       0x000000000043a0b8        0x4 /usr/lib/gcc/i686-w64-mingw32/4.8/../../../../i686-w64-mingw32/lib/../lib/libadvapi32.a(drrjbs00576.o)
 .idata$4       0x000000000043a0bc        0x4 /usr/lib/gcc/i686-w64-mingw32/4.8/../../../../i686-w64-mingw32/lib/../lib/libadvapi32.a(drrjbs00581.o)
 .idata$4       0x000000000043a0c0        0x4 /usr/lib/gcc/i686-w64-mingw32/4.8/../../../../i686-w64-mingw32/lib/../lib/libadvapi32.a(drrjbs00591.o)
 .idata$4       0x000000000043a0c4        0x4 /usr/lib/gcc/i686-w64-mingw32/4.8/../../../../i686-w64-mingw32/lib/../lib/libadvapi32.a(drrjbs00597.o)
 .idata$4       0x000000000043a0c8        0x4 /usr/lib/gcc/i686-w64-mingw32/4.8/../../../../i686-w64-mingw32/lib/../lib/libadvapi32.a(drrjbs00601.o)
 .idata$4       0x000000000043a0cc        0x4 /usr/lib/gcc/i686-w64-mingw32/4.8/../../../../i686-w64-mingw32/lib/../lib/libadvapi32.a(drrjbs00616.o)
 .idata$4       0x000000000043a0d0        0x4 /usr/lib/gcc/i686-w64-mingw32/4.8/../../../../i686-w64-mingw32/lib/../lib/libadvapi32.a(drrjbs00629.o)
 .idata$4       0x000000000043a0d4        0x4 /usr/lib/gcc/i686-w64-mingw32/4.8/../../../../i686-w64-mingw32/lib/../lib/libadvapi32.a(drrjbs00645.o)
 .idata$4       0x000000000043a0d8        0x4 /usr/lib/gcc/i686-w64-mingw32/4.8/../../../../i686-w64-mingw32/lib/../lib/libadvapi32.a(drrjbt.o)
 .idata$4       0x000000000043a0dc        0x0 /usr/lib/gcc/i686-w64-mingw32/4.8/../../../../i686-w64-mingw32/lib/../lib/libcomctl32.a(dwtjbh.o)
 .idata$4       0x000000000043a0dc        0x4 /usr/lib/gcc/i686-w64-mingw32/4.8/../../../../i686-w64-mingw32/lib/../lib/libcomctl32.a(dwtjbs00059.o)
 .idata$4       0x000000000043a0e0        0x4 /usr/lib/gcc/i686-w64-mingw32/4.8/../../../../i686-w64-mingw32/lib/../lib/libcomctl32.a(dwtjbs00062.o)
 .idata$4       0x000000000043a0e4        0x4 /usr/lib/gcc/i686-w64-mingw32/4.8/../../../../i686-w64-mingw32/lib/../lib/libcomctl32.a(dwtjbs00063.o)
 .idata$4       0x000000000043a0e8        0x4 /usr/lib/gcc/i686-w64-mingw32/4.8/../../../../i686-w64-mingw32/lib/../lib/libcomctl32.a(dwtjbs00094.o)
 .idata$4       0x000000000043a0ec        0x4 /usr/lib/gcc/i686-w64-mingw32/4.8/../../../../i686-w64-mingw32/lib/../lib/libcomctl32.a(dwtjbt.o)
 .idata$4       0x000000000043a0f0        0x0 /usr/lib/gcc/i686-w64-mingw32/4.8/../../../../i686-w64-mingw32/lib/../lib/libgdi32.a(dtfkbh.o)
 .idata$4       0x000000000043a0f0        0x4 /usr/lib/gcc/i686-w64-mingw32/4.8/../../../../i686-w64-mingw32/lib/../lib/libgdi32.a(dtfkbs00030.o)
 .idata$4       0x000000000043a0f4        0x4 /usr/lib/gcc/i686-w64-mingw32/4.8/../../../../i686-w64-mingw32/lib/../lib/libgdi32.a(dtfkbs00047.o)
 .idata$4       0x000000000043a0f8        0x4 /usr/lib/gcc/i686-w64-mingw32/4.8/../../../../i686-w64-mingw32/lib/../lib/libgdi32.a(dtfkbs00075.o)
 .idata$4       0x000000000043a0fc        0x4 /usr/lib/gcc/i686-w64-mingw32/4.8/../../../../i686-w64-mingw32/lib/../lib/libgdi32.a(dtfkbs00168.o)
 .idata$4       0x000000000043a100        0x4 /usr/lib/gcc/i686-w64-mingw32/4.8/../../../../i686-w64-mingw32/lib/../lib/libgdi32.a(dtfkbs00305.o)
 .idata$4       0x000000000043a104        0x4 /usr/lib/gcc/i686-w64-mingw32/4.8/../../../../i686-w64-mingw32/lib/../lib/libgdi32.a(dtfkbs00311.o)
 .idata$4       0x000000000043a108        0x4 /usr/lib/gcc/i686-w64-mingw32/4.8/../../../../i686-w64-mingw32/lib/../lib/libgdi32.a(dtfkbs00312.o)
 .idata$4       0x000000000043a10c        0x4 /usr/lib/gcc/i686-w64-mingw32/4.8/../../../../i686-w64-mingw32/lib/../lib/libgdi32.a(dtfkbs00348.o)
 .idata$4       0x000000000043a110        0x4 /usr/lib/gcc/i686-w64-mingw32/4.8/../../../../i686-w64-mingw32/lib/../lib/libgdi32.a(dtfkbt.o)
 .idata$4       0x000000000043a114        0x0 /usr/lib/gcc/i686-w64-mingw32/4.8/../../../../i686-w64-mingw32/lib/../lib/libkernel32.a(dnqfbh.o)
 .idata$4       0x000000000043a114        0x4 /usr/lib/gcc/i686-w64-mingw32/4.8/../../../../i686-w64-mingw32/lib/../lib/libkernel32.a(dnqfbs00083.o)
 .idata$4       0x000000000043a118        0x4 /usr/lib/gcc/i686-w64-mingw32/4.8/../../../../i686-w64-mingw32/lib/../lib/libkernel32.a(dnqfbs00097.o)
 .idata$4       0x000000000043a11c        0x4 /usr/lib/gcc/i686-w64-mingw32/4.8/../../../../i686-w64-mingw32/lib/../lib/libkernel32.a(dnqfbs00114.o)
 .idata$4       0x000000000043a120        0x4 /usr/lib/gcc/i686-w64-mingw32/4.8/../../../../i686-w64-mingw32/lib/../lib/libkernel32.a(dnqfbs00126.o)
 .idata$4       0x000000000043a124        0x4 /usr/lib/gcc/i686-w64-mingw32/4.8/../../../../i686-w64-mingw32/lib/../lib/libkernel32.a(dnqfbs00139.o)
 .idata$4       0x000000000043a128        0x4 /usr/lib/gcc/i686-w64-mingw32/4.8/../../../../i686-w64-mingw32/lib/../lib/libkernel32.a(dnqfbs00167.o)
 .idata$4       0x000000000043a12c        0x4 /usr/lib/gcc/i686-w64-mingw32/4.8/../../../../i686-w64-mingw32/lib/../lib/libkernel32.a(dnqfbs00183.o)
 .idata$4       0x000000000043a130        0x4 /usr/lib/gcc/i686-w64-mingw32/4.8/../../../../i686-w64-mingw32/lib/../lib/libkernel32.a(dnqfbs00214.o)
 .idata$4       0x000000000043a134        0x4 /usr/lib/gcc/i686-w64-mingw32/4.8/../../../../i686-w64-mingw32/lib/../lib/libkernel32.a(dnqfbs00282.o)
 .idata$4       0x000000000043a138        0x4 /usr/lib/gcc/i686-w64-mingw32/4.8/../../../../i686-w64-mingw32/lib/../lib/libkernel32.a(dnqfbs00285.o)
 .idata$4       0x000000000043a13c        0x4 /usr/lib/gcc/i686-w64-mingw32/4.8/../../../../i686-w64-mingw32/lib/../lib/libkernel32.a(dnqfbs00304.o)
 .idata$4       0x000000000043a140        0x4 /usr/lib/gcc/i686-w64-mingw32/4.8/../../../../i686-w64-mingw32/lib/../lib/libkernel32.a(dnqfbs00308.o)
 .idata$4       0x000000000043a144        0x4 /usr/lib/gcc/i686-w64-mingw32/4.8/../../../../i686-w64-mingw32/lib/../lib/libkernel32.a(dnqfbs00325.o)
 .idata$4       0x000000000043a148        0x4 /usr/lib/gcc/i686-w64-mingw32/4.8/../../../../i686-w64-mingw32/lib/../lib/libkernel32.a(dnqfbs00356.o)
 .idata$4       0x000000000043a14c        0x4 /usr/lib/gcc/i686-w64-mingw32/4.8/../../../../i686-w64-mingw32/lib/../lib/libkernel32.a(dnqfbs00394.o)
 .idata$4       0x000000000043a150        0x4 /usr/lib/gcc/i686-w64-mingw32/4.8/../../../../i686-w64-mingw32/lib/../lib/libkernel32.a(dnqfbs00452.o)
 .idata$4       0x000000000043a154        0x4 /usr/lib/gcc/i686-w64-mingw32/4.8/../../../../i686-w64-mingw32/lib/../lib/libkernel32.a(dnqfbs00464.o)
 .idata$4       0x000000000043a158        0x4 /usr/lib/gcc/i686-w64-mingw32/4.8/../../../../i686-w64-mingw32/lib/../lib/libkernel32.a(dnqfbs00482.o)
 .idata$4       0x000000000043a15c        0x4 /usr/lib/gcc/i686-w64-mingw32/4.8/../../../../i686-w64-mingw32/lib/../lib/libkernel32.a(dnqfbs00486.o)
 .idata$4       0x000000000043a160        0x4 /usr/lib/gcc/i686-w64-mingw32/4.8/../../../../i686-w64-mingw32/lib/../lib/libkernel32.a(dnqfbs00497.o)
 .idata$4       0x000000000043a164        0x4 /usr/lib/gcc/i686-w64-mingw32/4.8/../../../../i686-w64-mingw32/lib/../lib/libkernel32.a(dnqfbs00505.o)
 .idata$4       0x000000000043a168        0x4 /usr/lib/gcc/i686-w64-mingw32/4.8/../../../../i686-w64-mingw32/lib/../lib/libkernel32.a(dnqfbs00515.o)
 .idata$4       0x000000000043a16c        0x4 /usr/lib/gcc/i686-w64-mingw32/4.8/../../../../i686-w64-mingw32/lib/../lib/libkernel32.a(dnqfbs00531.o)
 .idata$4       0x000000000043a170        0x4 /usr/lib/gcc/i686-w64-mingw32/4.8/../../../../i686-w64-mingw32/lib/../lib/libkernel32.a(dnqfbs00533.o)
 .idata$4       0x000000000043a174        0x4 /usr/lib/gcc/i686-w64-mingw32/4.8/../../../../i686-w64-mingw32/lib/../lib/libkernel32.a(dnqfbs00577.o)
 .idata$4       0x000000000043a178        0x4 /usr/lib/gcc/i686-w64-mingw32/4.8/../../../../i686-w64-mingw32/lib/../lib/libkernel32.a(dnqfbs00581.o)
 .idata$4       0x000000000043a17c        0x4 /usr/lib/gcc/i686-w64-mingw32/4.8/../../../../i686-w64-mingw32/lib/../lib/libkernel32.a(dnqfbs00610.o)
 .idata$4       0x000000000043a180        0x4 /usr/lib/gcc/i686-w64-mingw32/4.8/../../../../i686-w64-mingw32/lib/../lib/libkernel32.a(dnqfbs00625.o)
 .idata$4       0x000000000043a184        0x4 /usr/lib/gcc/i686-w64-mingw32/4.8/../../../../i686-w64-mingw32/lib/../lib/libkernel32.a(dnqfbs00645.o)
 .idata$4       0x000000000043a188        0x4 /usr/lib/gcc/i686-w64-mingw32/4.8/../../../../i686-w64-mingw32/lib/../lib/libkernel32.a(dnqfbs00647.o)
 .idata$4       0x000000000043a18c        0x4 /usr/lib/gcc/i686-w64-mingw32/4.8/../../../../i686-w64-mingw32/lib/../lib/libkernel32.a(dnqfbs00663.o)
 .idata$4       0x000000000043a190        0x4 /usr/lib/gcc/i686-w64-mingw32/4.8/../../../../i686-w64-mingw32/lib/../lib/libkernel32.a(dnqfbs00677.o)
 .idata$4       0x000000000043a194        0x4 /usr/lib/gcc/i686-w64-mingw32/4.8/../../../../i686-w64-mingw32/lib/../lib/libkernel32.a(dnqfbs00689.o)
 .idata$4       0x000000000043a198        0x4 /usr/lib/gcc/i686-w64-mingw32/4.8/../../../../i686-w64-mingw32/lib/../lib/libkernel32.a(dnqfbs00695.o)
 .idata$4       0x000000000043a19c        0x4 /usr/lib/gcc/i686-w64-mingw32/4.8/../../../../i686-w64-mingw32/lib/../lib/libkernel32.a(dnqfbs00702.o)
 .idata$4       0x000000000043a1a0        0x4 /usr/lib/gcc/i686-w64-mingw32/4.8/../../../../i686-w64-mingw32/lib/../lib/libkernel32.a(dnqfbs00706.o)
 .idata$4       0x000000000043a1a4        0x4 /usr/lib/gcc/i686-w64-mingw32/4.8/../../../../i686-w64-mingw32/lib/../lib/libkernel32.a(dnqfbs00714.o)
 .idata$4       0x000000000043a1a8        0x4 /usr/lib/gcc/i686-w64-mingw32/4.8/../../../../i686-w64-mingw32/lib/../lib/libkernel32.a(dnqfbs00809.o)
 .idata$4       0x000000000043a1ac        0x4 /usr/lib/gcc/i686-w64-mingw32/4.8/../../../../i686-w64-mingw32/lib/../lib/libkernel32.a(dnqfbs00810.o)
 .idata$4       0x000000000043a1b0        0x4 /usr/lib/gcc/i686-w64-mingw32/4.8/../../../../i686-w64-mingw32/lib/../lib/libkernel32.a(dnqfbs00844.o)
 .idata$4       0x000000000043a1b4        0x4 /usr/lib/gcc/i686-w64-mingw32/4.8/../../../../i686-w64-mingw32/lib/../lib/libkernel32.a(dnqfbs00852.o)
 .idata$4       0x000000000043a1b8        0x4 /usr/lib/gcc/i686-w64-mingw32/4.8/../../../../i686-w64-mingw32/lib/../lib/libkernel32.a(dnqfbs00853.o)
 .idata$4       0x000000000043a1bc        0x4 /usr/lib/gcc/i686-w64-mingw32/4.8/../../../../i686-w64-mingw32/lib/../lib/libkernel32.a(dnqfbs00941.o)
 .idata$4       0x000000000043a1c0        0x4 /usr/lib/gcc/i686-w64-mingw32/4.8/../../../../i686-w64-mingw32/lib/../lib/libkernel32.a(dnqfbs00964.o)
 .idata$4       0x000000000043a1c4        0x4 /usr/lib/gcc/i686-w64-mingw32/4.8/../../../../i686-w64-mingw32/lib/../lib/libkernel32.a(dnqfbs00991.o)
 .idata$4       0x000000000043a1c8        0x4 /usr/lib/gcc/i686-w64-mingw32/4.8/../../../../i686-w64-mingw32/lib/../lib/libkernel32.a(dnqfbs01040.o)
 .idata$4       0x000000000043a1cc        0x4 /usr/lib/gcc/i686-w64-mingw32/4.8/../../../../i686-w64-mingw32/lib/../lib/libkernel32.a(dnqfbs01052.o)
 .idata$4       0x000000000043a1d0        0x4 /usr/lib/gcc/i686-w64-mingw32/4.8/../../../../i686-w64-mingw32/lib/../lib/libkernel32.a(dnqfbs01057.o)
 .idata$4       0x000000000043a1d4        0x4 /usr/lib/gcc/i686-w64-mingw32/4.8/../../../../i686-w64-mingw32/lib/../lib/libkernel32.a(dnqfbs01065.o)
 .idata$4       0x000000000043a1d8        0x4 /usr/lib/gcc/i686-w64-mingw32/4.8/../../../../i686-w64-mingw32/lib/../lib/libkernel32.a(dnqfbs01069.o)
 .idata$4       0x000000000043a1dc        0x4 /usr/lib/gcc/i686-w64-mingw32/4.8/../../../../i686-w64-mingw32/lib/../lib/libkernel32.a(dnqfbs01140.o)
 .idata$4       0x000000000043a1e0        0x4 /usr/lib/gcc/i686-w64-mingw32/4.8/../../../../i686-w64-mingw32/lib/../lib/libkernel32.a(dnqfbs01218.o)
 .idata$4       0x000000000043a1e4        0x4 /usr/lib/gcc/i686-w64-mingw32/4.8/../../../../i686-w64-mingw32/lib/../lib/libkernel32.a(dnqfbs01262.o)
 .idata$4       0x000000000043a1e8        0x4 /usr/lib/gcc/i686-w64-mingw32/4.8/../../../../i686-w64-mingw32/lib/../lib/libkernel32.a(dnqfbs01268.o)
 .idata$4       0x000000000043a1ec        0x4 /usr/lib/gcc/i686-w64-mingw32/4.8/../../../../i686-w64-mingw32/lib/../lib/libkernel32.a(dnqfbs01289.o)
 .idata$4       0x000000000043a1f0        0x4 /usr/lib/gcc/i686-w64-mingw32/4.8/../../../../i686-w64-mingw32/lib/../lib/libkernel32.a(dnqfbs01292.o)
 .idata$4       0x000000000043a1f4        0x4 /usr/lib/gcc/i686-w64-mingw32/4.8/../../../../i686-w64-mingw32/lib/../lib/libkernel32.a(dnqfbs01295.o)
 .idata$4       0x000000000043a1f8        0x4 /usr/lib/gcc/i686-w64-mingw32/4.8/../../../../i686-w64-mingw32/lib/../lib/libkernel32.a(dnqfbs01301.o)
 .idata$4       0x000000000043a1fc        0x4 /usr/lib/gcc/i686-w64-mingw32/4.8/../../../../i686-w64-mingw32/lib/../lib/libkernel32.a(dnqfbs01304.o)
 .idata$4       0x000000000043a200        0x4 /usr/lib/gcc/i686-w64-mingw32/4.8/../../../../i686-w64-mingw32/lib/../lib/libkernel32.a(dnqfbt.o)
 .idata$4       0x000000000043a204        0x0 /usr/lib/gcc/i686-w64-mingw32/4.8/../../../../i686-w64-mingw32/lib/../lib/libole32.a(dxmkbh.o)
 .idata$4       0x000000000043a204        0x4 /usr/lib/gcc/i686-w64-mingw32/4.8/../../../../i686-w64-mingw32/lib/../lib/libole32.a(dxmkbs00016.o)
 .idata$4       0x000000000043a208        0x4 /usr/lib/gcc/i686-w64-mingw32/4.8/../../../../i686-w64-mingw32/lib/../lib/libole32.a(dxmkbs00106.o)
 .idata$4       0x000000000043a20c        0x4 /usr/lib/gcc/i686-w64-mingw32/4.8/../../../../i686-w64-mingw32/lib/../lib/libole32.a(dxmkbs00248.o)
 .idata$4       0x000000000043a210        0x4 /usr/lib/gcc/i686-w64-mingw32/4.8/../../../../i686-w64-mingw32/lib/../lib/libole32.a(dxmkbs00271.o)
 .idata$4       0x000000000043a214        0x4 /usr/lib/gcc/i686-w64-mingw32/4.8/../../../../i686-w64-mingw32/lib/../lib/libole32.a(dxmkbt.o)
 .idata$4       0x000000000043a218        0x0 /usr/lib/gcc/i686-w64-mingw32/4.8/../../../../i686-w64-mingw32/lib/../lib/libshell32.a(dyxfbh.o)
 .idata$4       0x000000000043a218        0x4 /usr/lib/gcc/i686-w64-mingw32/4.8/../../../../i686-w64-mingw32/lib/../lib/libshell32.a(dyxfbs00063.o)
 .idata$4       0x000000000043a21c        0x4 /usr/lib/gcc/i686-w64-mingw32/4.8/../../../../i686-w64-mingw32/lib/../lib/libshell32.a(dyxfbs00077.o)
 .idata$4       0x000000000043a220        0x4 /usr/lib/gcc/i686-w64-mingw32/4.8/../../../../i686-w64-mingw32/lib/../lib/libshell32.a(dyxfbs00088.o)
 .idata$4       0x000000000043a224        0x4 /usr/lib/gcc/i686-w64-mingw32/4.8/../../../../i686-w64-mingw32/lib/../lib/libshell32.a(dyxfbs00104.o)
 .idata$4       0x000000000043a228        0x4 /usr/lib/gcc/i686-w64-mingw32/4.8/../../../../i686-w64-mingw32/lib/../lib/libshell32.a(dyxfbs00108.o)
 .idata$4       0x000000000043a22c        0x4 /usr/lib/gcc/i686-w64-mingw32/4.8/../../../../i686-w64-mingw32/lib/../lib/libshell32.a(dyxfbs00148.o)
 .idata$4       0x000000000043a230        0x4 /usr/lib/gcc/i686-w64-mingw32/4.8/../../../../i686-w64-mingw32/lib/../lib/libshell32.a(dyxfbt.o)
 .idata$4       0x000000000043a234        0x0 /usr/lib/gcc/i686-w64-mingw32/4.8/../../../../i686-w64-mingw32/lib/../lib/libuser32.a(dbukbh.o)
 .idata$4       0x000000000043a234        0x4 /usr/lib/gcc/i686-w64-mingw32/4.8/../../../../i686-w64-mingw32/lib/../lib/libuser32.a(dbukbs00006.o)
 .idata$4       0x000000000043a238        0x4 /usr/lib/gcc/i686-w64-mingw32/4.8/../../../../i686-w64-mingw32/lib/../lib/libuser32.a(dbukbs00011.o)
 .idata$4       0x000000000043a23c        0x4 /usr/lib/gcc/i686-w64-mingw32/4.8/../../../../i686-w64-mingw32/lib/../lib/libuser32.a(dbukbs00024.o)
 .idata$4       0x000000000043a240        0x4 /usr/lib/gcc/i686-w64-mingw32/4.8/../../../../i686-w64-mingw32/lib/../lib/libuser32.a(dbukbs00039.o)
 .idata$4       0x000000000043a244        0x4 /usr/lib/gcc/i686-w64-mingw32/4.8/../../../../i686-w64-mingw32/lib/../lib/libuser32.a(dbukbs00042.o)
 .idata$4       0x000000000043a248        0x4 /usr/lib/gcc/i686-w64-mingw32/4.8/../../../../i686-w64-mingw32/lib/../lib/libuser32.a(dbukbs00053.o)
 .idata$4       0x000000000043a24c        0x4 /usr/lib/gcc/i686-w64-mingw32/4.8/../../../../i686-w64-mingw32/lib/../lib/libuser32.a(dbukbs00061.o)
 .idata$4       0x000000000043a250        0x4 /usr/lib/gcc/i686-w64-mingw32/4.8/../../../../i686-w64-mingw32/lib/../lib/libuser32.a(dbukbs00081.o)
 .idata$4       0x000000000043a254        0x4 /usr/lib/gcc/i686-w64-mingw32/4.8/../../../../i686-w64-mingw32/lib/../lib/libuser32.a(dbukbs00090.o)
 .idata$4       0x000000000043a258        0x4 /usr/lib/gcc/i686-w64-mingw32/4.8/../../../../i686-w64-mingw32/lib/../lib/libuser32.a(dbukbs00091.o)
 .idata$4       0x000000000043a25c        0x4 /usr/lib/gcc/i686-w64-mingw32/4.8/../../../../i686-w64-mingw32/lib/../lib/libuser32.a(dbukbs00135.o)
 .idata$4       0x000000000043a260        0x4 /usr/lib/gcc/i686-w64-mingw32/4.8/../../../../i686-w64-mingw32/lib/../lib/libuser32.a(dbukbs00145.o)
 .idata$4       0x000000000043a264        0x4 /usr/lib/gcc/i686-w64-mingw32/4.8/../../../../i686-w64-mingw32/lib/../lib/libuser32.a(dbukbs00148.o)
 .idata$4       0x000000000043a268        0x4 /usr/lib/gcc/i686-w64-mingw32/4.8/../../../../i686-w64-mingw32/lib/../lib/libuser32.a(dbukbs00150.o)
 .idata$4       0x000000000043a26c        0x4 /usr/lib/gcc/i686-w64-mingw32/4.8/../../../../i686-w64-mingw32/lib/../lib/libuser32.a(dbukbs00173.o)
 .idata$4       0x000000000043a270        0x4 /usr/lib/gcc/i686-w64-mingw32/4.8/../../../../i686-w64-mingw32/lib/../lib/libuser32.a(dbukbs00178.o)
 .idata$4       0x000000000043a274        0x4 /usr/lib/gcc/i686-w64-mingw32/4.8/../../../../i686-w64-mingw32/lib/../lib/libuser32.a(dbukbs00179.o)
 .idata$4       0x000000000043a278        0x4 /usr/lib/gcc/i686-w64-mingw32/4.8/../../../../i686-w64-mingw32/lib/../lib/libuser32.a(dbukbs00181.o)
 .idata$4       0x000000000043a27c        0x4 /usr/lib/gcc/i686-w64-mingw32/4.8/../../../../i686-w64-mingw32/lib/../lib/libuser32.a(dbukbs00183.o)
 .idata$4       0x000000000043a280        0x4 /usr/lib/gcc/i686-w64-mingw32/4.8/../../../../i686-w64-mingw32/lib/../lib/libuser32.a(dbukbs00185.o)
 .idata$4       0x000000000043a284        0x4 /usr/lib/gcc/i686-w64-mingw32/4.8/../../../../i686-w64-mingw32/lib/../lib/libuser32.a(dbukbs00209.o)
 .idata$4       0x000000000043a288        0x4 /usr/lib/gcc/i686-w64-mingw32/4.8/../../../../i686-w64-mingw32/lib/../lib/libuser32.a(dbukbs00210.o)
 .idata$4       0x000000000043a28c        0x4 /usr/lib/gcc/i686-w64-mingw32/4.8/../../../../i686-w64-mingw32/lib/../lib/libuser32.a(dbukbs00212.o)
 .idata$4       0x000000000043a290        0x4 /usr/lib/gcc/i686-w64-mingw32/4.8/../../../../i686-w64-mingw32/lib/../lib/libuser32.a(dbukbs00224.o)
 .idata$4       0x000000000043a294        0x4 /usr/lib/gcc/i686-w64-mingw32/4.8/../../../../i686-w64-mingw32/lib/../lib/libuser32.a(dbukbs00228.o)
 .idata$4       0x000000000043a298        0x4 /usr/lib/gcc/i686-w64-mingw32/4.8/../../../../i686-w64-mingw32/lib/../lib/libuser32.a(dbukbs00237.o)
 .idata$4       0x000000000043a29c        0x4 /usr/lib/gcc/i686-w64-mingw32/4.8/../../../../i686-w64-mingw32/lib/../lib/libuser32.a(dbukbs00249.o)
 .idata$4       0x000000000043a2a0        0x4 /usr/lib/gcc/i686-w64-mingw32/4.8/../../../../i686-w64-mingw32/lib/../lib/libuser32.a(dbukbs00254.o)
 .idata$4       0x000000000043a2a4        0x4 /usr/lib/gcc/i686-w64-mingw32/4.8/../../../../i686-w64-mingw32/lib/../lib/libuser32.a(dbukbs00256.o)
 .idata$4       0x000000000043a2a8        0x4 /usr/lib/gcc/i686-w64-mingw32/4.8/../../../../i686-w64-mingw32/lib/../lib/libuser32.a(dbukbs00299.o)
 .idata$4       0x000000000043a2ac        0x4 /usr/lib/gcc/i686-w64-mingw32/4.8/../../../../i686-w64-mingw32/lib/../lib/libuser32.a(dbukbs00327.o)
 .idata$4       0x000000000043a2b0        0x4 /usr/lib/gcc/i686-w64-mingw32/4.8/../../../../i686-w64-mingw32/lib/../lib/libuser32.a(dbukbs00329.o)
 .idata$4       0x000000000043a2b4        0x4 /usr/lib/gcc/i686-w64-mingw32/4.8/../../../../i686-w64-mingw32/lib/../lib/libuser32.a(dbukbs00330.o)
 .idata$4       0x000000000043a2b8        0x4 /usr/lib/gcc/i686-w64-mingw32/4.8/../../../../i686-w64-mingw32/lib/../lib/libuser32.a(dbukbs00346.o)
 .idata$4       0x000000000043a2bc        0x4 /usr/lib/gcc/i686-w64-mingw32/4.8/../../../../i686-w64-mingw32/lib/../lib/libuser32.a(dbukbs00352.o)
 .idata$4       0x000000000043a2c0        0x4 /usr/lib/gcc/i686-w64-mingw32/4.8/../../../../i686-w64-mingw32/lib/../lib/libuser32.a(dbukbs00374.o)
 .idata$4       0x000000000043a2c4        0x4 /usr/lib/gcc/i686-w64-mingw32/4.8/../../../../i686-w64-mingw32/lib/../lib/libuser32.a(dbukbs00390.o)
 .idata$4       0x000000000043a2c8        0x4 /usr/lib/gcc/i686-w64-mingw32/4.8/../../../../i686-w64-mingw32/lib/../lib/libuser32.a(dbukbs00398.o)
 .idata$4       0x000000000043a2cc        0x4 /usr/lib/gcc/i686-w64-mingw32/4.8/../../../../i686-w64-mingw32/lib/../lib/libuser32.a(dbukbs00399.o)
 .idata$4       0x000000000043a2d0        0x4 /usr/lib/gcc/i686-w64-mingw32/4.8/../../../../i686-w64-mingw32/lib/../lib/libuser32.a(dbukbs00401.o)
 .idata$4       0x000000000043a2d4        0x4 /usr/lib/gcc/i686-w64-mingw32/4.8/../../../../i686-w64-mingw32/lib/../lib/libuser32.a(dbukbs00407.o)
 .idata$4       0x000000000043a2d8        0x4 /usr/lib/gcc/i686-w64-mingw32/4.8/../../../../i686-w64-mingw32/lib/../lib/libuser32.a(dbukbs00409.o)
 .idata$4       0x000000000043a2dc        0x4 /usr/lib/gcc/i686-w64-mingw32/4.8/../../../../i686-w64-mingw32/lib/../lib/libuser32.a(dbukbs00415.o)
 .idata$4       0x000000000043a2e0        0x4 /usr/lib/gcc/i686-w64-mingw32/4.8/../../../../i686-w64-mingw32/lib/../lib/libuser32.a(dbukbs00441.o)
 .idata$4       0x000000000043a2e4        0x4 /usr/lib/gcc/i686-w64-mingw32/4.8/../../../../i686-w64-mingw32/lib/../lib/libuser32.a(dbukbs00459.o)
 .idata$4       0x000000000043a2e8        0x4 /usr/lib/gcc/i686-w64-mingw32/4.8/../../../../i686-w64-mingw32/lib/../lib/libuser32.a(dbukbs00468.o)
 .idata$4       0x000000000043a2ec        0x4 /usr/lib/gcc/i686-w64-mingw32/4.8/../../../../i686-w64-mingw32/lib/../lib/libuser32.a(dbukbs00472.o)
 .idata$4       0x000000000043a2f0        0x4 /usr/lib/gcc/i686-w64-mingw32/4.8/../../../../i686-w64-mingw32/lib/../lib/libuser32.a(dbukbs00483.o)
 .idata$4       0x000000000043a2f4        0x4 /usr/lib/gcc/i686-w64-mingw32/4.8/../../../../i686-w64-mingw32/lib/../lib/libuser32.a(dbukbs00504.o)
 .idata$4       0x000000000043a2f8        0x4 /usr/lib/gcc/i686-w64-mingw32/4.8/../../../../i686-w64-mingw32/lib/../lib/libuser32.a(dbukbs00512.o)
 .idata$4       0x000000000043a2fc        0x4 /usr/lib/gcc/i686-w64-mingw32/4.8/../../../../i686-w64-mingw32/lib/../lib/libuser32.a(dbukbs00515.o)
 .idata$4       0x000000000043a300        0x4 /usr/lib/gcc/i686-w64-mingw32/4.8/../../../../i686-w64-mingw32/lib/../lib/libuser32.a(dbukbs00524.o)
 .idata$4       0x000000000043a304        0x4 /usr/lib/gcc/i686-w64-mingw32/4.8/../../../../i686-w64-mingw32/lib/../lib/libuser32.a(dbukbs00527.o)
 .idata$4       0x000000000043a308        0x4 /usr/lib/gcc/i686-w64-mingw32/4.8/../../../../i686-w64-mingw32/lib/../lib/libuser32.a(dbukbs00529.o)
 .idata$4       0x000000000043a30c        0x4 /usr/lib/gcc/i686-w64-mingw32/4.8/../../../../i686-w64-mingw32/lib/../lib/libuser32.a(dbukbs00534.o)
 .idata$4       0x000000000043a310        0x4 /usr/lib/gcc/i686-w64-mingw32/4.8/../../../../i686-w64-mingw32/lib/../lib/libuser32.a(dbukbs00538.o)
 .idata$4       0x000000000043a314        0x4 /usr/lib/gcc/i686-w64-mingw32/4.8/../../../../i686-w64-mingw32/lib/../lib/libuser32.a(dbukbs00568.o)
 .idata$4       0x000000000043a318        0x4 /usr/lib/gcc/i686-w64-mingw32/4.8/../../../../i686-w64-mingw32/lib/../lib/libuser32.a(dbukbs00574.o)
 .idata$4       0x000000000043a31c        0x4 /usr/lib/gcc/i686-w64-mingw32/4.8/../../../../i686-w64-mingw32/lib/../lib/libuser32.a(dbukbs00577.o)
 .idata$4       0x000000000043a320        0x4 /usr/lib/gcc/i686-w64-mingw32/4.8/../../../../i686-w64-mingw32/lib/../lib/libuser32.a(dbukbs00579.o)
 .idata$4       0x000000000043a324        0x4 /usr/lib/gcc/i686-w64-mingw32/4.8/../../../../i686-w64-mingw32/lib/../lib/libuser32.a(dbukbs00590.o)
 .idata$4       0x000000000043a328        0x4 /usr/lib/gcc/i686-w64-mingw32/4.8/../../../../i686-w64-mingw32/lib/../lib/libuser32.a(dbukbs00596.o)
 .idata$4       0x000000000043a32c        0x4 /usr/lib/gcc/i686-w64-mingw32/4.8/../../../../i686-w64-mingw32/lib/../lib/libuser32.a(dbukbs00607.o)
 .idata$4       0x000000000043a330        0x4 /usr/lib/gcc/i686-w64-mingw32/4.8/../../../../i686-w64-mingw32/lib/../lib/libuser32.a(dbukbs00644.o)
 .idata$4       0x000000000043a334        0x4 /usr/lib/gcc/i686-w64-mingw32/4.8/../../../../i686-w64-mingw32/lib/../lib/libuser32.a(dbukbs00646.o)
 .idata$4       0x000000000043a338        0x4 /usr/lib/gcc/i686-w64-mingw32/4.8/../../../../i686-w64-mingw32/lib/../lib/libuser32.a(dbukbt.o)
 .idata$4       0x000000000043a33c        0x0 /usr/lib/gcc/i686-w64-mingw32/4.8/../../../../i686-w64-mingw32/lib/../lib/libversion.a(dqukbh.o)
 .idata$4       0x000000000043a33c        0x4 /usr/lib/gcc/i686-w64-mingw32/4.8/../../../../i686-w64-mingw32/lib/../lib/libversion.a(dqukbs00000.o)
 .idata$4       0x000000000043a340        0x4 /usr/lib/gcc/i686-w64-mingw32/4.8/../../../../i686-w64-mingw32/lib/../lib/libversion.a(dqukbs00001.o)
 .idata$4       0x000000000043a344        0x4 /usr/lib/gcc/i686-w64-mingw32/4.8/../../../../i686-w64-mingw32/lib/../lib/libversion.a(dqukbs00010.o)
 .idata$4       0x000000000043a348        0x4 /usr/lib/gcc/i686-w64-mingw32/4.8/../../../../i686-w64-mingw32/lib/../lib/libversion.a(dqukbt.o)
 SORT(*)(.idata$5)
 .idata$5       0x000000000043a34c        0x0 /usr/lib/gcc/i686-w64-mingw32/4.8/../../../../i686-w64-mingw32/lib/../lib/libadvapi32.a(drrjbh.o)
 .idata$5       0x000000000043a34c        0x4 /usr/lib/gcc/i686-w64-mingw32/4.8/../../../../i686-w64-mingw32/lib/../lib/libadvapi32.a(drrjbs00568.o)
                0x000000000043a34c                _imp__RegCloseKey@4
 .idata$5       0x000000000043a350        0x4 /usr/lib/gcc/i686-w64-mingw32/4.8/../../../../i686-w64-mingw32/lib/../lib/libadvapi32.a(drrjbs00576.o)
                0x000000000043a350                _imp__RegCreateKeyExA@36
 .idata$5       0x000000000043a354        0x4 /usr/lib/gcc/i686-w64-mingw32/4.8/../../../../i686-w64-mingw32/lib/../lib/libadvapi32.a(drrjbs00581.o)
                0x000000000043a354                _imp__RegDeleteKeyA@8
 .idata$5       0x000000000043a358        0x4 /usr/lib/gcc/i686-w64-mingw32/4.8/../../../../i686-w64-mingw32/lib/../lib/libadvapi32.a(drrjbs00591.o)
                0x000000000043a358                _imp__RegDeleteValueA@8
 .idata$5       0x000000000043a35c        0x4 /usr/lib/gcc/i686-w64-mingw32/4.8/../../../../i686-w64-mingw32/lib/../lib/libadvapi32.a(drrjbs00597.o)
                0x000000000043a35c                _imp__RegEnumKeyA@16
 .idata$5       0x000000000043a360        0x4 /usr/lib/gcc/i686-w64-mingw32/4.8/../../../../i686-w64-mingw32/lib/../lib/libadvapi32.a(drrjbs00601.o)
                0x000000000043a360                _imp__RegEnumValueA@32
 .idata$5       0x000000000043a364        0x4 /usr/lib/gcc/i686-w64-mingw32/4.8/../../../../i686-w64-mingw32/lib/../lib/libadvapi32.a(drrjbs00616.o)
                0x000000000043a364                _imp__RegOpenKeyExA@20
 .idata$5       0x000000000043a368        0x4 /usr/lib/gcc/i686-w64-mingw32/4.8/../../../../i686-w64-mingw32/lib/../lib/libadvapi32.a(drrjbs00629.o)
                0x000000000043a368                _imp__RegQueryValueExA@24
 .idata$5       0x000000000043a36c        0x4 /usr/lib/gcc/i686-w64-mingw32/4.8/../../../../i686-w64-mingw32/lib/../lib/libadvapi32.a(drrjbs00645.o)
                0x000000000043a36c                _imp__RegSetValueExA@24
 .idata$5       0x000000000043a370        0x4 /usr/lib/gcc/i686-w64-mingw32/4.8/../../../../i686-w64-mingw32/lib/../lib/libadvapi32.a(drrjbt.o)
 .idata$5       0x000000000043a374        0x0 /usr/lib/gcc/i686-w64-mingw32/4.8/../../../../i686-w64-mingw32/lib/../lib/libcomctl32.a(dwtjbh.o)
 .idata$5       0x000000000043a374        0x4 /usr/lib/gcc/i686-w64-mingw32/4.8/../../../../i686-w64-mingw32/lib/../lib/libcomctl32.a(dwtjbs00059.o)
                0x000000000043a374                _imp__ImageList_AddMasked@12
 .idata$5       0x000000000043a378        0x4 /usr/lib/gcc/i686-w64-mingw32/4.8/../../../../i686-w64-mingw32/lib/../lib/libcomctl32.a(dwtjbs00062.o)
                0x000000000043a378                _imp__ImageList_Create@20
 .idata$5       0x000000000043a37c        0x4 /usr/lib/gcc/i686-w64-mingw32/4.8/../../../../i686-w64-mingw32/lib/../lib/libcomctl32.a(dwtjbs00063.o)
                0x000000000043a37c                _imp__ImageList_Destroy@4
 .idata$5       0x000000000043a380        0x4 /usr/lib/gcc/i686-w64-mingw32/4.8/../../../../i686-w64-mingw32/lib/../lib/libcomctl32.a(dwtjbs00094.o)
                0x000000000043a380                _imp__InitCommonControls@0
 .idata$5       0x000000000043a384        0x4 /usr/lib/gcc/i686-w64-mingw32/4.8/../../../../i686-w64-mingw32/lib/../lib/libcomctl32.a(dwtjbt.o)
 .idata$5       0x000000000043a388        0x0 /usr/lib/gcc/i686-w64-mingw32/4.8/../../../../i686-w64-mingw32/lib/../lib/libgdi32.a(dtfkbh.o)
 .idata$5       0x000000000043a388        0x4 /usr/lib/gcc/i686-w64-mingw32/4.8/../../../../i686-w64-mingw32/lib/../lib/libgdi32.a(dtfkbs00030.o)
                0x000000000043a388                _imp__CreateBrushIndirect@4
 .idata$5       0x000000000043a38c        0x4 /usr/lib/gcc/i686-w64-mingw32/4.8/../../../../i686-w64-mingw32/lib/../lib/libgdi32.a(dtfkbs00047.o)
                0x000000000043a38c                _imp__CreateFontIndirectA@4
 .idata$5       0x000000000043a390        0x4 /usr/lib/gcc/i686-w64-mingw32/4.8/../../../../i686-w64-mingw32/lib/../lib/libgdi32.a(dtfkbs00075.o)
                0x000000000043a390                _imp__DeleteObject@4
 .idata$5       0x000000000043a394        0x4 /usr/lib/gcc/i686-w64-mingw32/4.8/../../../../i686-w64-mingw32/lib/../lib/libgdi32.a(dtfkbs00168.o)
                0x000000000043a394                _imp__GetDeviceCaps@8
 .idata$5       0x000000000043a398        0x4 /usr/lib/gcc/i686-w64-mingw32/4.8/../../../../i686-w64-mingw32/lib/../lib/libgdi32.a(dtfkbs00305.o)
                0x000000000043a398                _imp__SelectObject@8
 .idata$5       0x000000000043a39c        0x4 /usr/lib/gcc/i686-w64-mingw32/4.8/../../../../i686-w64-mingw32/lib/../lib/libgdi32.a(dtfkbs00311.o)
                0x000000000043a39c                _imp__SetBkColor@8
 .idata$5       0x000000000043a3a0        0x4 /usr/lib/gcc/i686-w64-mingw32/4.8/../../../../i686-w64-mingw32/lib/../lib/libgdi32.a(dtfkbs00312.o)
                0x000000000043a3a0                _imp__SetBkMode@8
 .idata$5       0x000000000043a3a4        0x4 /usr/lib/gcc/i686-w64-mingw32/4.8/../../../../i686-w64-mingw32/lib/../lib/libgdi32.a(dtfkbs00348.o)
                0x000000000043a3a4                _imp__SetTextColor@8
 .idata$5       0x000000000043a3a8        0x4 /usr/lib/gcc/i686-w64-mingw32/4.8/../../../../i686-w64-mingw32/lib/../lib/libgdi32.a(dtfkbt.o)
 .idata$5       0x000000000043a3ac        0x0 /usr/lib/gcc/i686-w64-mingw32/4.8/../../../../i686-w64-mingw32/lib/../lib/libkernel32.a(dnqfbh.o)
 .idata$5       0x000000000043a3ac        0x4 /usr/lib/gcc/i686-w64-mingw32/4.8/../../../../i686-w64-mingw32/lib/../lib/libkernel32.a(dnqfbs00083.o)
                0x000000000043a3ac                _imp__CloseHandle@4
 .idata$5       0x000000000043a3b0        0x4 /usr/lib/gcc/i686-w64-mingw32/4.8/../../../../i686-w64-mingw32/lib/../lib/libkernel32.a(dnqfbs00097.o)
                0x000000000043a3b0                _imp__CompareFileTime@8
 .idata$5       0x000000000043a3b4        0x4 /usr/lib/gcc/i686-w64-mingw32/4.8/../../../../i686-w64-mingw32/lib/../lib/libkernel32.a(dnqfbs00114.o)
                0x000000000043a3b4                _imp__CopyFileA@12
 .idata$5       0x000000000043a3b8        0x4 /usr/lib/gcc/i686-w64-mingw32/4.8/../../../../i686-w64-mingw32/lib/../lib/libkernel32.a(dnqfbs00126.o)
                0x000000000043a3b8                _imp__CreateDirectoryA@8
 .idata$5       0x000000000043a3bc        0x4 /usr/lib/gcc/i686-w64-mingw32/4.8/../../../../i686-w64-mingw32/lib/../lib/libkernel32.a(dnqfbs00139.o)
                0x000000000043a3bc                _imp__CreateFileA@28
 .idata$5       0x000000000043a3c0        0x4 /usr/lib/gcc/i686-w64-mingw32/4.8/../../../../i686-w64-mingw32/lib/../lib/libkernel32.a(dnqfbs00167.o)
                0x000000000043a3c0                _imp__CreateProcessA@40
 .idata$5       0x000000000043a3c4        0x4 /usr/lib/gcc/i686-w64-mingw32/4.8/../../../../i686-w64-mingw32/lib/../lib/libkernel32.a(dnqfbs00183.o)
                0x000000000043a3c4                _imp__CreateThread@24
 .idata$5       0x000000000043a3c8        0x4 /usr/lib/gcc/i686-w64-mingw32/4.8/../../../../i686-w64-mingw32/lib/../lib/libkernel32.a(dnqfbs00214.o)
                0x000000000043a3c8                _imp__DeleteFileA@4
 .idata$5       0x000000000043a3cc        0x4 /usr/lib/gcc/i686-w64-mingw32/4.8/../../../../i686-w64-mingw32/lib/../lib/libkernel32.a(dnqfbs00282.o)
                0x000000000043a3cc                _imp__ExitProcess@4
 .idata$5       0x000000000043a3d0        0x4 /usr/lib/gcc/i686-w64-mingw32/4.8/../../../../i686-w64-mingw32/lib/../lib/libkernel32.a(dnqfbs00285.o)
                0x000000000043a3d0                _imp__ExpandEnvironmentStringsA@12
 .idata$5       0x000000000043a3d4        0x4 /usr/lib/gcc/i686-w64-mingw32/4.8/../../../../i686-w64-mingw32/lib/../lib/libkernel32.a(dnqfbs00304.o)
                0x000000000043a3d4                _imp__FindClose@4
 .idata$5       0x000000000043a3d8        0x4 /usr/lib/gcc/i686-w64-mingw32/4.8/../../../../i686-w64-mingw32/lib/../lib/libkernel32.a(dnqfbs00308.o)
                0x000000000043a3d8                _imp__FindFirstFileA@8
 .idata$5       0x000000000043a3dc        0x4 /usr/lib/gcc/i686-w64-mingw32/4.8/../../../../i686-w64-mingw32/lib/../lib/libkernel32.a(dnqfbs00325.o)
                0x000000000043a3dc                _imp__FindNextFileA@8
 .idata$5       0x000000000043a3e0        0x4 /usr/lib/gcc/i686-w64-mingw32/4.8/../../../../i686-w64-mingw32/lib/../lib/libkernel32.a(dnqfbs00356.o)
                0x000000000043a3e0                _imp__FreeLibrary@4
 .idata$5       0x000000000043a3e4        0x4 /usr/lib/gcc/i686-w64-mingw32/4.8/../../../../i686-w64-mingw32/lib/../lib/libkernel32.a(dnqfbs00394.o)
                0x000000000043a3e4                _imp__GetCommandLineA@0
 .idata$5       0x000000000043a3e8        0x4 /usr/lib/gcc/i686-w64-mingw32/4.8/../../../../i686-w64-mingw32/lib/../lib/libkernel32.a(dnqfbs00452.o)
                0x000000000043a3e8                _imp__GetCurrentProcess@0
 .idata$5       0x000000000043a3ec        0x4 /usr/lib/gcc/i686-w64-mingw32/4.8/../../../../i686-w64-mingw32/lib/../lib/libkernel32.a(dnqfbs00464.o)
                0x000000000043a3ec                _imp__GetDiskFreeSpaceA@20
 .idata$5       0x000000000043a3f0        0x4 /usr/lib/gcc/i686-w64-mingw32/4.8/../../../../i686-w64-mingw32/lib/../lib/libkernel32.a(dnqfbs00482.o)
                0x000000000043a3f0                _imp__GetExitCodeProcess@8
 .idata$5       0x000000000043a3f4        0x4 /usr/lib/gcc/i686-w64-mingw32/4.8/../../../../i686-w64-mingw32/lib/../lib/libkernel32.a(dnqfbs00486.o)
                0x000000000043a3f4                _imp__GetFileAttributesA@4
 .idata$5       0x000000000043a3f8        0x4 /usr/lib/gcc/i686-w64-mingw32/4.8/../../../../i686-w64-mingw32/lib/../lib/libkernel32.a(dnqfbs00497.o)
                0x000000000043a3f8                _imp__GetFileSize@8
 .idata$5       0x000000000043a3fc        0x4 /usr/lib/gcc/i686-w64-mingw32/4.8/../../../../i686-w64-mingw32/lib/../lib/libkernel32.a(dnqfbs00505.o)
                0x000000000043a3fc                _imp__GetFullPathNameA@16
 .idata$5       0x000000000043a400        0x4 /usr/lib/gcc/i686-w64-mingw32/4.8/../../../../i686-w64-mingw32/lib/../lib/libkernel32.a(dnqfbs00515.o)
                0x000000000043a400                _imp__GetLastError@0
 .idata$5       0x000000000043a404        0x4 /usr/lib/gcc/i686-w64-mingw32/4.8/../../../../i686-w64-mingw32/lib/../lib/libkernel32.a(dnqfbs00531.o)
                0x000000000043a404                _imp__GetModuleFileNameA@12
 .idata$5       0x000000000043a408        0x4 /usr/lib/gcc/i686-w64-mingw32/4.8/../../../../i686-w64-mingw32/lib/../lib/libkernel32.a(dnqfbs00533.o)
                0x000000000043a408                _imp__GetModuleHandleA@4
 .idata$5       0x000000000043a40c        0x4 /usr/lib/gcc/i686-w64-mingw32/4.8/../../../../i686-w64-mingw32/lib/../lib/libkernel32.a(dnqfbs00577.o)
                0x000000000043a40c                _imp__GetPrivateProfileStringA@24
 .idata$5       0x000000000043a410        0x4 /usr/lib/gcc/i686-w64-mingw32/4.8/../../../../i686-w64-mingw32/lib/../lib/libkernel32.a(dnqfbs00581.o)
                0x000000000043a410                _imp__GetProcAddress@8
 .idata$5       0x000000000043a414        0x4 /usr/lib/gcc/i686-w64-mingw32/4.8/../../../../i686-w64-mingw32/lib/../lib/libkernel32.a(dnqfbs00610.o)
                0x000000000043a414                _imp__GetShortPathNameA@12
 .idata$5       0x000000000043a418        0x4 /usr/lib/gcc/i686-w64-mingw32/4.8/../../../../i686-w64-mingw32/lib/../lib/libkernel32.a(dnqfbs00625.o)
                0x000000000043a418                _imp__GetSystemDirectoryA@8
 .idata$5       0x000000000043a41c        0x4 /usr/lib/gcc/i686-w64-mingw32/4.8/../../../../i686-w64-mingw32/lib/../lib/libkernel32.a(dnqfbs00645.o)
                0x000000000043a41c                _imp__GetTempFileNameA@16
 .idata$5       0x000000000043a420        0x4 /usr/lib/gcc/i686-w64-mingw32/4.8/../../../../i686-w64-mingw32/lib/../lib/libkernel32.a(dnqfbs00647.o)
                0x000000000043a420                _imp__GetTempPathA@8
 .idata$5       0x000000000043a424        0x4 /usr/lib/gcc/i686-w64-mingw32/4.8/../../../../i686-w64-mingw32/lib/../lib/libkernel32.a(dnqfbs00663.o)
                0x000000000043a424                _imp__GetTickCount@0
 .idata$5       0x000000000043a428        0x4 /usr/lib/gcc/i686-w64-mingw32/4.8/../../../../i686-w64-mingw32/lib/../lib/libkernel32.a(dnqfbs00677.o)
                0x000000000043a428                _imp__GetVersion@0
 .idata$5       0x000000000043a42c        0x4 /usr/lib/gcc/i686-w64-mingw32/4.8/../../../../i686-w64-mingw32/lib/../lib/libkernel32.a(dnqfbs00689.o)
                0x000000000043a42c                _imp__GetWindowsDirectoryA@8
 .idata$5       0x000000000043a430        0x4 /usr/lib/gcc/i686-w64-mingw32/4.8/../../../../i686-w64-mingw32/lib/../lib/libkernel32.a(dnqfbs00695.o)
                0x000000000043a430                _imp__GlobalAlloc@8
 .idata$5       0x000000000043a434        0x4 /usr/lib/gcc/i686-w64-mingw32/4.8/../../../../i686-w64-mingw32/lib/../lib/libkernel32.a(dnqfbs00702.o)
                0x000000000043a434                _imp__GlobalFree@4
 .idata$5       0x000000000043a438        0x4 /usr/lib/gcc/i686-w64-mingw32/4.8/../../../../i686-w64-mingw32/lib/../lib/libkernel32.a(dnqfbs00706.o)
                0x000000000043a438                _imp__GlobalLock@4
 .idata$5       0x000000000043a43c        0x4 /usr/lib/gcc/i686-w64-mingw32/4.8/../../../../i686-w64-mingw32/lib/../lib/libkernel32.a(dnqfbs00714.o)
                0x000000000043a43c                _imp__GlobalUnlock@4
 .idata$5       0x000000000043a440        0x4 /usr/lib/gcc/i686-w64-mingw32/4.8/../../../../i686-w64-mingw32/lib/../lib/libkernel32.a(dnqfbs00809.o)
                0x000000000043a440                _imp__LoadLibraryA@4
 .idata$5       0x000000000043a444        0x4 /usr/lib/gcc/i686-w64-mingw32/4.8/../../../../i686-w64-mingw32/lib/../lib/libkernel32.a(dnqfbs00810.o)
                0x000000000043a444                _imp__LoadLibraryExA@12
 .idata$5       0x000000000043a448        0x4 /usr/lib/gcc/i686-w64-mingw32/4.8/../../../../i686-w64-mingw32/lib/../lib/libkernel32.a(dnqfbs00844.o)
                0x000000000043a448                _imp__MoveFileA@8
 .idata$5       0x000000000043a44c        0x4 /usr/lib/gcc/i686-w64-mingw32/4.8/../../../../i686-w64-mingw32/lib/../lib/libkernel32.a(dnqfbs00852.o)
                0x000000000043a44c                _imp__MulDiv@12
 .idata$5       0x000000000043a450        0x4 /usr/lib/gcc/i686-w64-mingw32/4.8/../../../../i686-w64-mingw32/lib/../lib/libkernel32.a(dnqfbs00853.o)
                0x000000000043a450                _imp__MultiByteToWideChar@24
 .idata$5       0x000000000043a454        0x4 /usr/lib/gcc/i686-w64-mingw32/4.8/../../../../i686-w64-mingw32/lib/../lib/libkernel32.a(dnqfbs00941.o)
                0x000000000043a454                _imp__ReadFile@20
 .idata$5       0x000000000043a458        0x4 /usr/lib/gcc/i686-w64-mingw32/4.8/../../../../i686-w64-mingw32/lib/../lib/libkernel32.a(dnqfbs00964.o)
                0x000000000043a458                _imp__RemoveDirectoryA@4
 .idata$5       0x000000000043a45c        0x4 /usr/lib/gcc/i686-w64-mingw32/4.8/../../../../i686-w64-mingw32/lib/../lib/libkernel32.a(dnqfbs00991.o)
                0x000000000043a45c                _imp__SearchPathA@24
 .idata$5       0x000000000043a460        0x4 /usr/lib/gcc/i686-w64-mingw32/4.8/../../../../i686-w64-mingw32/lib/../lib/libkernel32.a(dnqfbs01040.o)
                0x000000000043a460                _imp__SetCurrentDirectoryA@4
 .idata$5       0x000000000043a464        0x4 /usr/lib/gcc/i686-w64-mingw32/4.8/../../../../i686-w64-mingw32/lib/../lib/libkernel32.a(dnqfbs01052.o)
                0x000000000043a464                _imp__SetErrorMode@4
 .idata$5       0x000000000043a468        0x4 /usr/lib/gcc/i686-w64-mingw32/4.8/../../../../i686-w64-mingw32/lib/../lib/libkernel32.a(dnqfbs01057.o)
                0x000000000043a468                _imp__SetFileAttributesA@8
 .idata$5       0x000000000043a46c        0x4 /usr/lib/gcc/i686-w64-mingw32/4.8/../../../../i686-w64-mingw32/lib/../lib/libkernel32.a(dnqfbs01065.o)
                0x000000000043a46c                _imp__SetFilePointer@16
 .idata$5       0x000000000043a470        0x4 /usr/lib/gcc/i686-w64-mingw32/4.8/../../../../i686-w64-mingw32/lib/../lib/libkernel32.a(dnqfbs01069.o)
                0x000000000043a470                _imp__SetFileTime@16
 .idata$5       0x000000000043a474        0x4 /usr/lib/gcc/i686-w64-mingw32/4.8/../../../../i686-w64-mingw32/lib/../lib/libkernel32.a(dnqfbs01140.o)
                0x000000000043a474                _imp__Sleep@4
 .idata$5       0x000000000043a478        0x4 /usr/lib/gcc/i686-w64-mingw32/4.8/../../../../i686-w64-mingw32/lib/../lib/libkernel32.a(dnqfbs01218.o)
                0x000000000043a478                _imp__WaitForSingleObject@8
 .idata$5       0x000000000043a47c        0x4 /usr/lib/gcc/i686-w64-mingw32/4.8/../../../../i686-w64-mingw32/lib/../lib/libkernel32.a(dnqfbs01262.o)
                0x000000000043a47c                _imp__WriteFile@20
 .idata$5       0x000000000043a480        0x4 /usr/lib/gcc/i686-w64-mingw32/4.8/../../../../i686-w64-mingw32/lib/../lib/libkernel32.a(dnqfbs01268.o)
                0x000000000043a480                _imp__WritePrivateProfileStringA@16
 .idata$5       0x000000000043a484        0x4 /usr/lib/gcc/i686-w64-mingw32/4.8/../../../../i686-w64-mingw32/lib/../lib/libkernel32.a(dnqfbs01289.o)
                0x000000000043a484                _imp__lstrcatA@8
 .idata$5       0x000000000043a488        0x4 /usr/lib/gcc/i686-w64-mingw32/4.8/../../../../i686-w64-mingw32/lib/../lib/libkernel32.a(dnqfbs01292.o)
                0x000000000043a488                _imp__lstrcmpA@8
 .idata$5       0x000000000043a48c        0x4 /usr/lib/gcc/i686-w64-mingw32/4.8/../../../../i686-w64-mingw32/lib/../lib/libkernel32.a(dnqfbs01295.o)
                0x000000000043a48c                _imp__lstrcmpiA@8
 .idata$5       0x000000000043a490        0x4 /usr/lib/gcc/i686-w64-mingw32/4.8/../../../../i686-w64-mingw32/lib/../lib/libkernel32.a(dnqfbs01301.o)
                0x000000000043a490                _imp__lstrcpynA@12
 .idata$5       0x000000000043a494        0x4 /usr/lib/gcc/i686-w64-mingw32/4.8/../../../../i686-w64-mingw32/lib/../lib/libkernel32.a(dnqfbs01304.o)
                0x000000000043a494                _imp__lstrlenA@4
 .idata$5       0x000000000043a498        0x4 /usr/lib/gcc/i686-w64-mingw32/4.8/../../../../i686-w64-mingw32/lib/../lib/libkernel32.a(dnqfbt.o)
 .idata$5       0x000000000043a49c        0x0 /usr/lib/gcc/i686-w64-mingw32/4.8/../../../../i686-w64-mingw32/lib/../lib/libole32.a(dxmkbh.o)
 .idata$5       0x000000000043a49c        0x4 /usr/lib/gcc/i686-w64-mingw32/4.8/../../../../i686-w64-mingw32/lib/../lib/libole32.a(dxmkbs00016.o)
                0x000000000043a49c                _imp__CoCreateInstance@20
 .idata$5       0x000000000043a4a0        0x4 /usr/lib/gcc/i686-w64-mingw32/4.8/../../../../i686-w64-mingw32/lib/../lib/libole32.a(dxmkbs00106.o)
                0x000000000043a4a0                _imp__CoTaskMemFree@4
 .idata$5       0x000000000043a4a4        0x4 /usr/lib/gcc/i686-w64-mingw32/4.8/../../../../i686-w64-mingw32/lib/../lib/libole32.a(dxmkbs00248.o)
                0x000000000043a4a4                _imp__OleInitialize@4
 .idata$5       0x000000000043a4a8        0x4 /usr/lib/gcc/i686-w64-mingw32/4.8/../../../../i686-w64-mingw32/lib/../lib/libole32.a(dxmkbs00271.o)
                0x000000000043a4a8                _imp__OleUninitialize@0
 .idata$5       0x000000000043a4ac        0x4 /usr/lib/gcc/i686-w64-mingw32/4.8/../../../../i686-w64-mingw32/lib/../lib/libole32.a(dxmkbt.o)
 .idata$5       0x000000000043a4b0        0x0 /usr/lib/gcc/i686-w64-mingw32/4.8/../../../../i686-w64-mingw32/lib/../lib/libshell32.a(dyxfbh.o)
 .idata$5       0x000000000043a4b0        0x4 /usr/lib/gcc/i686-w64-mingw32/4.8/../../../../i686-w64-mingw32/lib/../lib/libshell32.a(dyxfbs00063.o)
                0x000000000043a4b0                _imp__SHBrowseForFolderA@4
 .idata$5       0x000000000043a4b4        0x4 /usr/lib/gcc/i686-w64-mingw32/4.8/../../../../i686-w64-mingw32/lib/../lib/libshell32.a(dyxfbs00077.o)
                0x000000000043a4b4                _imp__SHFileOperationA@4
 .idata$5       0x000000000043a4b8        0x4 /usr/lib/gcc/i686-w64-mingw32/4.8/../../../../i686-w64-mingw32/lib/../lib/libshell32.a(dyxfbs00088.o)
                0x000000000043a4b8                _imp__SHGetFileInfoA@20
 .idata$5       0x000000000043a4bc        0x4 /usr/lib/gcc/i686-w64-mingw32/4.8/../../../../i686-w64-mingw32/lib/../lib/libshell32.a(dyxfbs00104.o)
                0x000000000043a4bc                _imp__SHGetPathFromIDListA@8
 .idata$5       0x000000000043a4c0        0x4 /usr/lib/gcc/i686-w64-mingw32/4.8/../../../../i686-w64-mingw32/lib/../lib/libshell32.a(dyxfbs00108.o)
                0x000000000043a4c0                _imp__SHGetSpecialFolderLocation@12
 .idata$5       0x000000000043a4c4        0x4 /usr/lib/gcc/i686-w64-mingw32/4.8/../../../../i686-w64-mingw32/lib/../lib/libshell32.a(dyxfbs00148.o)
                0x000000000043a4c4                _imp__ShellExecuteA@24
 .idata$5       0x000000000043a4c8        0x4 /usr/lib/gcc/i686-w64-mingw32/4.8/../../../../i686-w64-mingw32/lib/../lib/libshell32.a(dyxfbt.o)
 .idata$5       0x000000000043a4cc        0x0 /usr/lib/gcc/i686-w64-mingw32/4.8/../../../../i686-w64-mingw32/lib/../lib/libuser32.a(dbukbh.o)
 .idata$5       0x000000000043a4cc        0x4 /usr/lib/gcc/i686-w64-mingw32/4.8/../../../../i686-w64-mingw32/lib/../lib/libuser32.a(dbukbs00006.o)
                0x000000000043a4cc                _imp__AppendMenuA@16
 .idata$5       0x000000000043a4d0        0x4 /usr/lib/gcc/i686-w64-mingw32/4.8/../../../../i686-w64-mingw32/lib/../lib/libuser32.a(dbukbs00011.o)
                0x000000000043a4d0                _imp__BeginPaint@8
 .idata$5       0x000000000043a4d4        0x4 /usr/lib/gcc/i686-w64-mingw32/4.8/../../../../i686-w64-mingw32/lib/../lib/libuser32.a(dbukbs00024.o)
                0x000000000043a4d4                _imp__CallWindowProcA@20
 .idata$5       0x000000000043a4d8        0x4 /usr/lib/gcc/i686-w64-mingw32/4.8/../../../../i686-w64-mingw32/lib/../lib/libuser32.a(dbukbs00039.o)
                0x000000000043a4d8                _imp__CharNextA@4
 .idata$5       0x000000000043a4dc        0x4 /usr/lib/gcc/i686-w64-mingw32/4.8/../../../../i686-w64-mingw32/lib/../lib/libuser32.a(dbukbs00042.o)
                0x000000000043a4dc                _imp__CharPrevA@8
 .idata$5       0x000000000043a4e0        0x4 /usr/lib/gcc/i686-w64-mingw32/4.8/../../../../i686-w64-mingw32/lib/../lib/libuser32.a(dbukbs00053.o)
                0x000000000043a4e0                _imp__CheckDlgButton@12
 .idata$5       0x000000000043a4e4        0x4 /usr/lib/gcc/i686-w64-mingw32/4.8/../../../../i686-w64-mingw32/lib/../lib/libuser32.a(dbukbs00061.o)
                0x000000000043a4e4                _imp__CloseClipboard@0
 .idata$5       0x000000000043a4e8        0x4 /usr/lib/gcc/i686-w64-mingw32/4.8/../../../../i686-w64-mingw32/lib/../lib/libuser32.a(dbukbs00081.o)
                0x000000000043a4e8                _imp__CreateDialogParamA@20
 .idata$5       0x000000000043a4ec        0x4 /usr/lib/gcc/i686-w64-mingw32/4.8/../../../../i686-w64-mingw32/lib/../lib/libuser32.a(dbukbs00090.o)
                0x000000000043a4ec                _imp__CreatePopupMenu@0
 .idata$5       0x000000000043a4f0        0x4 /usr/lib/gcc/i686-w64-mingw32/4.8/../../../../i686-w64-mingw32/lib/../lib/libuser32.a(dbukbs00091.o)
                0x000000000043a4f0                _imp__CreateWindowExA@48
 .idata$5       0x000000000043a4f4        0x4 /usr/lib/gcc/i686-w64-mingw32/4.8/../../../../i686-w64-mingw32/lib/../lib/libuser32.a(dbukbs00135.o)
                0x000000000043a4f4                _imp__DefWindowProcA@16
 .idata$5       0x000000000043a4f8        0x4 /usr/lib/gcc/i686-w64-mingw32/4.8/../../../../i686-w64-mingw32/lib/../lib/libuser32.a(dbukbs00145.o)
                0x000000000043a4f8                _imp__DestroyWindow@4
 .idata$5       0x000000000043a4fc        0x4 /usr/lib/gcc/i686-w64-mingw32/4.8/../../../../i686-w64-mingw32/lib/../lib/libuser32.a(dbukbs00148.o)
                0x000000000043a4fc                _imp__DialogBoxParamA@20
 .idata$5       0x000000000043a500        0x4 /usr/lib/gcc/i686-w64-mingw32/4.8/../../../../i686-w64-mingw32/lib/../lib/libuser32.a(dbukbs00150.o)
                0x000000000043a500                _imp__DispatchMessageA@4
 .idata$5       0x000000000043a504        0x4 /usr/lib/gcc/i686-w64-mingw32/4.8/../../../../i686-w64-mingw32/lib/../lib/libuser32.a(dbukbs00173.o)
                0x000000000043a504                _imp__DrawTextA@20
 .idata$5       0x000000000043a508        0x4 /usr/lib/gcc/i686-w64-mingw32/4.8/../../../../i686-w64-mingw32/lib/../lib/libuser32.a(dbukbs00178.o)
                0x000000000043a508                _imp__EmptyClipboard@0
 .idata$5       0x000000000043a50c        0x4 /usr/lib/gcc/i686-w64-mingw32/4.8/../../../../i686-w64-mingw32/lib/../lib/libuser32.a(dbukbs00179.o)
                0x000000000043a50c                _imp__EnableMenuItem@12
 .idata$5       0x000000000043a510        0x4 /usr/lib/gcc/i686-w64-mingw32/4.8/../../../../i686-w64-mingw32/lib/../lib/libuser32.a(dbukbs00181.o)
                0x000000000043a510                _imp__EnableWindow@8
 .idata$5       0x000000000043a514        0x4 /usr/lib/gcc/i686-w64-mingw32/4.8/../../../../i686-w64-mingw32/lib/../lib/libuser32.a(dbukbs00183.o)
                0x000000000043a514                _imp__EndDialog@8
 .idata$5       0x000000000043a518        0x4 /usr/lib/gcc/i686-w64-mingw32/4.8/../../../../i686-w64-mingw32/lib/../lib/libuser32.a(dbukbs00185.o)
                0x000000000043a518                _imp__EndPaint@8
 .idata$5       0x000000000043a51c        0x4 /usr/lib/gcc/i686-w64-mingw32/4.8/../../../../i686-w64-mingw32/lib/../lib/libuser32.a(dbukbs00209.o)
                0x000000000043a51c                _imp__ExitWindowsEx@8
 .idata$5       0x000000000043a520        0x4 /usr/lib/gcc/i686-w64-mingw32/4.8/../../../../i686-w64-mingw32/lib/../lib/libuser32.a(dbukbs00210.o)
                0x000000000043a520                _imp__FillRect@12
 .idata$5       0x000000000043a524        0x4 /usr/lib/gcc/i686-w64-mingw32/4.8/../../../../i686-w64-mingw32/lib/../lib/libuser32.a(dbukbs00212.o)
                0x000000000043a524                _imp__FindWindowExA@16
 .idata$5       0x000000000043a528        0x4 /usr/lib/gcc/i686-w64-mingw32/4.8/../../../../i686-w64-mingw32/lib/../lib/libuser32.a(dbukbs00224.o)
                0x000000000043a528                _imp__GetAsyncKeyState@4
 .idata$5       0x000000000043a52c        0x4 /usr/lib/gcc/i686-w64-mingw32/4.8/../../../../i686-w64-mingw32/lib/../lib/libuser32.a(dbukbs00228.o)
                0x000000000043a52c                _imp__GetClassInfoA@12
 .idata$5       0x000000000043a530        0x4 /usr/lib/gcc/i686-w64-mingw32/4.8/../../../../i686-w64-mingw32/lib/../lib/libuser32.a(dbukbs00237.o)
                0x000000000043a530                _imp__GetClientRect@8
 .idata$5       0x000000000043a534        0x4 /usr/lib/gcc/i686-w64-mingw32/4.8/../../../../i686-w64-mingw32/lib/../lib/libuser32.a(dbukbs00249.o)
                0x000000000043a534                _imp__GetDC@4
 .idata$5       0x000000000043a538        0x4 /usr/lib/gcc/i686-w64-mingw32/4.8/../../../../i686-w64-mingw32/lib/../lib/libuser32.a(dbukbs00254.o)
                0x000000000043a538                _imp__GetDlgItem@8
 .idata$5       0x000000000043a53c        0x4 /usr/lib/gcc/i686-w64-mingw32/4.8/../../../../i686-w64-mingw32/lib/../lib/libuser32.a(dbukbs00256.o)
                0x000000000043a53c                _imp__GetDlgItemTextA@16
 .idata$5       0x000000000043a540        0x4 /usr/lib/gcc/i686-w64-mingw32/4.8/../../../../i686-w64-mingw32/lib/../lib/libuser32.a(dbukbs00299.o)
                0x000000000043a540                _imp__GetMessagePos@0
 .idata$5       0x000000000043a544        0x4 /usr/lib/gcc/i686-w64-mingw32/4.8/../../../../i686-w64-mingw32/lib/../lib/libuser32.a(dbukbs00327.o)
                0x000000000043a544                _imp__GetSysColor@4
 .idata$5       0x000000000043a548        0x4 /usr/lib/gcc/i686-w64-mingw32/4.8/../../../../i686-w64-mingw32/lib/../lib/libuser32.a(dbukbs00329.o)
                0x000000000043a548                _imp__GetSystemMenu@8
 .idata$5       0x000000000043a54c        0x4 /usr/lib/gcc/i686-w64-mingw32/4.8/../../../../i686-w64-mingw32/lib/../lib/libuser32.a(dbukbs00330.o)
                0x000000000043a54c                _imp__GetSystemMetrics@4
 .idata$5       0x000000000043a550        0x4 /usr/lib/gcc/i686-w64-mingw32/4.8/../../../../i686-w64-mingw32/lib/../lib/libuser32.a(dbukbs00346.o)
                0x000000000043a550                _imp__GetWindowLongA@8
 .idata$5       0x000000000043a554        0x4 /usr/lib/gcc/i686-w64-mingw32/4.8/../../../../i686-w64-mingw32/lib/../lib/libuser32.a(dbukbs00352.o)
                0x000000000043a554                _imp__GetWindowRect@8
 .idata$5       0x000000000043a558        0x4 /usr/lib/gcc/i686-w64-mingw32/4.8/../../../../i686-w64-mingw32/lib/../lib/libuser32.a(dbukbs00374.o)
                0x000000000043a558                _imp__InvalidateRect@12
 .idata$5       0x000000000043a55c        0x4 /usr/lib/gcc/i686-w64-mingw32/4.8/../../../../i686-w64-mingw32/lib/../lib/libuser32.a(dbukbs00390.o)
                0x000000000043a55c                _imp__IsDlgButtonChecked@8
 .idata$5       0x000000000043a560        0x4 /usr/lib/gcc/i686-w64-mingw32/4.8/../../../../i686-w64-mingw32/lib/../lib/libuser32.a(dbukbs00398.o)
                0x000000000043a560                _imp__IsWindow@4
 .idata$5       0x000000000043a564        0x4 /usr/lib/gcc/i686-w64-mingw32/4.8/../../../../i686-w64-mingw32/lib/../lib/libuser32.a(dbukbs00399.o)
                0x000000000043a564                _imp__IsWindowEnabled@4
 .idata$5       0x000000000043a568        0x4 /usr/lib/gcc/i686-w64-mingw32/4.8/../../../../i686-w64-mingw32/lib/../lib/libuser32.a(dbukbs00401.o)
                0x000000000043a568                _imp__IsWindowVisible@4
 .idata$5       0x000000000043a56c        0x4 /usr/lib/gcc/i686-w64-mingw32/4.8/../../../../i686-w64-mingw32/lib/../lib/libuser32.a(dbukbs00407.o)
                0x000000000043a56c                _imp__LoadBitmapA@8
 .idata$5       0x000000000043a570        0x4 /usr/lib/gcc/i686-w64-mingw32/4.8/../../../../i686-w64-mingw32/lib/../lib/libuser32.a(dbukbs00409.o)
                0x000000000043a570                _imp__LoadCursorA@8
 .idata$5       0x000000000043a574        0x4 /usr/lib/gcc/i686-w64-mingw32/4.8/../../../../i686-w64-mingw32/lib/../lib/libuser32.a(dbukbs00415.o)
                0x000000000043a574                _imp__LoadImageA@24
 .idata$5       0x000000000043a578        0x4 /usr/lib/gcc/i686-w64-mingw32/4.8/../../../../i686-w64-mingw32/lib/../lib/libuser32.a(dbukbs00441.o)
                0x000000000043a578                _imp__MessageBoxIndirectA@4
 .idata$5       0x000000000043a57c        0x4 /usr/lib/gcc/i686-w64-mingw32/4.8/../../../../i686-w64-mingw32/lib/../lib/libuser32.a(dbukbs00459.o)
                0x000000000043a57c                _imp__OpenClipboard@4
 .idata$5       0x000000000043a580        0x4 /usr/lib/gcc/i686-w64-mingw32/4.8/../../../../i686-w64-mingw32/lib/../lib/libuser32.a(dbukbs00468.o)
                0x000000000043a580                _imp__PeekMessageA@20
 .idata$5       0x000000000043a584        0x4 /usr/lib/gcc/i686-w64-mingw32/4.8/../../../../i686-w64-mingw32/lib/../lib/libuser32.a(dbukbs00472.o)
                0x000000000043a584                _imp__PostQuitMessage@4
 .idata$5       0x000000000043a588        0x4 /usr/lib/gcc/i686-w64-mingw32/4.8/../../../../i686-w64-mingw32/lib/../lib/libuser32.a(dbukbs00483.o)
                0x000000000043a588                _imp__RegisterClassA@4
 .idata$5       0x000000000043a58c        0x4 /usr/lib/gcc/i686-w64-mingw32/4.8/../../../../i686-w64-mingw32/lib/../lib/libuser32.a(dbukbs00504.o)
                0x000000000043a58c                _imp__ScreenToClient@8
 .idata$5       0x000000000043a590        0x4 /usr/lib/gcc/i686-w64-mingw32/4.8/../../../../i686-w64-mingw32/lib/../lib/libuser32.a(dbukbs00512.o)
                0x000000000043a590                _imp__SendMessageA@16
 .idata$5       0x000000000043a594        0x4 /usr/lib/gcc/i686-w64-mingw32/4.8/../../../../i686-w64-mingw32/lib/../lib/libuser32.a(dbukbs00515.o)
                0x000000000043a594                _imp__SendMessageTimeoutA@28
 .idata$5       0x000000000043a598        0x4 /usr/lib/gcc/i686-w64-mingw32/4.8/../../../../i686-w64-mingw32/lib/../lib/libuser32.a(dbukbs00524.o)
                0x000000000043a598                _imp__SetClassLongA@12
 .idata$5       0x000000000043a59c        0x4 /usr/lib/gcc/i686-w64-mingw32/4.8/../../../../i686-w64-mingw32/lib/../lib/libuser32.a(dbukbs00527.o)
                0x000000000043a59c                _imp__SetClipboardData@8
 .idata$5       0x000000000043a5a0        0x4 /usr/lib/gcc/i686-w64-mingw32/4.8/../../../../i686-w64-mingw32/lib/../lib/libuser32.a(dbukbs00529.o)
                0x000000000043a5a0                _imp__SetCursor@4
 .idata$5       0x000000000043a5a4        0x4 /usr/lib/gcc/i686-w64-mingw32/4.8/../../../../i686-w64-mingw32/lib/../lib/libuser32.a(dbukbs00534.o)
                0x000000000043a5a4                _imp__SetDlgItemTextA@12
 .idata$5       0x000000000043a5a8        0x4 /usr/lib/gcc/i686-w64-mingw32/4.8/../../../../i686-w64-mingw32/lib/../lib/libuser32.a(dbukbs00538.o)
                0x000000000043a5a8                _imp__SetForegroundWindow@4
 .idata$5       0x000000000043a5ac        0x4 /usr/lib/gcc/i686-w64-mingw32/4.8/../../../../i686-w64-mingw32/lib/../lib/libuser32.a(dbukbs00568.o)
                0x000000000043a5ac                _imp__SetTimer@16
 .idata$5       0x000000000043a5b0        0x4 /usr/lib/gcc/i686-w64-mingw32/4.8/../../../../i686-w64-mingw32/lib/../lib/libuser32.a(dbukbs00574.o)
                0x000000000043a5b0                _imp__SetWindowLongA@12
 .idata$5       0x000000000043a5b4        0x4 /usr/lib/gcc/i686-w64-mingw32/4.8/../../../../i686-w64-mingw32/lib/../lib/libuser32.a(dbukbs00577.o)
                0x000000000043a5b4                _imp__SetWindowPos@28
 .idata$5       0x000000000043a5b8        0x4 /usr/lib/gcc/i686-w64-mingw32/4.8/../../../../i686-w64-mingw32/lib/../lib/libuser32.a(dbukbs00579.o)
                0x000000000043a5b8                _imp__SetWindowTextA@8
 .idata$5       0x000000000043a5bc        0x4 /usr/lib/gcc/i686-w64-mingw32/4.8/../../../../i686-w64-mingw32/lib/../lib/libuser32.a(dbukbs00590.o)
                0x000000000043a5bc                _imp__ShowWindow@8
 .idata$5       0x000000000043a5c0        0x4 /usr/lib/gcc/i686-w64-mingw32/4.8/../../../../i686-w64-mingw32/lib/../lib/libuser32.a(dbukbs00596.o)
                0x000000000043a5c0                _imp__SystemParametersInfoA@16
 .idata$5       0x000000000043a5c4        0x4 /usr/lib/gcc/i686-w64-mingw32/4.8/../../../../i686-w64-mingw32/lib/../lib/libuser32.a(dbukbs00607.o)
                0x000000000043a5c4                _imp__TrackPopupMenu@28
 .idata$5       0x000000000043a5c8        0x4 /usr/lib/gcc/i686-w64-mingw32/4.8/../../../../i686-w64-mingw32/lib/../lib/libuser32.a(dbukbs00644.o)
                0x000000000043a5c8                _imp__wsprintfA
 .idata$5       0x000000000043a5cc        0x4 /usr/lib/gcc/i686-w64-mingw32/4.8/../../../../i686-w64-mingw32/lib/../lib/libuser32.a(dbukbs00646.o)
                0x000000000043a5cc                _imp__wvsprintfA@12
 .idata$5       0x000000000043a5d0        0x4 /usr/lib/gcc/i686-w64-mingw32/4.8/../../../../i686-w64-mingw32/lib/../lib/libuser32.a(dbukbt.o)
 .idata$5       0x000000000043a5d4        0x0 /usr/lib/gcc/i686-w64-mingw32/4.8/../../../../i686-w64-mingw32/lib/../lib/libversion.a(dqukbh.o)
 .idata$5       0x000000000043a5d4        0x4 /usr/lib/gcc/i686-w64-mingw32/4.8/../../../../i686-w64-mingw32/lib/../lib/libversion.a(dqukbs00000.o)
                0x000000000043a5d4                _imp__GetFileVersionInfoA@16
 .idata$5       0x000000000043a5d8        0x4 /usr/lib/gcc/i686-w64-mingw32/4.8/../../../../i686-w64-mingw32/lib/../lib/libversion.a(dqukbs00001.o)
                0x000000000043a5d8                _imp__GetFileVersionInfoSizeA@8
 .idata$5       0x000000000043a5dc        0x4 /usr/lib/gcc/i686-w64-mingw32/4.8/../../../../i686-w64-mingw32/lib/../lib/libversion.a(dqukbs00010.o)
                0x000000000043a5dc                _imp__VerQueryValueA@16
 .idata$5       0x000000000043a5e0        0x4 /usr/lib/gcc/i686-w64-mingw32/4.8/../../../../i686-w64-mingw32/lib/../lib/libversion.a(dqukbt.o)
 SORT(*)(.idata$6)
 .idata$6       0x000000000043a5e4        0xe /usr/lib/gcc/i686-w64-mingw32/4.8/../../../../i686-w64-mingw32/lib/../lib/libadvapi32.a(drrjbs00568.o)
 .idata$6       0x000000000043a5f2       0x12 /usr/lib/gcc/i686-w64-mingw32/4.8/../../../../i686-w64-mingw32/lib/../lib/libadvapi32.a(drrjbs00576.o)
 .idata$6       0x000000000043a604       0x10 /usr/lib/gcc/i686-w64-mingw32/4.8/../../../../i686-w64-mingw32/lib/../lib/libadvapi32.a(drrjbs00581.o)
 .idata$6       0x000000000043a614       0x12 /usr/lib/gcc/i686-w64-mingw32/4.8/../../../../i686-w64-mingw32/lib/../lib/libadvapi32.a(drrjbs00591.o)
 .idata$6       0x000000000043a626        0xe /usr/lib/gcc/i686-w64-mingw32/4.8/../../../../i686-w64-mingw32/lib/../lib/libadvapi32.a(drrjbs00597.o)
 .idata$6       0x000000000043a634       0x10 /usr/lib/gcc/i686-w64-mingw32/4.8/../../../../i686-w64-mingw32/lib/../lib/libadvapi32.a(drrjbs00601.o)
 .idata$6       0x000000000043a644       0x10 /usr/lib/gcc/i686-w64-mingw32/4.8/../../../../i686-w64-mingw32/lib/../lib/libadvapi32.a(drrjbs00616.o)
 .idata$6       0x000000000043a654       0x14 /usr/lib/gcc/i686-w64-mingw32/4.8/../../../../i686-w64-mingw32/lib/../lib/libadvapi32.a(drrjbs00629.o)
 .idata$6       0x000000000043a668       0x12 /usr/lib/gcc/i686-w64-mingw32/4.8/../../../../i686-w64-mingw32/lib/../lib/libadvapi32.a(drrjbs00645.o)
 .idata$6       0x000000000043a67a       0x16 /usr/lib/gcc/i686-w64-mingw32/4.8/../../../../i686-w64-mingw32/lib/../lib/libcomctl32.a(dwtjbs00059.o)
 .idata$6       0x000000000043a690       0x14 /usr/lib/gcc/i686-w64-mingw32/4.8/../../../../i686-w64-mingw32/lib/../lib/libcomctl32.a(dwtjbs00062.o)
 .idata$6       0x000000000043a6a4       0x14 /usr/lib/gcc/i686-w64-mingw32/4.8/../../../../i686-w64-mingw32/lib/../lib/libcomctl32.a(dwtjbs00063.o)
 .idata$6       0x000000000043a6b8       0x16 /usr/lib/gcc/i686-w64-mingw32/4.8/../../../../i686-w64-mingw32/lib/../lib/libcomctl32.a(dwtjbs00094.o)
 .idata$6       0x000000000043a6ce       0x16 /usr/lib/gcc/i686-w64-mingw32/4.8/../../../../i686-w64-mingw32/lib/../lib/libgdi32.a(dtfkbs00030.o)
 .idata$6       0x000000000043a6e4       0x16 /usr/lib/gcc/i686-w64-mingw32/4.8/../../../../i686-w64-mingw32/lib/../lib/libgdi32.a(dtfkbs00047.o)
 .idata$6       0x000000000043a6fa       0x10 /usr/lib/gcc/i686-w64-mingw32/4.8/../../../../i686-w64-mingw32/lib/../lib/libgdi32.a(dtfkbs00075.o)
 .idata$6       0x000000000043a70a       0x10 /usr/lib/gcc/i686-w64-mingw32/4.8/../../../../i686-w64-mingw32/lib/../lib/libgdi32.a(dtfkbs00168.o)
 .idata$6       0x000000000043a71a       0x10 /usr/lib/gcc/i686-w64-mingw32/4.8/../../../../i686-w64-mingw32/lib/../lib/libgdi32.a(dtfkbs00305.o)
 .idata$6       0x000000000043a72a        0xe /usr/lib/gcc/i686-w64-mingw32/4.8/../../../../i686-w64-mingw32/lib/../lib/libgdi32.a(dtfkbs00311.o)
 .idata$6       0x000000000043a738        0xc /usr/lib/gcc/i686-w64-mingw32/4.8/../../../../i686-w64-mingw32/lib/../lib/libgdi32.a(dtfkbs00312.o)
 .idata$6       0x000000000043a744       0x10 /usr/lib/gcc/i686-w64-mingw32/4.8/../../../../i686-w64-mingw32/lib/../lib/libgdi32.a(dtfkbs00348.o)
 .idata$6       0x000000000043a754        0xe /usr/lib/gcc/i686-w64-mingw32/4.8/../../../../i686-w64-mingw32/lib/../lib/libkernel32.a(dnqfbs00083.o)
 .idata$6       0x000000000043a762       0x12 /usr/lib/gcc/i686-w64-mingw32/4.8/../../../../i686-w64-mingw32/lib/../lib/libkernel32.a(dnqfbs00097.o)
 .idata$6       0x000000000043a774        0xc /usr/lib/gcc/i686-w64-mingw32/4.8/../../../../i686-w64-mingw32/lib/../lib/libkernel32.a(dnqfbs00114.o)
 .idata$6       0x000000000043a780       0x14 /usr/lib/gcc/i686-w64-mingw32/4.8/../../../../i686-w64-mingw32/lib/../lib/libkernel32.a(dnqfbs00126.o)
 .idata$6       0x000000000043a794        0xe /usr/lib/gcc/i686-w64-mingw32/4.8/../../../../i686-w64-mingw32/lib/../lib/libkernel32.a(dnqfbs00139.o)
 .idata$6       0x000000000043a7a2       0x12 /usr/lib/gcc/i686-w64-mingw32/4.8/../../../../i686-w64-mingw32/lib/../lib/libkernel32.a(dnqfbs00167.o)
 .idata$6       0x000000000043a7b4       0x10 /usr/lib/gcc/i686-w64-mingw32/4.8/../../../../i686-w64-mingw32/lib/../lib/libkernel32.a(dnqfbs00183.o)
 .idata$6       0x000000000043a7c4        0xe /usr/lib/gcc/i686-w64-mingw32/4.8/../../../../i686-w64-mingw32/lib/../lib/libkernel32.a(dnqfbs00214.o)
 .idata$6       0x000000000043a7d2        0xe /usr/lib/gcc/i686-w64-mingw32/4.8/../../../../i686-w64-mingw32/lib/../lib/libkernel32.a(dnqfbs00282.o)
 .idata$6       0x000000000043a7e0       0x1c /usr/lib/gcc/i686-w64-mingw32/4.8/../../../../i686-w64-mingw32/lib/../lib/libkernel32.a(dnqfbs00285.o)
 .idata$6       0x000000000043a7fc        0xc /usr/lib/gcc/i686-w64-mingw32/4.8/../../../../i686-w64-mingw32/lib/../lib/libkernel32.a(dnqfbs00304.o)
 .idata$6       0x000000000043a808       0x12 /usr/lib/gcc/i686-w64-mingw32/4.8/../../../../i686-w64-mingw32/lib/../lib/libkernel32.a(dnqfbs00308.o)
 .idata$6       0x000000000043a81a       0x10 /usr/lib/gcc/i686-w64-mingw32/4.8/../../../../i686-w64-mingw32/lib/../lib/libkernel32.a(dnqfbs00325.o)
 .idata$6       0x000000000043a82a        0xe /usr/lib/gcc/i686-w64-mingw32/4.8/../../../../i686-w64-mingw32/lib/../lib/libkernel32.a(dnqfbs00356.o)
 .idata$6       0x000000000043a838       0x12 /usr/lib/gcc/i686-w64-mingw32/4.8/../../../../i686-w64-mingw32/lib/../lib/libkernel32.a(dnqfbs00394.o)
 .idata$6       0x000000000043a84a       0x14 /usr/lib/gcc/i686-w64-mingw32/4.8/../../../../i686-w64-mingw32/lib/../lib/libkernel32.a(dnqfbs00452.o)
 .idata$6       0x000000000043a85e       0x14 /usr/lib/gcc/i686-w64-mingw32/4.8/../../../../i686-w64-mingw32/lib/../lib/libkernel32.a(dnqfbs00464.o)
 .idata$6       0x000000000043a872       0x16 /usr/lib/gcc/i686-w64-mingw32/4.8/../../../../i686-w64-mingw32/lib/../lib/libkernel32.a(dnqfbs00482.o)
 .idata$6       0x000000000043a888       0x16 /usr/lib/gcc/i686-w64-mingw32/4.8/../../../../i686-w64-mingw32/lib/../lib/libkernel32.a(dnqfbs00486.o)
 .idata$6       0x000000000043a89e        0xe /usr/lib/gcc/i686-w64-mingw32/4.8/../../../../i686-w64-mingw32/lib/../lib/libkernel32.a(dnqfbs00497.o)
 .idata$6       0x000000000043a8ac       0x14 /usr/lib/gcc/i686-w64-mingw32/4.8/../../../../i686-w64-mingw32/lib/../lib/libkernel32.a(dnqfbs00505.o)
 .idata$6       0x000000000043a8c0       0x10 /usr/lib/gcc/i686-w64-mingw32/4.8/../../../../i686-w64-mingw32/lib/../lib/libkernel32.a(dnqfbs00515.o)
 .idata$6       0x000000000043a8d0       0x16 /usr/lib/gcc/i686-w64-mingw32/4.8/../../../../i686-w64-mingw32/lib/../lib/libkernel32.a(dnqfbs00531.o)
 .idata$6       0x000000000043a8e6       0x14 /usr/lib/gcc/i686-w64-mingw32/4.8/../../../../i686-w64-mingw32/lib/../lib/libkernel32.a(dnqfbs00533.o)
 .idata$6       0x000000000043a8fa       0x1c /usr/lib/gcc/i686-w64-mingw32/4.8/../../../../i686-w64-mingw32/lib/../lib/libkernel32.a(dnqfbs00577.o)
 .idata$6       0x000000000043a916       0x12 /usr/lib/gcc/i686-w64-mingw32/4.8/../../../../i686-w64-mingw32/lib/../lib/libkernel32.a(dnqfbs00581.o)
 .idata$6       0x000000000043a928       0x14 /usr/lib/gcc/i686-w64-mingw32/4.8/../../../../i686-w64-mingw32/lib/../lib/libkernel32.a(dnqfbs00610.o)
 .idata$6       0x000000000043a93c       0x16 /usr/lib/gcc/i686-w64-mingw32/4.8/../../../../i686-w64-mingw32/lib/../lib/libkernel32.a(dnqfbs00625.o)
 .idata$6       0x000000000043a952       0x14 /usr/lib/gcc/i686-w64-mingw32/4.8/../../../../i686-w64-mingw32/lib/../lib/libkernel32.a(dnqfbs00645.o)
 .idata$6       0x000000000043a966       0x10 /usr/lib/gcc/i686-w64-mingw32/4.8/../../../../i686-w64-mingw32/lib/../lib/libkernel32.a(dnqfbs00647.o)
 .idata$6       0x000000000043a976       0x10 /usr/lib/gcc/i686-w64-mingw32/4.8/../../../../i686-w64-mingw32/lib/../lib/libkernel32.a(dnqfbs00663.o)
 .idata$6       0x000000000043a986        0xe /usr/lib/gcc/i686-w64-mingw32/4.8/../../../../i686-w64-mingw32/lib/../lib/libkernel32.a(dnqfbs00677.o)
 .idata$6       0x000000000043a994       0x18 /usr/lib/gcc/i686-w64-mingw32/4.8/../../../../i686-w64-mingw32/lib/../lib/libkernel32.a(dnqfbs00689.o)
 .idata$6       0x000000000043a9ac        0xe /usr/lib/gcc/i686-w64-mingw32/4.8/../../../../i686-w64-mingw32/lib/../lib/libkernel32.a(dnqfbs00695.o)
 .idata$6       0x000000000043a9ba        0xe /usr/lib/gcc/i686-w64-mingw32/4.8/../../../../i686-w64-mingw32/lib/../lib/libkernel32.a(dnqfbs00702.o)
 .idata$6       0x000000000043a9c8        0xe /usr/lib/gcc/i686-w64-mingw32/4.8/../../../../i686-w64-mingw32/lib/../lib/libkernel32.a(dnqfbs00706.o)
 .idata$6       0x000000000043a9d6       0x10 /usr/lib/gcc/i686-w64-mingw32/4.8/../../../../i686-w64-mingw32/lib/../lib/libkernel32.a(dnqfbs00714.o)
 .idata$6       0x000000000043a9e6       0x10 /usr/lib/gcc/i686-w64-mingw32/4.8/../../../../i686-w64-mingw32/lib/../lib/libkernel32.a(dnqfbs00809.o)
 .idata$6       0x000000000043a9f6       0x12 /usr/lib/gcc/i686-w64-mingw32/4.8/../../../../i686-w64-mingw32/lib/../lib/libkernel32.a(dnqfbs00810.o)
 .idata$6       0x000000000043aa08        0xc /usr/lib/gcc/i686-w64-mingw32/4.8/../../../../i686-w64-mingw32/lib/../lib/libkernel32.a(dnqfbs00844.o)
 .idata$6       0x000000000043aa14        0xa /usr/lib/gcc/i686-w64-mingw32/4.8/../../../../i686-w64-mingw32/lib/../lib/libkernel32.a(dnqfbs00852.o)
 .idata$6       0x000000000043aa1e       0x16 /usr/lib/gcc/i686-w64-mingw32/4.8/../../../../i686-w64-mingw32/lib/../lib/libkernel32.a(dnqfbs00853.o)
 .idata$6       0x000000000043aa34        0xc /usr/lib/gcc/i686-w64-mingw32/4.8/../../../../i686-w64-mingw32/lib/../lib/libkernel32.a(dnqfbs00941.o)
 .idata$6       0x000000000043aa40       0x14 /usr/lib/gcc/i686-w64-mingw32/4.8/../../../../i686-w64-mingw32/lib/../lib/libkernel32.a(dnqfbs00964.o)
 .idata$6       0x000000000043aa54        0xe /usr/lib/gcc/i686-w64-mingw32/4.8/../../../../i686-w64-mingw32/lib/../lib/libkernel32.a(dnqfbs00991.o)
 .idata$6       0x000000000043aa62       0x18 /usr/lib/gcc/i686-w64-mingw32/4.8/../../../../i686-w64-mingw32/lib/../lib/libkernel32.a(dnqfbs01040.o)
 .idata$6       0x000000000043aa7a       0x10 /usr/lib/gcc/i686-w64-mingw32/4.8/../../../../i686-w64-mingw32/lib/../lib/libkernel32.a(dnqfbs01052.o)
 .idata$6       0x000000000043aa8a       0x16 /usr/lib/gcc/i686-w64-mingw32/4.8/../../../../i686-w64-mingw32/lib/../lib/libkernel32.a(dnqfbs01057.o)
 .idata$6       0x000000000043aaa0       0x12 /usr/lib/gcc/i686-w64-mingw32/4.8/../../../../i686-w64-mingw32/lib/../lib/libkernel32.a(dnqfbs01065.o)
 .idata$6       0x000000000043aab2        0xe /usr/lib/gcc/i686-w64-mingw32/4.8/../../../../i686-w64-mingw32/lib/../lib/libkernel32.a(dnqfbs01069.o)
 .idata$6       0x000000000043aac0        0x8 /usr/lib/gcc/i686-w64-mingw32/4.8/../../../../i686-w64-mingw32/lib/../lib/libkernel32.a(dnqfbs01140.o)
 .idata$6       0x000000000043aac8       0x16 /usr/lib/gcc/i686-w64-mingw32/4.8/../../../../i686-w64-mingw32/lib/../lib/libkernel32.a(dnqfbs01218.o)
 .idata$6       0x000000000043aade        0xc /usr/lib/gcc/i686-w64-mingw32/4.8/../../../../i686-w64-mingw32/lib/../lib/libkernel32.a(dnqfbs01262.o)
 .idata$6       0x000000000043aaea       0x1e /usr/lib/gcc/i686-w64-mingw32/4.8/../../../../i686-w64-mingw32/lib/../lib/libkernel32.a(dnqfbs01268.o)
 .idata$6       0x000000000043ab08        0xc /usr/lib/gcc/i686-w64-mingw32/4.8/../../../../i686-w64-mingw32/lib/../lib/libkernel32.a(dnqfbs01289.o)
 .idata$6       0x000000000043ab14        0xc /usr/lib/gcc/i686-w64-mingw32/4.8/../../../../i686-w64-mingw32/lib/../lib/libkernel32.a(dnqfbs01292.o)
 .idata$6       0x000000000043ab20        0xc /usr/lib/gcc/i686-w64-mingw32/4.8/../../../../i686-w64-mingw32/lib/../lib/libkernel32.a(dnqfbs01295.o)
 .idata$6       0x000000000043ab2c        0xc /usr/lib/gcc/i686-w64-mingw32/4.8/../../../../i686-w64-mingw32/lib/../lib/libkernel32.a(dnqfbs01301.o)
 .idata$6       0x000000000043ab38        0xc /usr/lib/gcc/i686-w64-mingw32/4.8/../../../../i686-w64-mingw32/lib/../lib/libkernel32.a(dnqfbs01304.o)
 .idata$6       0x000000000043ab44       0x14 /usr/lib/gcc/i686-w64-mingw32/4.8/../../../../i686-w64-mingw32/lib/../lib/libole32.a(dxmkbs00016.o)
 .idata$6       0x000000000043ab58       0x10 /usr/lib/gcc/i686-w64-mingw32/4.8/../../../../i686-w64-mingw32/lib/../lib/libole32.a(dxmkbs00106.o)
 .idata$6       0x000000000043ab68       0x10 /usr/lib/gcc/i686-w64-mingw32/4.8/../../../../i686-w64-mingw32/lib/../lib/libole32.a(dxmkbs00248.o)
 .idata$6       0x000000000043ab78       0x12 /usr/lib/gcc/i686-w64-mingw32/4.8/../../../../i686-w64-mingw32/lib/../lib/libole32.a(dxmkbs00271.o)
 .idata$6       0x000000000043ab8a       0x16 /usr/lib/gcc/i686-w64-mingw32/4.8/../../../../i686-w64-mingw32/lib/../lib/libshell32.a(dyxfbs00063.o)
 .idata$6       0x000000000043aba0       0x14 /usr/lib/gcc/i686-w64-mingw32/4.8/../../../../i686-w64-mingw32/lib/../lib/libshell32.a(dyxfbs00077.o)
 .idata$6       0x000000000043abb4       0x12 /usr/lib/gcc/i686-w64-mingw32/4.8/../../../../i686-w64-mingw32/lib/../lib/libshell32.a(dyxfbs00088.o)
 .idata$6       0x000000000043abc6       0x18 /usr/lib/gcc/i686-w64-mingw32/4.8/../../../../i686-w64-mingw32/lib/../lib/libshell32.a(dyxfbs00104.o)
 .idata$6       0x000000000043abde       0x1e /usr/lib/gcc/i686-w64-mingw32/4.8/../../../../i686-w64-mingw32/lib/../lib/libshell32.a(dyxfbs00108.o)
 .idata$6       0x000000000043abfc       0x10 /usr/lib/gcc/i686-w64-mingw32/4.8/../../../../i686-w64-mingw32/lib/../lib/libshell32.a(dyxfbs00148.o)
 .idata$6       0x000000000043ac0c        0xe /usr/lib/gcc/i686-w64-mingw32/4.8/../../../../i686-w64-mingw32/lib/../lib/libuser32.a(dbukbs00006.o)
 .idata$6       0x000000000043ac1a        0xe /usr/lib/gcc/i686-w64-mingw32/4.8/../../../../i686-w64-mingw32/lib/../lib/libuser32.a(dbukbs00011.o)
 .idata$6       0x000000000043ac28       0x12 /usr/lib/gcc/i686-w64-mingw32/4.8/../../../../i686-w64-mingw32/lib/../lib/libuser32.a(dbukbs00024.o)
 .idata$6       0x000000000043ac3a        0xc /usr/lib/gcc/i686-w64-mingw32/4.8/../../../../i686-w64-mingw32/lib/../lib/libuser32.a(dbukbs00039.o)
 .idata$6       0x000000000043ac46        0xc /usr/lib/gcc/i686-w64-mingw32/4.8/../../../../i686-w64-mingw32/lib/../lib/libuser32.a(dbukbs00042.o)
 .idata$6       0x000000000043ac52       0x12 /usr/lib/gcc/i686-w64-mingw32/4.8/../../../../i686-w64-mingw32/lib/../lib/libuser32.a(dbukbs00053.o)
 .idata$6       0x000000000043ac64       0x12 /usr/lib/gcc/i686-w64-mingw32/4.8/../../../../i686-w64-mingw32/lib/../lib/libuser32.a(dbukbs00061.o)
 .idata$6       0x000000000043ac76       0x16 /usr/lib/gcc/i686-w64-mingw32/4.8/../../../../i686-w64-mingw32/lib/../lib/libuser32.a(dbukbs00081.o)
 .idata$6       0x000000000043ac8c       0x12 /usr/lib/gcc/i686-w64-mingw32/4.8/../../../../i686-w64-mingw32/lib/../lib/libuser32.a(dbukbs00090.o)
 .idata$6       0x000000000043ac9e       0x12 /usr/lib/gcc/i686-w64-mingw32/4.8/../../../../i686-w64-mingw32/lib/../lib/libuser32.a(dbukbs00091.o)
 .idata$6       0x000000000043acb0       0x12 /usr/lib/gcc/i686-w64-mingw32/4.8/../../../../i686-w64-mingw32/lib/../lib/libuser32.a(dbukbs00135.o)
 .idata$6       0x000000000043acc2       0x10 /usr/lib/gcc/i686-w64-mingw32/4.8/../../../../i686-w64-mingw32/lib/../lib/libuser32.a(dbukbs00145.o)
 .idata$6       0x000000000043acd2       0x12 /usr/lib/gcc/i686-w64-mingw32/4.8/../../../../i686-w64-mingw32/lib/../lib/libuser32.a(dbukbs00148.o)
 .idata$6       0x000000000043ace4       0x14 /usr/lib/gcc/i686-w64-mingw32/4.8/../../../../i686-w64-mingw32/lib/../lib/libuser32.a(dbukbs00150.o)
 .idata$6       0x000000000043acf8        0xc /usr/lib/gcc/i686-w64-mingw32/4.8/../../../../i686-w64-mingw32/lib/../lib/libuser32.a(dbukbs00173.o)
 .idata$6       0x000000000043ad04       0x12 /usr/lib/gcc/i686-w64-mingw32/4.8/../../../../i686-w64-mingw32/lib/../lib/libuser32.a(dbukbs00178.o)
 .idata$6       0x000000000043ad16       0x12 /usr/lib/gcc/i686-w64-mingw32/4.8/../../../../i686-w64-mingw32/lib/../lib/libuser32.a(dbukbs00179.o)
 .idata$6       0x000000000043ad28       0x10 /usr/lib/gcc/i686-w64-mingw32/4.8/../../../../i686-w64-mingw32/lib/../lib/libuser32.a(dbukbs00181.o)
 .idata$6       0x000000000043ad38        0xc /usr/lib/gcc/i686-w64-mingw32/4.8/../../../../i686-w64-mingw32/lib/../lib/libuser32.a(dbukbs00183.o)
 .idata$6       0x000000000043ad44        0xc /usr/lib/gcc/i686-w64-mingw32/4.8/../../../../i686-w64-mingw32/lib/../lib/libuser32.a(dbukbs00185.o)
 .idata$6       0x000000000043ad50       0x10 /usr/lib/gcc/i686-w64-mingw32/4.8/../../../../i686-w64-mingw32/lib/../lib/libuser32.a(dbukbs00209.o)
 .idata$6       0x000000000043ad60        0xc /usr/lib/gcc/i686-w64-mingw32/4.8/../../../../i686-w64-mingw32/lib/../lib/libuser32.a(dbukbs00210.o)
 .idata$6       0x000000000043ad6c       0x10 /usr/lib/gcc/i686-w64-mingw32/4.8/../../../../i686-w64-mingw32/lib/../lib/libuser32.a(dbukbs00212.o)
 .idata$6       0x000000000043ad7c       0x14 /usr/lib/gcc/i686-w64-mingw32/4.8/../../../../i686-w64-mingw32/lib/../lib/libuser32.a(dbukbs00224.o)
 .idata$6       0x000000000043ad90       0x10 /usr/lib/gcc/i686-w64-mingw32/4.8/../../../../i686-w64-mingw32/lib/../lib/libuser32.a(dbukbs00228.o)
 .idata$6       0x000000000043ada0       0x10 /usr/lib/gcc/i686-w64-mingw32/4.8/../../../../i686-w64-mingw32/lib/../lib/libuser32.a(dbukbs00237.o)
 .idata$6       0x000000000043adb0        0x8 /usr/lib/gcc/i686-w64-mingw32/4.8/../../../../i686-w64-mingw32/lib/../lib/libuser32.a(dbukbs00249.o)
 .idata$6       0x000000000043adb8        0xe /usr/lib/gcc/i686-w64-mingw32/4.8/../../../../i686-w64-mingw32/lib/../lib/libuser32.a(dbukbs00254.o)
 .idata$6       0x000000000043adc6       0x12 /usr/lib/gcc/i686-w64-mingw32/4.8/../../../../i686-w64-mingw32/lib/../lib/libuser32.a(dbukbs00256.o)
 .idata$6       0x000000000043add8       0x10 /usr/lib/gcc/i686-w64-mingw32/4.8/../../../../i686-w64-mingw32/lib/../lib/libuser32.a(dbukbs00299.o)
 .idata$6       0x000000000043ade8        0xe /usr/lib/gcc/i686-w64-mingw32/4.8/../../../../i686-w64-mingw32/lib/../lib/libuser32.a(dbukbs00327.o)
 .idata$6       0x000000000043adf6       0x10 /usr/lib/gcc/i686-w64-mingw32/4.8/../../../../i686-w64-mingw32/lib/../lib/libuser32.a(dbukbs00329.o)
 .idata$6       0x000000000043ae06       0x14 /usr/lib/gcc/i686-w64-mingw32/4.8/../../../../i686-w64-mingw32/lib/../lib/libuser32.a(dbukbs00330.o)
 .idata$6       0x000000000043ae1a       0x12 /usr/lib/gcc/i686-w64-mingw32/4.8/../../../../i686-w64-mingw32/lib/../lib/libuser32.a(dbukbs00346.o)
 .idata$6       0x000000000043ae2c       0x10 /usr/lib/gcc/i686-w64-mingw32/4.8/../../../../i686-w64-mingw32/lib/../lib/libuser32.a(dbukbs00352.o)
 .idata$6       0x000000000043ae3c       0x12 /usr/lib/gcc/i686-w64-mingw32/4.8/../../../../i686-w64-mingw32/lib/../lib/libuser32.a(dbukbs00374.o)
 .idata$6       0x000000000043ae4e       0x16 /usr/lib/gcc/i686-w64-mingw32/4.8/../../../../i686-w64-mingw32/lib/../lib/libuser32.a(dbukbs00390.o)
 .idata$6       0x000000000043ae64        0xc /usr/lib/gcc/i686-w64-mingw32/4.8/../../../../i686-w64-mingw32/lib/../lib/libuser32.a(dbukbs00398.o)
 .idata$6       0x000000000043ae70       0x12 /usr/lib/gcc/i686-w64-mingw32/4.8/../../../../i686-w64-mingw32/lib/../lib/libuser32.a(dbukbs00399.o)
 .idata$6       0x000000000043ae82       0x12 /usr/lib/gcc/i686-w64-mingw32/4.8/../../../../i686-w64-mingw32/lib/../lib/libuser32.a(dbukbs00401.o)
 .idata$6       0x000000000043ae94        0xe /usr/lib/gcc/i686-w64-mingw32/4.8/../../../../i686-w64-mingw32/lib/../lib/libuser32.a(dbukbs00407.o)
 .idata$6       0x000000000043aea2        0xe /usr/lib/gcc/i686-w64-mingw32/4.8/../../../../i686-w64-mingw32/lib/../lib/libuser32.a(dbukbs00409.o)
 .idata$6       0x000000000043aeb0        0xe /usr/lib/gcc/i686-w64-mingw32/4.8/../../../../i686-w64-mingw32/lib/../lib/libuser32.a(dbukbs00415.o)
 .idata$6       0x000000000043aebe       0x16 /usr/lib/gcc/i686-w64-mingw32/4.8/../../../../i686-w64-mingw32/lib/../lib/libuser32.a(dbukbs00441.o)
 .idata$6       0x000000000043aed4       0x10 /usr/lib/gcc/i686-w64-mingw32/4.8/../../../../i686-w64-mingw32/lib/../lib/libuser32.a(dbukbs00459.o)
 .idata$6       0x000000000043aee4       0x10 /usr/lib/gcc/i686-w64-mingw32/4.8/../../../../i686-w64-mingw32/lib/../lib/libuser32.a(dbukbs00468.o)
 .idata$6       0x000000000043aef4       0x12 /usr/lib/gcc/i686-w64-mingw32/4.8/../../../../i686-w64-mingw32/lib/../lib/libuser32.a(dbukbs00472.o)
 .idata$6       0x000000000043af06       0x12 /usr/lib/gcc/i686-w64-mingw32/4.8/../../../../i686-w64-mingw32/lib/../lib/libuser32.a(dbukbs00483.o)
 .idata$6       0x000000000043af18       0x12 /usr/lib/gcc/i686-w64-mingw32/4.8/../../../../i686-w64-mingw32/lib/../lib/libuser32.a(dbukbs00504.o)
 .idata$6       0x000000000043af2a       0x10 /usr/lib/gcc/i686-w64-mingw32/4.8/../../../../i686-w64-mingw32/lib/../lib/libuser32.a(dbukbs00512.o)
 .idata$6       0x000000000043af3a       0x16 /usr/lib/gcc/i686-w64-mingw32/4.8/../../../../i686-w64-mingw32/lib/../lib/libuser32.a(dbukbs00515.o)
 .idata$6       0x000000000043af50       0x10 /usr/lib/gcc/i686-w64-mingw32/4.8/../../../../i686-w64-mingw32/lib/../lib/libuser32.a(dbukbs00524.o)
 .idata$6       0x000000000043af60       0x14 /usr/lib/gcc/i686-w64-mingw32/4.8/../../../../i686-w64-mingw32/lib/../lib/libuser32.a(dbukbs00527.o)
 .idata$6       0x000000000043af74        0xc /usr/lib/gcc/i686-w64-mingw32/4.8/../../../../i686-w64-mingw32/lib/../lib/libuser32.a(dbukbs00529.o)
 .idata$6       0x000000000043af80       0x12 /usr/lib/gcc/i686-w64-mingw32/4.8/../../../../i686-w64-mingw32/lib/../lib/libuser32.a(dbukbs00534.o)
 .idata$6       0x000000000043af92       0x16 /usr/lib/gcc/i686-w64-mingw32/4.8/../../../../i686-w64-mingw32/lib/../lib/libuser32.a(dbukbs00538.o)
 .idata$6       0x000000000043afa8        0xc /usr/lib/gcc/i686-w64-mingw32/4.8/../../../../i686-w64-mingw32/lib/../lib/libuser32.a(dbukbs00568.o)
 .idata$6       0x000000000043afb4       0x12 /usr/lib/gcc/i686-w64-mingw32/4.8/../../../../i686-w64-mingw32/lib/../lib/libuser32.a(dbukbs00574.o)
 .idata$6       0x000000000043afc6       0x10 /usr/lib/gcc/i686-w64-mingw32/4.8/../../../../i686-w64-mingw32/lib/../lib/libuser32.a(dbukbs00577.o)
 .idata$6       0x000000000043afd6       0x12 /usr/lib/gcc/i686-w64-mingw32/4.8/../../../../i686-w64-mingw32/lib/../lib/libuser32.a(dbukbs00579.o)
 .idata$6       0x000000000043afe8        0xe /usr/lib/gcc/i686-w64-mingw32/4.8/../../../../i686-w64-mingw32/lib/../lib/libuser32.a(dbukbs00590.o)
 .idata$6       0x000000000043aff6       0x18 /usr/lib/gcc/i686-w64-mingw32/4.8/../../../../i686-w64-mingw32/lib/../lib/libuser32.a(dbukbs00596.o)
 .idata$6       0x000000000043b00e       0x12 /usr/lib/gcc/i686-w64-mingw32/4.8/../../../../i686-w64-mingw32/lib/../lib/libuser32.a(dbukbs00607.o)
 .idata$6       0x000000000043b020        0xc /usr/lib/gcc/i686-w64-mingw32/4.8/../../../../i686-w64-mingw32/lib/../lib/libuser32.a(dbukbs00644.o)
 .idata$6       0x000000000043b02c        0xe /usr/lib/gcc/i686-w64-mingw32/4.8/../../../../i686-w64-mingw32/lib/../lib/libuser32.a(dbukbs00646.o)
 .idata$6       0x000000000043b03a       0x16 /usr/lib/gcc/i686-w64-mingw32/4.8/../../../../i686-w64-mingw32/lib/../lib/libversion.a(dqukbs00000.o)
 .idata$6       0x000000000043b050       0x1a /usr/lib/gcc/i686-w64-mingw32/4.8/../../../../i686-w64-mingw32/lib/../lib/libversion.a(dqukbs00001.o)
 .idata$6       0x000000000043b06a       0x12 /usr/lib/gcc/i686-w64-mingw32/4.8/../../../../i686-w64-mingw32/lib/../lib/libversion.a(dqukbs00010.o)
 SORT(*)(.idata$7)
 .idata$7       0x000000000043b07c        0x4 /usr/lib/gcc/i686-w64-mingw32/4.8/../../../../i686-w64-mingw32/lib/../lib/libadvapi32.a(drrjbs00568.o)
 .idata$7       0x000000000043b080        0x4 /usr/lib/gcc/i686-w64-mingw32/4.8/../../../../i686-w64-mingw32/lib/../lib/libadvapi32.a(drrjbs00576.o)
 .idata$7       0x000000000043b084        0x4 /usr/lib/gcc/i686-w64-mingw32/4.8/../../../../i686-w64-mingw32/lib/../lib/libadvapi32.a(drrjbs00581.o)
 .idata$7       0x000000000043b088        0x4 /usr/lib/gcc/i686-w64-mingw32/4.8/../../../../i686-w64-mingw32/lib/../lib/libadvapi32.a(drrjbs00591.o)
 .idata$7       0x000000000043b08c        0x4 /usr/lib/gcc/i686-w64-mingw32/4.8/../../../../i686-w64-mingw32/lib/../lib/libadvapi32.a(drrjbs00597.o)
 .idata$7       0x000000000043b090        0x4 /usr/lib/gcc/i686-w64-mingw32/4.8/../../../../i686-w64-mingw32/lib/../lib/libadvapi32.a(drrjbs00601.o)
 .idata$7       0x000000000043b094        0x4 /usr/lib/gcc/i686-w64-mingw32/4.8/../../../../i686-w64-mingw32/lib/../lib/libadvapi32.a(drrjbs00616.o)
 .idata$7       0x000000000043b098        0x4 /usr/lib/gcc/i686-w64-mingw32/4.8/../../../../i686-w64-mingw32/lib/../lib/libadvapi32.a(drrjbs00629.o)
 .idata$7       0x000000000043b09c        0x4 /usr/lib/gcc/i686-w64-mingw32/4.8/../../../../i686-w64-mingw32/lib/../lib/libadvapi32.a(drrjbs00645.o)
 .idata$7       0x000000000043b0a0       0x10 /usr/lib/gcc/i686-w64-mingw32/4.8/../../../../i686-w64-mingw32/lib/../lib/libadvapi32.a(drrjbt.o)
                0x000000000043b0a0                _lib32_libadvapi32_a_iname
 .idata$7       0x000000000043b0b0        0x4 /usr/lib/gcc/i686-w64-mingw32/4.8/../../../../i686-w64-mingw32/lib/../lib/libcomctl32.a(dwtjbs00059.o)
 .idata$7       0x000000000043b0b4        0x4 /usr/lib/gcc/i686-w64-mingw32/4.8/../../../../i686-w64-mingw32/lib/../lib/libcomctl32.a(dwtjbs00062.o)
 .idata$7       0x000000000043b0b8        0x4 /usr/lib/gcc/i686-w64-mingw32/4.8/../../../../i686-w64-mingw32/lib/../lib/libcomctl32.a(dwtjbs00063.o)
 .idata$7       0x000000000043b0bc        0x4 /usr/lib/gcc/i686-w64-mingw32/4.8/../../../../i686-w64-mingw32/lib/../lib/libcomctl32.a(dwtjbs00094.o)
 .idata$7       0x000000000043b0c0       0x10 /usr/lib/gcc/i686-w64-mingw32/4.8/../../../../i686-w64-mingw32/lib/../lib/libcomctl32.a(dwtjbt.o)
                0x000000000043b0c0                _lib32_libcomctl32_a_iname
 .idata$7       0x000000000043b0d0        0x4 /usr/lib/gcc/i686-w64-mingw32/4.8/../../../../i686-w64-mingw32/lib/../lib/libgdi32.a(dtfkbs00030.o)
 .idata$7       0x000000000043b0d4        0x4 /usr/lib/gcc/i686-w64-mingw32/4.8/../../../../i686-w64-mingw32/lib/../lib/libgdi32.a(dtfkbs00047.o)
 .idata$7       0x000000000043b0d8        0x4 /usr/lib/gcc/i686-w64-mingw32/4.8/../../../../i686-w64-mingw32/lib/../lib/libgdi32.a(dtfkbs00075.o)
 .idata$7       0x000000000043b0dc        0x4 /usr/lib/gcc/i686-w64-mingw32/4.8/../../../../i686-w64-mingw32/lib/../lib/libgdi32.a(dtfkbs00168.o)
 .idata$7       0x000000000043b0e0        0x4 /usr/lib/gcc/i686-w64-mingw32/4.8/../../../../i686-w64-mingw32/lib/../lib/libgdi32.a(dtfkbs00305.o)
 .idata$7       0x000000000043b0e4        0x4 /usr/lib/gcc/i686-w64-mingw32/4.8/../../../../i686-w64-mingw32/lib/../lib/libgdi32.a(dtfkbs00311.o)
 .idata$7       0x000000000043b0e8        0x4 /usr/lib/gcc/i686-w64-mingw32/4.8/../../../../i686-w64-mingw32/lib/../lib/libgdi32.a(dtfkbs00312.o)
 .idata$7       0x000000000043b0ec        0x4 /usr/lib/gcc/i686-w64-mingw32/4.8/../../../../i686-w64-mingw32/lib/../lib/libgdi32.a(dtfkbs00348.o)
 .idata$7       0x000000000043b0f0        0xc /usr/lib/gcc/i686-w64-mingw32/4.8/../../../../i686-w64-mingw32/lib/../lib/libgdi32.a(dtfkbt.o)
                0x000000000043b0f0                _lib32_libgdi32_a_iname
 .idata$7       0x000000000043b0fc        0x4 /usr/lib/gcc/i686-w64-mingw32/4.8/../../../../i686-w64-mingw32/lib/../lib/libkernel32.a(dnqfbs00083.o)
 .idata$7       0x000000000043b100        0x4 /usr/lib/gcc/i686-w64-mingw32/4.8/../../../../i686-w64-mingw32/lib/../lib/libkernel32.a(dnqfbs00097.o)
 .idata$7       0x000000000043b104        0x4 /usr/lib/gcc/i686-w64-mingw32/4.8/../../../../i686-w64-mingw32/lib/../lib/libkernel32.a(dnqfbs00114.o)
 .idata$7       0x000000000043b108        0x4 /usr/lib/gcc/i686-w64-mingw32/4.8/../../../../i686-w64-mingw32/lib/../lib/libkernel32.a(dnqfbs00126.o)
 .idata$7       0x000000000043b10c        0x4 /usr/lib/gcc/i686-w64-mingw32/4.8/../../../../i686-w64-mingw32/lib/../lib/libkernel32.a(dnqfbs00139.o)
 .idata$7       0x000000000043b110        0x4 /usr/lib/gcc/i686-w64-mingw32/4.8/../../../../i686-w64-mingw32/lib/../lib/libkernel32.a(dnqfbs00167.o)
 .idata$7       0x000000000043b114        0x4 /usr/lib/gcc/i686-w64-mingw32/4.8/../../../../i686-w64-mingw32/lib/../lib/libkernel32.a(dnqfbs00183.o)
 .idata$7       0x000000000043b118        0x4 /usr/lib/gcc/i686-w64-mingw32/4.8/../../../../i686-w64-mingw32/lib/../lib/libkernel32.a(dnqfbs00214.o)
 .idata$7       0x000000000043b11c        0x4 /usr/lib/gcc/i686-w64-mingw32/4.8/../../../../i686-w64-mingw32/lib/../lib/libkernel32.a(dnqfbs00282.o)
 .idata$7       0x000000000043b120        0x4 /usr/lib/gcc/i686-w64-mingw32/4.8/../../../../i686-w64-mingw32/lib/../lib/libkernel32.a(dnqfbs00285.o)
 .idata$7       0x000000000043b124        0x4 /usr/lib/gcc/i686-w64-mingw32/4.8/../../../../i686-w64-mingw32/lib/../lib/libkernel32.a(dnqfbs00304.o)
 .idata$7       0x000000000043b128        0x4 /usr/lib/gcc/i686-w64-mingw32/4.8/../../../../i686-w64-mingw32/lib/../lib/libkernel32.a(dnqfbs00308.o)
 .idata$7       0x000000000043b12c        0x4 /usr/lib/gcc/i686-w64-mingw32/4.8/../../../../i686-w64-mingw32/lib/../lib/libkernel32.a(dnqfbs00325.o)
 .idata$7       0x000000000043b130        0x4 /usr/lib/gcc/i686-w64-mingw32/4.8/../../../../i686-w64-mingw32/lib/../lib/libkernel32.a(dnqfbs00356.o)
 .idata$7       0x000000000043b134        0x4 /usr/lib/gcc/i686-w64-mingw32/4.8/../../../../i686-w64-mingw32/lib/../lib/libkernel32.a(dnqfbs00394.o)
 .idata$7       0x000000000043b138        0x4 /usr/lib/gcc/i686-w64-mingw32/4.8/../../../../i686-w64-mingw32/lib/../lib/libkernel32.a(dnqfbs00452.o)
 .idata$7       0x000000000043b13c        0x4 /usr/lib/gcc/i686-w64-mingw32/4.8/../../../../i686-w64-mingw32/lib/../lib/libkernel32.a(dnqfbs00464.o)
 .idata$7       0x000000000043b140        0x4 /usr/lib/gcc/i686-w64-mingw32/4.8/../../../../i686-w64-mingw32/lib/../lib/libkernel32.a(dnqfbs00482.o)
 .idata$7       0x000000000043b144        0x4 /usr/lib/gcc/i686-w64-mingw32/4.8/../../../../i686-w64-mingw32/lib/../lib/libkernel32.a(dnqfbs00486.o)
 .idata$7       0x000000000043b148        0x4 /usr/lib/gcc/i686-w64-mingw32/4.8/../../../../i686-w64-mingw32/lib/../lib/libkernel32.a(dnqfbs00497.o)
 .idata$7       0x000000000043b14c        0x4 /usr/lib/gcc/i686-w64-mingw32/4.8/../../../../i686-w64-mingw32/lib/../lib/libkernel32.a(dnqfbs00505.o)
 .idata$7       0x000000000043b150        0x4 /usr/lib/gcc/i686-w64-mingw32/4.8/../../../../i686-w64-mingw32/lib/../lib/libkernel32.a(dnqfbs00515.o)
 .idata$7       0x000000000043b154        0x4 /usr/lib/gcc/i686-w64-mingw32/4.8/../../../../i686-w64-mingw32/lib/../lib/libkernel32.a(dnqfbs00531.o)
 .idata$7       0x000000000043b158        0x4 /usr/lib/gcc/i686-w64-mingw32/4.8/../../../../i686-w64-mingw32/lib/../lib/libkernel32.a(dnqfbs00533.o)
 .idata$7       0x000000000043b15c        0x4 /usr/lib/gcc/i686-w64-mingw32/4.8/../../../../i686-w64-mingw32/lib/../lib/libkernel32.a(dnqfbs00577.o)
 .idata$7       0x000000000043b160        0x4 /usr/lib/gcc/i686-w64-mingw32/4.8/../../../../i686-w64-mingw32/lib/../lib/libkernel32.a(dnqfbs00581.o)
 .idata$7       0x000000000043b164        0x4 /usr/lib/gcc/i686-w64-mingw32/4.8/../../../../i686-w64-mingw32/lib/../lib/libkernel32.a(dnqfbs00610.o)
 .idata$7       0x000000000043b168        0x4 /usr/lib/gcc/i686-w64-mingw32/4.8/../../../../i686-w64-mingw32/lib/../lib/libkernel32.a(dnqfbs00625.o)
 .idata$7       0x000000000043b16c        0x4 /usr/lib/gcc/i686-w64-mingw32/4.8/../../../../i686-w64-mingw32/lib/../lib/libkernel32.a(dnqfbs00645.o)
 .idata$7       0x000000000043b170        0x4 /usr/lib/gcc/i686-w64-mingw32/4.8/../../../../i686-w64-mingw32/lib/../lib/libkernel32.a(dnqfbs00647.o)
 .idata$7       0x000000000043b174        0x4 /usr/lib/gcc/i686-w64-mingw32/4.8/../../../../i686-w64-mingw32/lib/../lib/libkernel32.a(dnqfbs00663.o)
 .idata$7       0x000000000043b178        0x4 /usr/lib/gcc/i686-w64-mingw32/4.8/../../../../i686-w64-mingw32/lib/../lib/libkernel32.a(dnqfbs00677.o)
 .idata$7       0x000000000043b17c        0x4 /usr/lib/gcc/i686-w64-mingw32/4.8/../../../../i686-w64-mingw32/lib/../lib/libkernel32.a(dnqfbs00689.o)
 .idata$7       0x000000000043b180        0x4 /usr/lib/gcc/i686-w64-mingw32/4.8/../../../../i686-w64-mingw32/lib/../lib/libkernel32.a(dnqfbs00695.o)
 .idata$7       0x000000000043b184        0x4 /usr/lib/gcc/i686-w64-mingw32/4.8/../../../../i686-w64-mingw32/lib/../lib/libkernel32.a(dnqfbs00702.o)
 .idata$7       0x000000000043b188        0x4 /usr/lib/gcc/i686-w64-mingw32/4.8/../../../../i686-w64-mingw32/lib/../lib/libkernel32.a(dnqfbs00706.o)
 .idata$7       0x000000000043b18c        0x4 /usr/lib/gcc/i686-w64-mingw32/4.8/../../../../i686-w64-mingw32/lib/../lib/libkernel32.a(dnqfbs00714.o)
 .idata$7       0x000000000043b190        0x4 /usr/lib/gcc/i686-w64-mingw32/4.8/../../../../i686-w64-mingw32/lib/../lib/libkernel32.a(dnqfbs00809.o)
 .idata$7       0x000000000043b194        0x4 /usr/lib/gcc/i686-w64-mingw32/4.8/../../../../i686-w64-mingw32/lib/../lib/libkernel32.a(dnqfbs00810.o)
 .idata$7       0x000000000043b198        0x4 /usr/lib/gcc/i686-w64-mingw32/4.8/../../../../i686-w64-mingw32/lib/../lib/libkernel32.a(dnqfbs00844.o)
 .idata$7       0x000000000043b19c        0x4 /usr/lib/gcc/i686-w64-mingw32/4.8/../../../../i686-w64-mingw32/lib/../lib/libkernel32.a(dnqfbs00852.o)
 .idata$7       0x000000000043b1a0        0x4 /usr/lib/gcc/i686-w64-mingw32/4.8/../../../../i686-w64-mingw32/lib/../lib/libkernel32.a(dnqfbs00853.o)
 .idata$7       0x000000000043b1a4        0x4 /usr/lib/gcc/i686-w64-mingw32/4.8/../../../../i686-w64-mingw32/lib/../lib/libkernel32.a(dnqfbs00941.o)
 .idata$7       0x000000000043b1a8        0x4 /usr/lib/gcc/i686-w64-mingw32/4.8/../../../../i686-w64-mingw32/lib/../lib/libkernel32.a(dnqfbs00964.o)
 .idata$7       0x000000000043b1ac        0x4 /usr/lib/gcc/i686-w64-mingw32/4.8/../../../../i686-w64-mingw32/lib/../lib/libkernel32.a(dnqfbs00991.o)
 .idata$7       0x000000000043b1b0        0x4 /usr/lib/gcc/i686-w64-mingw32/4.8/../../../../i686-w64-mingw32/lib/../lib/libkernel32.a(dnqfbs01040.o)
 .idata$7       0x000000000043b1b4        0x4 /usr/lib/gcc/i686-w64-mingw32/4.8/../../../../i686-w64-mingw32/lib/../lib/libkernel32.a(dnqfbs01052.o)
 .idata$7       0x000000000043b1b8        0x4 /usr/lib/gcc/i686-w64-mingw32/4.8/../../../../i686-w64-mingw32/lib/../lib/libkernel32.a(dnqfbs01057.o)
 .idata$7       0x000000000043b1bc        0x4 /usr/lib/gcc/i686-w64-mingw32/4.8/../../../../i686-w64-mingw32/lib/../lib/libkernel32.a(dnqfbs01065.o)
 .idata$7       0x000000000043b1c0        0x4 /usr/lib/gcc/i686-w64-mingw32/4.8/../../../../i686-w64-mingw32/lib/../lib/libkernel32.a(dnqfbs01069.o)
 .idata$7       0x000000000043b1c4        0x4 /usr/lib/gcc/i686-w64-mingw32/4.8/../../../../i686-w64-mingw32/lib/../lib/libkernel32.a(dnqfbs01140.o)
 .idata$7       0x000000000043b1c8        0x4 /usr/lib/gcc/i686-w64-mingw32/4.8/../../../../i686-w64-mingw32/lib/../lib/libkernel32.a(dnqfbs01218.o)
 .idata$7       0x000000000043b1cc        0x4 /usr/lib/gcc/i686-w64-mingw32/4.8/../../../../i686-w64-mingw32/lib/../lib/libkernel32.a(dnqfbs01262.o)
 .idata$7       0x000000000043b1d0        0x4 /usr/lib/gcc/i686-w64-mingw32/4.8/../../../../i686-w64-mingw32/lib/../lib/libkernel32.a(dnqfbs01268.o)
 .idata$7       0x000000000043b1d4        0x4 /usr/lib/gcc/i686-w64-mingw32/4.8/../../../../i686-w64-mingw32/lib/../lib/libkernel32.a(dnqfbs01289.o)
 .idata$7       0x000000000043b1d8        0x4 /usr/lib/gcc/i686-w64-mingw32/4.8/../../../../i686-w64-mingw32/lib/../lib/libkernel32.a(dnqfbs01292.o)
 .idata$7       0x000000000043b1dc        0x4 /usr/lib/gcc/i686-w64-mingw32/4.8/../../../../i686-w64-mingw32/lib/../lib/libkernel32.a(dnqfbs01295.o)
 .idata$7       0x000000000043b1e0        0x4 /usr/lib/gcc/i686-w64-mingw32/4.8/../../../../i686-w64-mingw32/lib/../lib/libkernel32.a(dnqfbs01301.o)
 .idata$7       0x000000000043b1e4        0x4 /usr/lib/gcc/i686-w64-mingw32/4.8/../../../../i686-w64-mingw32/lib/../lib/libkernel32.a(dnqfbs01304.o)
 .idata$7       0x000000000043b1e8       0x10 /usr/lib/gcc/i686-w64-mingw32/4.8/../../../../i686-w64-mingw32/lib/../lib/libkernel32.a(dnqfbt.o)
                0x000000000043b1e8                _lib32_libkernel32_a_iname
 .idata$7       0x000000000043b1f8        0x4 /usr/lib/gcc/i686-w64-mingw32/4.8/../../../../i686-w64-mingw32/lib/../lib/libole32.a(dxmkbs00016.o)
 .idata$7       0x000000000043b1fc        0x4 /usr/lib/gcc/i686-w64-mingw32/4.8/../../../../i686-w64-mingw32/lib/../lib/libole32.a(dxmkbs00106.o)
 .idata$7       0x000000000043b200        0x4 /usr/lib/gcc/i686-w64-mingw32/4.8/../../../../i686-w64-mingw32/lib/../lib/libole32.a(dxmkbs00248.o)
 .idata$7       0x000000000043b204        0x4 /usr/lib/gcc/i686-w64-mingw32/4.8/../../../../i686-w64-mingw32/lib/../lib/libole32.a(dxmkbs00271.o)
 .idata$7       0x000000000043b208        0xc /usr/lib/gcc/i686-w64-mingw32/4.8/../../../../i686-w64-mingw32/lib/../lib/libole32.a(dxmkbt.o)
                0x000000000043b208                _lib32_libole32_a_iname
 .idata$7       0x000000000043b214        0x4 /usr/lib/gcc/i686-w64-mingw32/4.8/../../../../i686-w64-mingw32/lib/../lib/libshell32.a(dyxfbs00063.o)
 .idata$7       0x000000000043b218        0x4 /usr/lib/gcc/i686-w64-mingw32/4.8/../../../../i686-w64-mingw32/lib/../lib/libshell32.a(dyxfbs00077.o)
 .idata$7       0x000000000043b21c        0x4 /usr/lib/gcc/i686-w64-mingw32/4.8/../../../../i686-w64-mingw32/lib/../lib/libshell32.a(dyxfbs00088.o)
 .idata$7       0x000000000043b220        0x4 /usr/lib/gcc/i686-w64-mingw32/4.8/../../../../i686-w64-mingw32/lib/../lib/libshell32.a(dyxfbs00104.o)
 .idata$7       0x000000000043b224        0x4 /usr/lib/gcc/i686-w64-mingw32/4.8/../../../../i686-w64-mingw32/lib/../lib/libshell32.a(dyxfbs00108.o)
 .idata$7       0x000000000043b228        0x4 /usr/lib/gcc/i686-w64-mingw32/4.8/../../../../i686-w64-mingw32/lib/../lib/libshell32.a(dyxfbs00148.o)
 .idata$7       0x000000000043b22c        0xc /usr/lib/gcc/i686-w64-mingw32/4.8/../../../../i686-w64-mingw32/lib/../lib/libshell32.a(dyxfbt.o)
                0x000000000043b22c                _lib32_libshell32_a_iname
 .idata$7       0x000000000043b238        0x4 /usr/lib/gcc/i686-w64-mingw32/4.8/../../../../i686-w64-mingw32/lib/../lib/libuser32.a(dbukbs00006.o)
 .idata$7       0x000000000043b23c        0x4 /usr/lib/gcc/i686-w64-mingw32/4.8/../../../../i686-w64-mingw32/lib/../lib/libuser32.a(dbukbs00011.o)
 .idata$7       0x000000000043b240        0x4 /usr/lib/gcc/i686-w64-mingw32/4.8/../../../../i686-w64-mingw32/lib/../lib/libuser32.a(dbukbs00024.o)
 .idata$7       0x000000000043b244        0x4 /usr/lib/gcc/i686-w64-mingw32/4.8/../../../../i686-w64-mingw32/lib/../lib/libuser32.a(dbukbs00039.o)
 .idata$7       0x000000000043b248        0x4 /usr/lib/gcc/i686-w64-mingw32/4.8/../../../../i686-w64-mingw32/lib/../lib/libuser32.a(dbukbs00042.o)
 .idata$7       0x000000000043b24c        0x4 /usr/lib/gcc/i686-w64-mingw32/4.8/../../../../i686-w64-mingw32/lib/../lib/libuser32.a(dbukbs00053.o)
 .idata$7       0x000000000043b250        0x4 /usr/lib/gcc/i686-w64-mingw32/4.8/../../../../i686-w64-mingw32/lib/../lib/libuser32.a(dbukbs00061.o)
 .idata$7       0x000000000043b254        0x4 /usr/lib/gcc/i686-w64-mingw32/4.8/../../../../i686-w64-mingw32/lib/../lib/libuser32.a(dbukbs00081.o)
 .idata$7       0x000000000043b258        0x4 /usr/lib/gcc/i686-w64-mingw32/4.8/../../../../i686-w64-mingw32/lib/../lib/libuser32.a(dbukbs00090.o)
 .idata$7       0x000000000043b25c        0x4 /usr/lib/gcc/i686-w64-mingw32/4.8/../../../../i686-w64-mingw32/lib/../lib/libuser32.a(dbukbs00091.o)
 .idata$7       0x000000000043b260        0x4 /usr/lib/gcc/i686-w64-mingw32/4.8/../../../../i686-w64-mingw32/lib/../lib/libuser32.a(dbukbs00135.o)
 .idata$7       0x000000000043b264        0x4 /usr/lib/gcc/i686-w64-mingw32/4.8/../../../../i686-w64-mingw32/lib/../lib/libuser32.a(dbukbs00145.o)
 .idata$7       0x000000000043b268        0x4 /usr/lib/gcc/i686-w64-mingw32/4.8/../../../../i686-w64-mingw32/lib/../lib/libuser32.a(dbukbs00148.o)
 .idata$7       0x000000000043b26c        0x4 /usr/lib/gcc/i686-w64-mingw32/4.8/../../../../i686-w64-mingw32/lib/../lib/libuser32.a(dbukbs00150.o)
 .idata$7       0x000000000043b270        0x4 /usr/lib/gcc/i686-w64-mingw32/4.8/../../../../i686-w64-mingw32/lib/../lib/libuser32.a(dbukbs00173.o)
 .idata$7       0x000000000043b274        0x4 /usr/lib/gcc/i686-w64-mingw32/4.8/../../../../i686-w64-mingw32/lib/../lib/libuser32.a(dbukbs00178.o)
 .idata$7       0x000000000043b278        0x4 /usr/lib/gcc/i686-w64-mingw32/4.8/../../../../i686-w64-mingw32/lib/../lib/libuser32.a(dbukbs00179.o)
 .idata$7       0x000000000043b27c        0x4 /usr/lib/gcc/i686-w64-mingw32/4.8/../../../../i686-w64-mingw32/lib/../lib/libuser32.a(dbukbs00181.o)
 .idata$7       0x000000000043b280        0x4 /usr/lib/gcc/i686-w64-mingw32/4.8/../../../../i686-w64-mingw32/lib/../lib/libuser32.a(dbukbs00183.o)
 .idata$7       0x000000000043b284        0x4 /usr/lib/gcc/i686-w64-mingw32/4.8/../../../../i686-w64-mingw32/lib/../lib/libuser32.a(dbukbs00185.o)
 .idata$7       0x000000000043b288        0x4 /usr/lib/gcc/i686-w64-mingw32/4.8/../../../../i686-w64-mingw32/lib/../lib/libuser32.a(dbukbs00209.o)
 .idata$7       0x000000000043b28c        0x4 /usr/lib/gcc/i686-w64-mingw32/4.8/../../../../i686-w64-mingw32/lib/../lib/libuser32.a(dbukbs00210.o)
 .idata$7       0x000000000043b290        0x4 /usr/lib/gcc/i686-w64-mingw32/4.8/../../../../i686-w64-mingw32/lib/../lib/libuser32.a(dbukbs00212.o)
 .idata$7       0x000000000043b294        0x4 /usr/lib/gcc/i686-w64-mingw32/4.8/../../../../i686-w64-mingw32/lib/../lib/libuser32.a(dbukbs00224.o)
 .idata$7       0x000000000043b298        0x4 /usr/lib/gcc/i686-w64-mingw32/4.8/../../../../i686-w64-mingw32/lib/../lib/libuser32.a(dbukbs00228.o)
 .idata$7       0x000000000043b29c        0x4 /usr/lib/gcc/i686-w64-mingw32/4.8/../../../../i686-w64-mingw32/lib/../lib/libuser32.a(dbukbs00237.o)
 .idata$7       0x000000000043b2a0        0x4 /usr/lib/gcc/i686-w64-mingw32/4.8/../../../../i686-w64-mingw32/lib/../lib/libuser32.a(dbukbs00249.o)
 .idata$7       0x000000000043b2a4        0x4 /usr/lib/gcc/i686-w64-mingw32/4.8/../../../../i686-w64-mingw32/lib/../lib/libuser32.a(dbukbs00254.o)
 .idata$7       0x000000000043b2a8        0x4 /usr/lib/gcc/i686-w64-mingw32/4.8/../../../../i686-w64-mingw32/lib/../lib/libuser32.a(dbukbs00256.o)
 .idata$7       0x000000000043b2ac        0x4 /usr/lib/gcc/i686-w64-mingw32/4.8/../../../../i686-w64-mingw32/lib/../lib/libuser32.a(dbukbs00299.o)
 .idata$7       0x000000000043b2b0        0x4 /usr/lib/gcc/i686-w64-mingw32/4.8/../../../../i686-w64-mingw32/lib/../lib/libuser32.a(dbukbs00327.o)
 .idata$7       0x000000000043b2b4        0x4 /usr/lib/gcc/i686-w64-mingw32/4.8/../../../../i686-w64-mingw32/lib/../lib/libuser32.a(dbukbs00329.o)
 .idata$7       0x000000000043b2b8        0x4 /usr/lib/gcc/i686-w64-mingw32/4.8/../../../../i686-w64-mingw32/lib/../lib/libuser32.a(dbukbs00330.o)
 .idata$7       0x000000000043b2bc        0x4 /usr/lib/gcc/i686-w64-mingw32/4.8/../../../../i686-w64-mingw32/lib/../lib/libuser32.a(dbukbs00346.o)
 .idata$7       0x000000000043b2c0        0x4 /usr/lib/gcc/i686-w64-mingw32/4.8/../../../../i686-w64-mingw32/lib/../lib/libuser32.a(dbukbs00352.o)
 .idata$7       0x000000000043b2c4        0x4 /usr/lib/gcc/i686-w64-mingw32/4.8/../../../../i686-w64-mingw32/lib/../lib/libuser32.a(dbukbs00374.o)
 .idata$7       0x000000000043b2c8        0x4 /usr/lib/gcc/i686-w64-mingw32/4.8/../../../../i686-w64-mingw32/lib/../lib/libuser32.a(dbukbs00390.o)
 .idata$7       0x000000000043b2cc        0x4 /usr/lib/gcc/i686-w64-mingw32/4.8/../../../../i686-w64-mingw32/lib/../lib/libuser32.a(dbukbs00398.o)
 .idata$7       0x000000000043b2d0        0x4 /usr/lib/gcc/i686-w64-mingw32/4.8/../../../../i686-w64-mingw32/lib/../lib/libuser32.a(dbukbs00399.o)
 .idata$7       0x000000000043b2d4        0x4 /usr/lib/gcc/i686-w64-mingw32/4.8/../../../../i686-w64-mingw32/lib/../lib/libuser32.a(dbukbs00401.o)
 .idata$7       0x000000000043b2d8        0x4 /usr/lib/gcc/i686-w64-mingw32/4.8/../../../../i686-w64-mingw32/lib/../lib/libuser32.a(dbukbs00407.o)
 .idata$7       0x000000000043b2dc        0x4 /usr/lib/gcc/i686-w64-mingw32/4.8/../../../../i686-w64-mingw32/lib/../lib/libuser32.a(dbukbs00409.o)
 .idata$7       0x000000000043b2e0        0x4 /usr/lib/gcc/i686-w64-mingw32/4.8/../../../../i686-w64-mingw32/lib/../lib/libuser32.a(dbukbs00415.o)
 .idata$7       0x000000000043b2e4        0x4 /usr/lib/gcc/i686-w64-mingw32/4.8/../../../../i686-w64-mingw32/lib/../lib/libuser32.a(dbukbs00441.o)
 .idata$7       0x000000000043b2e8        0x4 /usr/lib/gcc/i686-w64-mingw32/4.8/../../../../i686-w64-mingw32/lib/../lib/libuser32.a(dbukbs00459.o)
 .idata$7       0x000000000043b2ec        0x4 /usr/lib/gcc/i686-w64-mingw32/4.8/../../../../i686-w64-mingw32/lib/../lib/libuser32.a(dbukbs00468.o)
 .idata$7       0x000000000043b2f0        0x4 /usr/lib/gcc/i686-w64-mingw32/4.8/../../../../i686-w64-mingw32/lib/../lib/libuser32.a(dbukbs00472.o)
 .idata$7       0x000000000043b2f4        0x4 /usr/lib/gcc/i686-w64-mingw32/4.8/../../../../i686-w64-mingw32/lib/../lib/libuser32.a(dbukbs00483.o)
 .idata$7       0x000000000043b2f8        0x4 /usr/lib/gcc/i686-w64-mingw32/4.8/../../../../i686-w64-mingw32/lib/../lib/libuser32.a(dbukbs00504.o)
 .idata$7       0x000000000043b2fc        0x4 /usr/lib/gcc/i686-w64-mingw32/4.8/../../../../i686-w64-mingw32/lib/../lib/libuser32.a(dbukbs00512.o)
 .idata$7       0x000000000043b300        0x4 /usr/lib/gcc/i686-w64-mingw32/4.8/../../../../i686-w64-mingw32/lib/../lib/libuser32.a(dbukbs00515.o)
 .idata$7       0x000000000043b304        0x4 /usr/lib/gcc/i686-w64-mingw32/4.8/../../../../i686-w64-mingw32/lib/../lib/libuser32.a(dbukbs00524.o)
 .idata$7       0x000000000043b308        0x4 /usr/lib/gcc/i686-w64-mingw32/4.8/../../../../i686-w64-mingw32/lib/../lib/libuser32.a(dbukbs00527.o)
 .idata$7       0x000000000043b30c        0x4 /usr/lib/gcc/i686-w64-mingw32/4.8/../../../../i686-w64-mingw32/lib/../lib/libuser32.a(dbukbs00529.o)
 .idata$7       0x000000000043b310        0x4 /usr/lib/gcc/i686-w64-mingw32/4.8/../../../../i686-w64-mingw32/lib/../lib/libuser32.a(dbukbs00534.o)
 .idata$7       0x000000000043b314        0x4 /usr/lib/gcc/i686-w64-mingw32/4.8/../../../../i686-w64-mingw32/lib/../lib/libuser32.a(dbukbs00538.o)
 .idata$7       0x000000000043b318        0x4 /usr/lib/gcc/i686-w64-mingw32/4.8/../../../../i686-w64-mingw32/lib/../lib/libuser32.a(dbukbs00568.o)
 .idata$7       0x000000000043b31c        0x4 /usr/lib/gcc/i686-w64-mingw32/4.8/../../../../i686-w64-mingw32/lib/../lib/libuser32.a(dbukbs00574.o)
 .idata$7       0x000000000043b320        0x4 /usr/lib/gcc/i686-w64-mingw32/4.8/../../../../i686-w64-mingw32/lib/../lib/libuser32.a(dbukbs00577.o)
 .idata$7       0x000000000043b324        0x4 /usr/lib/gcc/i686-w64-mingw32/4.8/../../../../i686-w64-mingw32/lib/../lib/libuser32.a(dbukbs00579.o)
 .idata$7       0x000000000043b328        0x4 /usr/lib/gcc/i686-w64-mingw32/4.8/../../../../i686-w64-mingw32/lib/../lib/libuser32.a(dbukbs00590.o)
 .idata$7       0x000000000043b32c        0x4 /usr/lib/gcc/i686-w64-mingw32/4.8/../../../../i686-w64-mingw32/lib/../lib/libuser32.a(dbukbs00596.o)
 .idata$7       0x000000000043b330        0x4 /usr/lib/gcc/i686-w64-mingw32/4.8/../../../../i686-w64-mingw32/lib/../lib/libuser32.a(dbukbs00607.o)
 .idata$7       0x000000000043b334        0x4 /usr/lib/gcc/i686-w64-mingw32/4.8/../../../../i686-w64-mingw32/lib/../lib/libuser32.a(dbukbs00644.o)
 .idata$7       0x000000000043b338        0x4 /usr/lib/gcc/i686-w64-mingw32/4.8/../../../../i686-w64-mingw32/lib/../lib/libuser32.a(dbukbs00646.o)
 .idata$7       0x000000000043b33c        0xc /usr/lib/gcc/i686-w64-mingw32/4.8/../../../../i686-w64-mingw32/lib/../lib/libuser32.a(dbukbt.o)
                0x000000000043b33c                _lib32_libuser32_a_iname
 .idata$7       0x000000000043b348        0x4 /usr/lib/gcc/i686-w64-mingw32/4.8/../../../../i686-w64-mingw32/lib/../lib/libversion.a(dqukbs00000.o)
 .idata$7       0x000000000043b34c        0x4 /usr/lib/gcc/i686-w64-mingw32/4.8/../../../../i686-w64-mingw32/lib/../lib/libversion.a(dqukbs00001.o)
 .idata$7       0x000000000043b350        0x4 /usr/lib/gcc/i686-w64-mingw32/4.8/../../../../i686-w64-mingw32/lib/../lib/libversion.a(dqukbs00010.o)
 .idata$7       0x000000000043b354        0xc /usr/lib/gcc/i686-w64-mingw32/4.8/../../../../i686-w64-mingw32/lib/../lib/libversion.a(dqukbt.o)
                0x000000000043b354                _lib32_libversion_a_iname

.CRT            0x000000000043c000        0x0
                0x000000000043c000                ___crt_xc_start__ = .
 *(SORT(.CRT$XC*))
                0x000000000043c000                ___crt_xc_end__ = .
                0x000000000043c000                ___crt_xi_start__ = .
 *(SORT(.CRT$XI*))
                0x000000000043c000                ___crt_xi_end__ = .
                0x000000000043c000                ___crt_xl_start__ = .
 *(SORT(.CRT$XL*))
                0x000000000043c000                ___crt_xp_start__ = .
 *(SORT(.CRT$XP*))
                0x000000000043c000                ___crt_xp_end__ = .
                0x000000000043c000                ___crt_xt_start__ = .
 *(SORT(.CRT$XT*))
                0x000000000043c000                ___crt_xt_end__ = .

.tls            0x000000000043c000        0x0
                0x000000000043c000                ___tls_start__ = .
 *(.tls)
 *(.tls$)
 *(SORT(.tls$*))
                0x000000000043c000                ___tls_end__ = .

.endjunk        0x000000000043c000        0x0
                0x000000000043c000                PROVIDE (end, .)
                0x000000000043c000                PROVIDE (_end, .)
                0x000000000043c000                __end__ = .

.ndata          0x000000000043c000      0x400
 *(.ndata)
 .ndata         0x000000000043c000      0x400 build/release/stub_zlib_solid/util.o
                0x000000000043c000                g_usrvars

.rsrc           0x000000000043d000     0x1200
 *(.rsrc)
 .rsrc          0x000000000043d000     0x1184 build/release/stub_zlib_solid/resource.o
 *(SORT(.rsrc$*))

.reloc
 *(.reloc)

.stab
 *(.stab)

.stabstr
 *(.stabstr)

.debug_aranges
 *(.debug_aranges)

.debug_pubnames
 *(.debug_pubnames)

.debug_info
 *(.debug_info)
 *(.gnu.linkonce.wi.*)

.debug_abbrev
 *(.debug_abbrev)

.debug_line
 *(.debug_line)

.debug_frame
 *(.debug_frame)

.debug_str
 *(.debug_str)

.debug_loc
 *(.debug_loc)

.debug_macinfo
 *(.debug_macinfo)

.debug_weaknames
 *(.debug_weaknames)

.debug_funcnames
 *(.debug_funcnames)

.debug_typenames
 *(.debug_typenames)

.debug_varnames
 *(.debug_varnames)

.debug_ranges
 *(.debug_ranges)
OUTPUT(build/release/stub_zlib_solid/stub_zlib.exe pei-i386)
